

  Address         Publics by Value

 0005:00100000       __ctr_start
 0005:00100024       nninitRegion
 0005:00100048       __c89vswprintf
 0005:00100090       wcslen
 0005:001000A4       nn__ro__detail__DynamicLoader__Startup
 0005:001000A8       j__printf_int_dec
 0005:001000B0       _printf_int_dec
 0005:0010011C       j__printf_charcount
 0005:00100124       _printf_charcount
 0005:0010014C       _printf_mbtowc
 0005:001001DC       _printf_input_wchar
 0005:001001E6       _printf_wchar_common
 0005:0010020C       _snputwc
 0005:0010021C       _printf_wc
 0005:001002EC       j___aeabi_vec_ctor_nocookie_nodtor
 0005:001002F4       __aeabi_vec_ctor_nocookie_nodtor
 0005:00100318       j__printf_int_oct
 0005:00100320       _printf_longlong_oct
 0005:00100364       _printf_int_oct
 0005:00100398       _printf_longlong_hex
 0005:00100488       _printf_cs_common
 0005:001004C0       _printf_lcs_common
 0005:001004F0       memcmp
 0005:00100570       thunk_FUN_00100578
 0005:00100610       __set_errno
 0005:00100618       __read_errno
 0005:0010062E       tolower
 0005:00100648       __c89vsnprintf
 0005:001006BC       __2snprintf
 0005:00100710       _printf_wctomb
 0005:001007CC       atoi
 0005:001007E6       mbstowcs
 0005:00100836       wcstombs
 0005:0010091C       wcsncmp
 0005:00100944       wmemset
 0005:001009AC       __cpp_initialize__aeabi_
 0005:001009D0       j___aeabi_vec_dtor
 0005:001009D8       __aeabi_vec_dtor
 0005:001009FC       vsnprintf
 0005:00100A44       sscanf
 0005:00100A84       strtol
 0005:00100AF4       __rt_SIGPVFN
 0005:00100B00       strrchr_
 0005:00100B44       _printf_char_file
 0005:00100B6C       _scanf_longlong
 0005:00100CB0       _scanf_int
 0005:00100DFA       _scanf_string
 0005:00100EDC       isspace
 0005:00100EE8       __vfscanf_char
 0005:00100F56       _wcstoul
 0005:00100FFE       _scanf_mbtowc
 0005:00101118       _scanf_wstring
 0005:001012C8       _initio
 0005:001013A0       _terminateio
 0005:00101760       __vfscanf
 0005:00101AF4       _fp_value
 0005:00101CF2       _scanf_really_real
 0005:00101FB8       ferror
 0005:00101FC4       __flsbuf
 0005:001021B8       _fseek
 0005:001025DC       _scanf_really_hex_real
 0005:001025E0       _scanf_really_infnan
 0005:00102720       aInfinity
 0005:0010272C       _ftell_internal
 0005:001027BC       catopen
 0005:00102860       __rw____rw_allocate
 0005:001029D4       aRwstderr
 0005:001029E0       aD_0
 0005:001029F4       __rw____rw_deallocate
 0005:001029FC       __rw____rw_facet_base___C_initfacet
 0005:00102A3C       __rw____rw_locale_imp____rw_locale_imp
 0005:00102B00       std____rw_exception__what_void_
 0005:00102B18       __rw____rw_throw_exception_noex
 0005:00102B54       aExceptionS
 0005:00102B68       aUnknownExcepti
 0005:00102B7C       aUnexpectedExce
 0005:00102B94       aBadAllocOutOfM
 0005:00102DAE       std____rw_messages_base___C_cat_open
 0005:001030C0       std__ctype_byname_char____C_get_mask_table
 0005:00103180       aPosix
 0005:0010318C       std__ctype_byname_char___ctype_byname
 0005:001032E0       std____rw_exception___C_vformat
 0005:00103368       std____rw_exception____rw_exception
 0005:001033AC       nullsub_358
 0005:001033D4       std____rw_open_cat_data____rw_open_cat_data
 0005:001033FA       std__ctype__UNKNOWN
 0005:0010357C       nullsub_355
 0005:0010357E       std__locale__locale
 0005:001035B8       nullsub_359
 0005:00103608       nullsub_356
 0005:0010360A       nullsub_360
 0005:00103610       __ARM_array_new_general
 0005:001036B4       __aeabi_vec_cctor_nocookie_nodtor
 0005:001036DE       __aeabi_vec_new_cookie
 0005:001036F0       j_nullsub_361
 0005:001036F8       nullsub_361
 0005:001036FA       __cxa_pure_virtual
 0005:00103704       __cxa_vec_new
 0005:00103778       fputc
 0005:001037FC       __rw____rw_locale_vector_std__string__operator__
 0005:00103804       __rw____rw_locale_vector_std____rw_open_cat_data___resize
 0005:00103A42       nullsub_362
 0005:00103A44       nullsub_363
 0005:00103A46       nullsub_364
 0005:00103A48       std__string___C_allocate
 0005:00103A7C       std__string__replace
 0005:00103CCC       _printf_percent
 0005:00103D98       nnMain
 0005:00104080       nninitCallStaticInitializers
 0005:001040B4       nninitLocale
 0005:00104108       nninitSetup
 0005:00104128       nninitStartUp
 0005:00104148       nn__applet__CTR__detail__Initialize
 0005:001041E8       Boot__entry
 0005:00104388       MemAlc__MemAlc
 0005:0010485C       nn__fs__Initialize
 0005:00104918       nn__fs__InitializeLatencyEmulation
 0005:0010496C       nninitSystem
 0005:0010498C       nn__os__CTR__detail__SetInternalErrorHandlingMode
 0005:0010499C       nn__hid__CTR__Initialize
 0005:001049C0       nn__ptm__CTR__detail__Initialize
 0005:00104A4C       Grp__Initialize
 0005:00105214       GameWork__StartRO
 0005:00105470       aRomRoStaticCrs
 0005:00105498       aRomCrrStaticCr
 0005:001056CC       def_1056C8
 0005:001056D0       jpt_1056C8
 0005:001059C0       MessageSys__initWork
 0005:00105E10       SndSys__func
 0005:00106284       GameWork__initGameWork
 0005:0010640C       Boot__StartBoot
 0005:001067E4       nullsub_325
 0005:00106818       SoundHandle__StartPrepared
 0005:00106BE8       VramAlcRange__term
 0005:00106C10       Grp__mergeVram
 0005:00106C3C       VramAlcRange__merge
 0005:00106C88       Grp__splitVram
 0005:00107084       aRomMessageGaij
 0005:001070B8       MsgDataAcsrBase__init
 0005:0010715C       aLbl1
 0005:00107164       aTxt2
 0005:0010716C       aAtr1
 0005:00107174       aTsy1
 0005:0010717C       nn__fs__GetRomRequiredMemorySize
 0005:001071A4       nn__fs__CTR__MPCore__detail__UserFileSystem__Initialize
 0005:001071D0       nn__fs__ipc__FileSystem__SetPriority
 0005:00107200       nn__fs__detail__RegisterGlobalFileSystemBase
 0005:00107370       nn__fs__MountAddOnContent
 0005:001073A4       aRom
 0005:001073BC       nn__os__WaitableCounter__Initialize
 0005:00107408       nn__svc__GetResourceLimitCurrentValues
 0005:0010745C       nn__os__GetAppMemorySize
 0005:0010746C       nn__os__SetDeviceMemorySize
 0005:0010754C       nn__os__GetDeviceMemoryAddress
 0005:0010755C       nn__os__SetupHeapForMemoryBlock
 0005:0010761C       nn__os__detail__SaveThreadLocalRegionAddress
 0005:00107644       nn__ro__detail__InitializeImpl
 0005:00107670       nn__ro__RegisterList
 0005:001076C4       nn__ro__Finalize
 0005:00107834       nn__cfg__CTR__GetLanguage
 0005:00107870       nn__cfg__CTR__IsDebugMode
 0005:001078E8       nn__cfg__CTR__GetFsLatencyEmulationParam
 0005:00107B48       nn__hid__CTR__GetAccelerometer
 0005:00107B54       nn__hid__CTR__TouchPanelReader__ReadLatest
 0005:00107BD8       nullsub_365
 0005:00107C2C       nn__hid__CTR__AnalogStickClamper__AnalogStickClamper
 0005:00107C90       nn__hid__CTR__AccelerometerReader__ReadLatest
 0005:00107D54       nn__hid__CTR__AccelerometerReader__ConvertToAcceleration
 0005:00107DD0       nn__hid__CTR__AccelerometerReader
 0005:00107E78       nn__hid__CTR__PadReader__ReadLatest
 0005:00107FA8       nn__hid__CTR__PadReader__PadReader
 0005:00107FDC       nullsub_366
 0005:00107FE0       nninitSetupDaemons
 0005:00108024       nninitSetupDefault
 0005:001080F8       nn__srv__RegisterNotificationHandler
 0005:00108160       nn__font__ResFont__RemoveResource
 0005:00108178       nn__init__InitializeAllocator
 0005:0010827C       nn__applet__CTR__ReplySleepQuery
 0005:001082C0       nn__applet__CTR__SetAwakeCallback
 0005:001082D4       nn__applet__CTR__SetSleepQueryCallback
 0005:001082E8       nn__applet__CTR__ProcessPowerButtonAndWait
 0005:001083F4       nn__applet__CTR__IsExpectedToReplySleepQuery
 0005:00108408       nn__applet__CTR__detail__IsAppletMode
 0005:00108578       nn__applet__CTR__detail__InitializeConnect
 0005:001086EC       nn__applet__CTR__detail__Enable
 0005:00108798       Boot__Boot
 0005:001088DC       CtrFS__mountSaveData
 0005:00108914       CtrFS__unmountSaveData
 0005:00108988       Backup__isBusyCopying
 0005:00108AC8       Backup__writeInitData
 0005:00108CA0       MemAlc__initCore
 0005:001091C4       aRomShaderFbcle
 0005:00109238       TaskMan__entry
 0005:00109634       GameWork__updatePlayTime
 0005:00109E48       Boot__Update
 0005:0010A170       Boot__startCtr
 0005:0010A358       operator_new
 0005:0010A37C       glBindRenderbuffer
 0005:0010A4C4       glDeleteFramebuffers
 0005:0010A6A0       glDeleteRenderbuffers
 0005:0010A824       glFramebufferRenderbuffer
 0005:0010A8E8       glGenFramebuffers
 0005:0010AB20       glGenRenderbuffers
 0005:0010AD58       glRenderbufferStorage
 0005:0010AE68       nngxActiveDisplay
 0005:0010AEA0       nngxBindCmdlist
 0005:0010B008       nngxBindDisplaybuffer
 0005:0010B110       nngxCmdlistStorage
 0005:0010B1F8       nngxDeleteCmdlists
 0005:0010B468       nngxDisplayEnv
 0005:0010B578       nngxFinalize
 0005:0010B6DC       nngxGenCmdlists
 0005:0010B948       nngxGetCmdlistParameteri
 0005:0010B960       def_10B95C
 0005:0010B964       jpt_10B95C
 0005:0010BA60       def_10BA5C
 0005:0010BA64       jpt_10BA5C
 0005:0010BB20       nngxGetVramEndAddr
 0005:0010BB5C       nngxGetVramStartAddr
 0005:0010BBAC       nngxInitialize
 0005:0010C868       nngxRunCmdlist
 0005:0010C984       nngxWaitCmdlistDone
 0005:0010CA20       nn__svc__ControlMemory
 0005:0010CA44       nn__svc__CreateAddressArbiter
 0005:0010CA5C       nn__svc__GetResourceLimit
 0005:0010CCA0       nn__ro__Initialize
 0005:0010D098       LMSi_SearchBlockByName
 0005:0010D1B4       MemAlcBase__GetOpt
 0005:0010D1D0       MessageSys__GetPath
 0005:0010D224       aRomMessageLsLs
 0005:0010D250       MessageSys__MessageSys
 0005:0010D2AC       CtrFileBase__open
 0005:0010D33C       CtrFileBase__close
 0005:0010D4F0       SoundHandle__DetachSound
 0005:0010D550       def_10D54C
 0005:0010D554       jpt_10D54C
 0005:0010D5C8       nn__fs__CommitSaveData
 0005:0010D624       nn__fs__GetRomRequiredMemorySizeImpl
 0005:0010D7A8       nn__fs__CTR__MPCore__detail__UserFileSystem__TryOpenFile
 0005:0010D83C       nn__fs__CTR__MPCore__detail__UserFileSystem__TryReadFile
 0005:0010D89C       nn__fs__CTR__MPCore__detail__UserFileSystem__CloseFile
 0005:0010D8B4       nn__fs__ipc__FileSystem__InitializeWithSdkVersion
 0005:0010D8F4       nn__fs__detail__FileBase__TryRead
 0005:0010DBDC       jpt_10DBD4
 0005:0010DC6C       def_10DBD4
 0005:0010DD20       nn__os__InitializeMemoryBlock
 0005:0010DD64       nn__ro__RegistrationList__Unregister
 0005:0010DDA8       nn__ro__Module__Unload
 0005:0010DEF4       nn__ro__detail__DynamicLoader__RegisterList
 0005:0010DFC0       nn__ro__detail__IsCodeAddress
 0005:0010E034       nn__cfg__CTR__Initialize
 0005:0010E05C       nn__cfg__CTR__detail__FinalizeInit
 0005:0010E0F4       nn__cfg__CTR__detail__InitializeProperPort
 0005:0010E17C       nn__dsp__CTR__UnloadComponent
 0005:0010E1F8       nn__err__CTR__ThrowFatalErrAll
 0005:0010E228       nn__fnd__ExpHeapBase__Initialize
 0005:0010E30C       nn__hid__CTR__AnalogStickClamper__ClampValueOfClamp
 0005:0010E358       nn__hid__CTR__AnalogStickClamper__ClampCore
 0005:0010E3EC       nn__hid__CTR__AccelerometerReader__ResetAxisRotationMatrix
 0005:0010E494       nn__hid__CTR__AccelerometerReader__Read
 0005:0010E6BC       nn__hid__CTR__AccelerometerReader__Transform
 0005:0010E838       nn__hid__CTR__detail__Ipc__GetIPCHandles
 0005:0010E8B0       nn__hid__CTR__detail__Ipc__EnableAccelerometer
 0005:0010E8E0       nn__hid__CTR__detail__Ipc__DisableAccelerometer
 0005:0010E910       nn__hid__CTR__ExtraPad__IsSampling
 0005:0010E928       nn__ndm__Initialize
 0005:0010EC74       nn__snd__CTR__Finalize
 0005:0010EDF8       nn__srv__detail__Connect
 0005:0010EE98       nn__srv__detail__Service__EnableNotification
 0005:0010EF48       nn__font__ResFont__SetResource
 0005:0010F120       nn__font__ResFont__SetDrawBuffer
 0005:0010F15C       nw__font__ResFont__GetDrawBufferSize
 0005:0010F210       nn__gxlow__CTR__SetAppletMode
 0005:0010F264       nn__applet__CTR__EnableSleep
 0005:0010F284       nn__applet__CTR__DisableSleep
 0005:0010F2BC       nn__applet__CTR__GetAttribute
 0005:0010F2CC       nn__applet__CTR__IsInfoAccess
 0005:0010F2EC       nn__applet__CTR__SetAttribute
 0005:0010F2FC       nn__applet__CTR__IsInitialized
 0005:0010F344       nn__applet__CTR__InitializeWrapper
 0005:0010F3D8       nn__applet__CTR__IsReceivedWakeupByCancel
 0005:0010F3E8       nn__applet__CTR__ProcessHomeButtonAndWait
 0005:0010F4F8       nn__applet__CTR__GetSleepNotificationState
 0005:0010F52C       nn__applet__CTR__SetId
 0005:0010F53C       nn__applet__CTR__detail__Disconnect
 0005:0010F588       nn__applet__CTR__detail__InitializeMutex
 0005:0010F598       nn__applet__CTR__detail__GetAppletManInfo
 0005:0010F61C       nn__applet__CTR__detail__StartSystemApplet
 0005:0010F7FC       nn__applet__CTR__detail__SetInitialParamSize
 0005:0010F80C       nn__applet__CTR__detail__GetOrderToCloseState
 0005:0010F81C       nn__applet__CTR__detail__SetInitialParamValid
 0005:0010F830       nn__applet__CTR__detail__GetInitialParamBuffer
 0005:0010F83C       nn__applet__CTR__detail__SetInitialWakeupState
 0005:0010F84C       nn__applet__CTR__detail__InitializeClientThread
 0005:0010F9CC       nn__applet__CTR__detail__SetInitialParamSenderId
 0005:0010F9DC       nn__applet__CTR__detail__PrepareToStartSystemApplet
 0005:0010FAE8       nn__applet__CTR__detail__APPLET__Initialize
 0005:0010FB38       nn__applet__CTR__detail__APPLET__GetLockHandle
 0005:0010FC24       nn__applet__CTR__detail__APPLET__Enable
 0005:0010FC5C       nn__applet__CTR__detail__Connect
 0005:0010FCCC       nn__hidlow__CTR__PadLifoRing__ReadData
 0005:0010FE74       nn__hidlow__CTR__TouchPanelLifoRing__ReadData
 0005:0011026C       aRedspark
 0005:0011027C       Grp__SetClearColor
 0005:00110290       Grp__end
 0005:001102FC       Grp__begin
 0005:001103A4       Mem__Copy
 0005:00110BE4       Mem__Fill
 0005:00110D10       Mem__Free
 0005:00111BC4       Prim__disableCull
 0005:00111BEC       Prim__setDrawMode
 0005:00111CF8       Prim__disableAlphaTest
 0005:00111D20       Prim__enableStencilTest
 0005:00111E70       Prim__setBlend
 0005:00111F70       CtrFS__CtrFS
 0005:001120F8       aDataMl4000Sav
 0005:00112128       Backup__Backup
 0005:00112494       GameWork__startPlayTime
 0005:00112548       GameWork__UpdatePcStatus
 0005:001126D0       jpt_1126C8
 0005:00112744       def_1126C8
 0005:00112928       GameWork__addItem
 0005:00112D3C       REDSPARK__Sd__RSSound__GetInstance
 0005:00113018       aRom_0
 0005:00113044       nw__snd__internal__driver__HardwareManager__SetMasterVolume
 0005:00113630       REDSPARK__Sd__RSSound__isStandby
 0005:001137FC       CellAnime__init
 0005:00113924       CtrJobMan__init
 0005:001139AC       CtrJobMan__term
 0005:00113A5C       CtrJobMan__CtrJobMan
 0005:00113BF0       nn__fs__detail__FileBase__TryGetSize
 0005:00113F5C       jpt_113F54
 0005:00113FB8       def_113F54
 0005:001143B4       operator_new__
 0005:001143D8       __fb_finalizeFBManager
 0005:00114520       __fb_initializeFBManager
 0005:00114564       __shm_finalizeShaderManager
 0005:00114860       __shm_initializeShaderManager
 0005:001150A8       __srf_initSurface
 0005:001155E4       __sta_finalizeState
 0005:00115600       __sta_initializeState
 0005:00115A98       __tx_finalizeTexManager
 0005:00115DE0       __tx_initializeTexManager
 0005:00115F94       __vb_finalizeVBManager
 0005:001160C8       __vb_initializeVBManager
 0005:0011613C       __vldtr_finalizeStateValidator
 0005:00116158       __vldtr_initializeStateValidator
 0005:00116198       fb_createFramebuffer
 0005:00116200       glBindFramebuffer
 0005:0011644C       nngxAddVramDmaCommand
 0005:001164C0       nngxGetAllocator
 0005:001164E4       nngxSplitDrawCmdlist
 0005:0011667C       nngxWaitVSync
 0005:00116834       j_sys_commonIntrHandler
 0005:00116838       j_sys_commonIntrHandler_0
 0005:0011683C       j_sys_commonIntrHandler_1
 0005:00116840       nn__fs__CTR__MPCore__detail__FindArchive_wchar_t_
 0005:00116928       nullsub_367
 0005:001169CC       nn__math__ARMv6__MTX34CopyAsm
 0005:001169FC       nn__math__ARMv6__VEC3TransformAsm
 0005:00116A40       nn__math__ARMv6__MTX44CopyAsm
 0005:00116A74       nnutilReferSymbol_
 0005:00116A90       nn__svc__CreateThread
 0005:00116AB4       nngxlowGetSystemTick
 0005:00116AC0       __aeabi_ldivmod
 0005:00116B10       __aeabi_memset
 0005:00116B20       GlobalEvent__getRegister
 0005:00116B34       GetRegFlag
 0005:00116B6C       jpt_116B64
 0005:00116D18       def_116B64
 0005:00116EBC       CtrFReadEx__CtrFReadEx
 0005:001170AC       CtrSaveRead__CtrSaveRead
 0005:001170D0       CtrFReadBase__CtrFReadBase
 0005:001170F0       CtrSaveWrite__CtrSaveWrite
 0005:00117110       MessageDrawer__MessageDrawer
 0005:0011713C       nn__fs__MountSaveData
 0005:001171B8       nn__fs__CTR__MPCore__detail__RegisterArchive
 0005:00117314       nn__fs__CTR__MPCore__detail__LatencyEmulation
 0005:001173A4       nn__fs__CTR__MPCore__detail__OpenDataContent
 0005:00117500       nn__fs__CTR__MPCore__detail__OpenSpecialArchiveRaw
 0005:001175BC       nn__fs__ipc__FileSystem__ControlArchive
 0005:00117CA0       jpt_117C98
 0005:00117D6C       def_117C98
 0005:00117E60       jpt_117E58
 0005:00117EF4       def_117E58
 0005:001188DC       jpt_1188D4
 0005:0011893C       def_1188D4
 0005:00118980       nn__ir__CTR__CepdGetStatus
 0005:00118998       nn__os__LightEvent__Signal
 0005:00118A50       nn__os__LightSemaphore__Release
 0005:00118AC8       nn__snd__CTR__VoiceManager__Initialize
 0005:00118AE8       nn__os__CriticalSection__Initialize
 0005:00118B04       nn__os__GetCodeRegionSize
 0005:00118B5C       nn__os__GetCodeRegionAddress
 0005:00118C00       nn__os__Thread__TryInitializeAndStartImpl
 0005:00118CF0       nn__ro__Module__Enumerate
 0005:00118E50       nn__ro__detail__EnableDebugNotification
 0005:00118F44       nn__cfg__CTR__detail__Initialize
 0005:001190BC       nn__cfg__CTR__detail__InitializeSys
 0005:00119138       nn__cfg__CTR__detail__InitializeInit
 0005:001191B8       nn__cfg__CTR__detail__IpcUser__GetConfig
 0005:00119244       nn__cfg__CTR__detail__Finalize
 0005:001192B4       nn__dsp__CTR__Initialize
 0005:00119380       nn__dsp__CTR__LoadDefaultComponent
 0005:001193F8       nn__dsp__CTR__OrderToWaitForFinalize
 0005:00119440       nn__dsp__CTR__ClearSleepWakeUpCallback
 0005:00119490       nn__dsp__CTR__RegisterSleepWakeUpCallback
 0005:001194E8       nn__err__CTR__ThrowFatalErr
 0005:0011963C       nn__fnd__detail__CreateHeap
 0005:00119768       nn__hid__CTR__detail__CalculateAccelerationTightly
 0005:001197F8       nn__ndm__CTR__detail__Interface__OverrideDefaultDaemons
 0005:0011985C       nn__snd__CTR__Initialize
 0005:0011993C       nn__snd__CTR__VoiceManager__Finalize
 0005:00119948       nn__snd__CTR__MasterManager__Initialize
 0005:00119A34       nn__snd__CTR__MasterManager__Finalize
 0005:00119A84       nn__snd__CTR__MasterManagerImpl__SetSurroundDepth
 0005:00119A90       nn__snd__CTR__MasterManagerImpl__SetSurroundSpeakerPosition
 0005:00119AEC       nn__snd__CTR__Sleep
 0005:00119B34       nn__snd__CTR__WakeUp
 0005:00119B9C       nn__srv__Initialize
 0005:00119C04       nn__srv__GetServiceHandle
 0005:00119C38       nn__srv__detail__Service__RegisterClient
 0005:00119D0C       nw__font__ResFontBase__SetResourceBuffer
 0005:00119D18       nw__font__ResFontBase__DeleteTextureNames
 0005:00119D70       nw__ut__IsValidBinaryFile
 0005:00119DF0       nn__gxlow__CTR__Initialize
 0005:00119F24       nn__gxlow__CTR__Gpu__WriteHWRegs
 0005:00119F50       nn__gxlow__CTR__YieldThread
 0005:00119F64       nn__gxlow__CTR__SaveVramSysArea
 0005:00119F8C       nn__gxlow__CTR__WriteHWRegsWithMask
 0005:00119FC0       nn__gxlow__CTR__IsFirstInitialization
 0005:00119FD8       nn__gxlow__CTR__RegisterInterruptHandler
 0005:0011A024       nn__gxlow__CTR__GetNumSpeculativeRequests
 0005:0011A070       nn__gxlow__CTR__Lock
 0005:0011A080       nn__gxlow__CTR__Unlock
 0005:0011A090       nngxlowFinalize
 0005:0011A0F8       nn__applet__CTR__GetAppletType
 0005:0011A10C       nn__applet__CTR__IsApplication
 0005:0011A128       nn__applet__CTR__IsEnableSleep
 0005:0011A138       nn__applet__CTR__IsSystemApplet
 0005:0011A158       nn__applet__CTR__GetTransitionType
 0005:0011A168       nn__applet__CTR__SetTransitionType
 0005:0011A178       nn__applet__CTR__GetHomeButtonState
 0005:0011A188       nn__applet__CTR__SetHomeButtonState
 0005:0011A198       nn__applet__CTR__SetSleepNotificationState
 0005:0011A1B8       nn__applet__CTR__ReceiveCallbackForCommands
 0005:0011A668       nn__applet__CTR__SetExpectationToJumpToHome
 0005:0011A7CC       nn__applet__CTR__SetReceivedWakeupByCancelFlag
 0005:0011A7E0       nn__applet__CTR__detail__ThreadFunc
 0005:0011A96C       jpt_11A964
 0005:0011AB08       def_11A964
 0005:0011AB38       nn__applet__CTR__detail__SetInactive
 0005:0011AB4C       nn__applet__CTR__detail__AssignGpuRight
 0005:0011ABC4       nn__applet__CTR__detail__JumpToHomeMenu
 0005:0011AD0C       nn__applet__CTR__detail__LockTransition
 0005:0011AD40       nn__applet__CTR__detail__WaitForStarting
 0005:0011B138       nn__applet__CTR__detail__UnlockTransition
 0005:0011B164       nn__gxlow__CTR__Gpu__RestoreVramSysArea
 0005:0011B18C       nn__applet__CTR__detail__SetReceiveCallback
 0005:0011B19C       nn__applet__CTR__ClearHomeButtonState
 0005:0011B1B8       nn__applet__CTR__detail__SleepIfShellClosed
 0005:0011B1E4       nn__applet__CTR__detail__SetPowerButtonState
 0005:0011B1F4       nn__applet__CTR__detail__SetOrderToCloseState
 0005:0011B204       nn__applet__CTR__detail__PrepareToJumpToHomeMenu
 0005:0011B290       nn__applet__CTR__detail__ReplySleepQueryToManager
 0005:0011B2BC       nn__applet__CTR__detail__CaptureScreenForSystemApplet
 0005:0011B374       nn__applet__CTR__detail__CancelLibraryAppletIfRegistered
 0005:0011B4E8       nn__applet__CTR__detail__APPLET__GetAppletManInfo
 0005:0011B558       nn__applet__CTR__detail__APPLET__StartSystemApplet
 0005:0011B5A8       nn__applet__CTR__detail__APPLET__PrepareToStartSystemApplet
 0005:0011B5E0       nn__applet__CTR__detail__IsActive
 0005:0011B5F0       nn__applet__CTR__detail__SetActive
 0005:0011B604       nn__hidlow__ClampStickCross
 0005:0011B708       nn__hidlow__ClampStickCircle
 0005:0011B7EC       nn__hidlow__ClampStickMinimum
 0005:0011B9B8       nn__hidlow__GatherStartAndSelect
 0005:0011BA8C       nn__hidlow__CTR__AccelerometerLifoRing__ReadData
 0005:0011BEA8       aRom_1
 0005:0011C240       aRom_2
 0005:0011C418       Grp__GetLcdWidth
 0005:0011C444       Prim__Prim
 0005:0011CA18       CtrFS__initCore
 0005:0011CA24       GameDB__GetDataPcLv
 0005:0011CA94       GameDB__GetEquip
 0005:0011CAF4       Message__Message
 0005:0011CCD8       CellAnimeTex__initFcram
 0005:0011CE20       jpt_11CE18
 0005:0011D0C8       def_11CE18
 0005:0011D1F4       aS
 0005:0011D27C       jpt_11D274
 0005:0011D2CC       def_11D274
 0005:0011D398       nw__snd__internal__driver__HardwareManager__AppendEffect
 0005:0011DAF4       REDSPARK__Sd__RSSound__IsEntry
 0005:0011DCDC       CellAnime__play
 0005:0011DDE8       CtrThread__CtrThread
 0005:0011EE8C       nn__gr__CTR__Combiner__MakeCommand
 0005:0011F07C       __fbv_initializeFBValidator
 0005:0011F088       __shv_initializeShaderValidatorHWRegister
 0005:0011F164       __txv_initializeTextureValidatorHWRegister
 0005:0011F2F4       aLdrRo
 0005:0011F51C       jpt_11F514
 0005:0011F598       def_11F514
 0005:0011F7F4       nngxlowRequestDMAEx
 0005:0011F808       nngxlowSetDisplayTransfer
 0005:0011F828       nngxlowSetMemoryFill
 0005:0011F848       nngxlowSetTextureCopy
 0005:0011F86C       sys_commonIntrHandler
 0005:0011F938       sys_fixSubroutineCommand
 0005:0011F990       sys_issueSpeculativeCommandRequests
 0005:0011F9FC       jpt_11F9F4
 0005:0011FBB8       def_11F9F4
 0005:0011FBF4       tx_createCubeTexContainer
 0005:0011FCBC       tx_createTexContainer
 0005:0011FD54       vb_createCollection
 0005:0011FEF4       _get_lc_ctype
 0005:0011FF3C       _get_lc_numeric
 0005:00120184       nullsub_368
 0005:00120188       nullsub_369
 0005:001201E8       nn__svc__ArbitrateAddress
 0005:00120200       nn_svc__ConnectToPort
 0005:00120218       nn__svc__CreateEvent
 0005:00120230       nn__svc__GetProcessId
 0005:00120250       nn__svc__WaitSynchronizationN
 0005:0012029C       strncmp
 0005:0012038C       __aeabi_memclr
 0005:001203D4       CtrFileBase__CtrFileBase
 0005:00120480       MessageWriter__MessageWriter
 0005:00120574       nn__fs__CTR__MPCore__detail__RomFsArchive__Initialize
 0005:0012095C       nn__fs__CTR__MPCore__detail__UserFileSystem__TryGetFileSize
 0005:001209A8       nn__fs__CTR__MPCore__detail__ContentRomFsArchive__AllocateBuffer
 0005:00120A90       nn__fs__CTR__MPCore__detail__ContentRomFsArchive__ContentRomFsArchive
 0005:00120B74       nn__fs__ipc__FileSystem__OpenArchive
 0005:00120BD4       nn__fs__ipc__FileSystem__CloseArchive
 0005:00120C04       nn__fs__ipc__FileSystem__OpenFileDirectly
 0005:00120CA4       nn__fs__detail__GetIpcFileSystem
 0005:00120CD8       nn__fs__detail__FileBase__TrySeek
 0005:00120E44       nullsub_328
 0005:00120E48       nn__os__LightEvent__Initialize
 0005:00120E7C       nn__os__LightEvent__Wait
 0005:00120F40       nn__os__SimpleLock__Initialize
 0005:00120F58       nn__os__SimpleLock__Unlock
 0005:00121010       nn__svc__UnmapMemoryBlock
 0005:0012107C       nn__os__CTR__detail__HandleInternalError
 0005:001210EC       nn__os__Thread__FinalizeImpl
 0005:00121140       nn__os__Thread__SleepImpl
 0005:00121330       nn__cfg__CTR__detail__FinalizeBase
 0005:00121374       nn__cfg__CTR__detail__InitializeBase
 0005:001213D0       nn__dsp__CTR__DSP__SetSemaphoreMask
 0005:001213FC       nn__dsp__CTR__DSP__GetSemaphoreEventHandle
 0005:00121428       nn__dsp__CTR__RegisterInterruptEvents
 0005:001214C0       nn__dsp__CTR__Awake
 0005:0012157C       nn__dsp__CTR__Sleep
 0005:0012162C       nn__err__CTR__FatalErr__Throw
 0005:00121664       nn__fnd__detail__AppendListObject
 0005:00121790       nn__fnd__HeapBase__FillMemory32
 0005:00121874       nn__snd__CTR__DspFxDelay__Attach
 0005:00121904       nn__snd__CTR__DspFxDelay__Enable
 0005:00121990       nn__snd__CTR__DspFxDelay__Finalize
 0005:00121A5C       nn__snd__CTR__DspFxDelay__SetParam
 0005:00121BC4       nn__snd__CTR__DspFxReverb__Finalize
 0005:00121C90       nn__snd__CTR__VoiceManager__ForceUpdateParams
 0005:00121CF4       nn__snd__CTR__MasterManager__SetIsHeadsetConnected
 0005:00121D14       nn__snd__CTR__DspFxManagerImpl__Initialize
 0005:00121EC4       nn__snd__CTR__DspFxManagerImpl__ForceUpdateParams
 0005:00121F24       nn__snd__CTR__DspFxManagerImpl__Finalize
 0005:00121F38       nn__snd__CTR__MasterManagerImpl__Initialize
 0005:00121F60       nn__snd__CTR__MasterManagerImpl__InitializeParam
 0005:0012211C       nn__snd__CTR__Dspsnd__SetSyncMode
 0005:00122208       nn__snd__CTR__MasterManagerImpl__SetSoundOutputMode
 0005:0012226C       nn__snd__CTR__MasterManagerImpl__Finalize
 0005:0012228C       nn__snd__CTR__SendParameterToDsp
 0005:001222E8       nn__snd__CTR__Dspsnd__Initialize
 0005:00122458       nn__snd__CTR__Dspsnd__InitializeVariables
 0005:00122720       nn__snd__CTR__Dspsnd__Finalize
 0005:001228A4       nn__gxlow__CTR__RequestDma
 0005:00122924       nn__gxlow__CTR__SetMemoryFill
 0005:00122994       nngxlowFlushDataCache
 0005:001229C8       nn__gxlow__CTR__SetCommandlist
 0005:00122A98       nn__gxlow__CTR__SetTextureCopy
 0005:00122AFC       nn__gxlow__CTR__AcquireGpuRight
 0005:00122B64       nngxGetPhysicalAddr
 0005:00122B68       nngxlowGetPhysicalAddr
 0005:00122BA0       nn__gxlow__CTR__ReleaseGpuRight
 0005:00122BF4       nn__gxlow__CTR__InterruptReceiver__Initialize
 0005:00122F00       nn__gxlow__CTR__SetDisplayTransfer
 0005:00123008       nn__gxlow__CTR__Gpu__AcquireRight
 0005:0012304C       nn__gxlow__CTR__Gpu__WriteHWRegsWithMask
 0005:001230AC       nn__gxlow__CTR__detail__IsAppletMode
 0005:001230C8       nn__applet__CTR__SetMessageCommand
 0005:001230D8       nn__applet__CTR__SetShutdownCallbackFlag
 0005:001230EC       nn__applet__CTR__IsToCallShutdownCallback
 0005:001230FC       nn__applet__CTR__ClearShutdownCallbackFlag
 0005:00123110       nn__applet__CTR__SetPowerButtonCallbackFlag
 0005:00123124       nn__applet__CTR__IsToCallPowerButtonCallback
 0005:00123134       nn__applet__CTR__ClearPowerButtonCallbackFlag
 0005:00123148       nn__applet__CTR__GetId
 0005:00123158       nn__applet__CTR__detail__TryReceive
 0005:0012328C       nn__applet__CTR__detail__CallUtility
 0005:00123358       nn__applet__CTR__detail__AssignDspRight
 0005:001233A8       nn__applet__CTR__detail__LockAndConnect
 0005:00123464       nn__applet__CTR__detail__CancelParameter
 0005:001234B8       nn__applet__CTR__detail__GetSleepSysState
 0005:001234C8       nn__applet__CTR__detail__SetShutdownState
 0005:001234D8       nn__applet__CTR__detail__SetSleepSysState
 0005:001234E8       nn__applet__CTR__detail__ClearSleepSysState
 0005:001234FC       nn__applet__CTR__detail__NotifyToWait
 0005:00123520       nn__applet__CTR__detail__DisconnectAndUnlock
 0005:00123590       nn__applet__CTR__detail__GetAbsoluteHomeButtonState
 0005:001235CC       nn__applet__CTR__detail__SetAbsoluteHomeButtonState
 0005:00123614       nn__applet__CTR__detail__ClearAbsoluteHomeButtonState
 0005:00123628       nn__applet__CTR__detail__ReplySleepNotificationCompleteToManager
 0005:0012364C       nn__applet__CTR__detail__Send
 0005:00123830       nn__applet__CTR__detail__APPLET__SleepSystem
 0005:00123868       nn__applet__CTR__detail__APPLET__IsRegistered
 0005:001238AC       nn__applet__CTR__detail__APPLET__NotifyToWait
 0005:00123938       nn__applet__CTR__detail__APPLET__ReplySleepQuery
 0005:0012397C       nn__applet__CTR__detail__APPLET__CancelLibraryApplet
 0005:001239B8       nn__applet__CTR__detail__APPLET__InquireNotification
 0005:001239FC       nn__applet__CTR__detail__APPLET__PrepareToJumpToHomeMenu
 0005:00123A2C       nn__applet__CTR__detail__Glance
 0005:00123AC8       nn__applet__CTR__detail__AssignCameraRight
 0005:00123ADC       nn__camera__CTR__detail__LeaveApplication
 0005:00123B88       nn__crypto__Sha256Context
 0005:00123C70       Frm__play
 0005:00123CE8       Frm__setSpd
 0005:0012437C       nw__snd__internal__driver__HardwareManager__FinalizeEffect
 0005:00124EC8       aRedspark_0
 0005:001257F4       __ARM_common_memcpy4_8
 0005:00125808       __fb_detachSurfaceContainer
 0005:001265EC       glDeleteTextures
 0005:00126B44       glGetError
 0005:00126EA4       nngxUpdateBuffer
 0005:00126EA8       nngxUpdateState
 0005:00126FF8       nngxValidateState
 0005:001271DC       tx_freeTextureMemory
 0005:001272E0       nullsub_370
 0005:001273D0       nnnstdMemCpy
 0005:00127AF4       nn__svc__ExitThread
 0005:00127EB8       __rt_memcpy_w
 0005:00127F6C       __aeabi_uidivmod
 0005:00127F9C       _btod_d2e
 0005:00127FD4       CellAnimeState__resetState
 0005:00128004       CellAnimeState__prepare
 0005:00128120       nn__fs__GetPriority
 0005:00128148       nn__fs__detail__FileBase__TrySetPosition
 0005:001281E8       nn__os__LightEvent__TryWait
 0005:00128238       nn__os__SimpleLock__Lock
 0005:00128318       nn__svc__MapMemoryBlock
 0005:00128434       nndbgPanic
 0005:0012848C       nn__dsp__CTR__DSP__SetSemaphore
 0005:001284B8       nn__dsp__CTR__DSP__RecvDataIsReady
 0005:001284EC       nn__dsp__CTR__DSP__WriteProcessPipe
 0005:00128534       nn__dsp__CTR__ReadPipeIfPossible
 0005:00128588       nn__dsp__CTR__ConvertProcessAddressFromDspDram
 0005:001285C8       nn__dsp__CTR__DSP__LoadComponent
 0005:00128628       nn__dsp__CTR__DSP__UnloadComponent
 0005:001286BC       nn__dsp__CTR__DSP__RegisterInterruptEvents
 0005:001286F8       nn__dsp__CTR__WakeUp
 0005:001287A8       nn__dsp__CTR__RecvData
 0005:001287DC       nn__fnd__ExpHeapBase__Allocate
 0005:00128840       nn__fnd__UnitHeapBase__Initialize
 0005:001288E0       nn__fnd__detail__FindContainHeap
 0005:001289A0       nn__fnd__detail__InitList
 0005:00128BEC       nn__snd__CTR__DspFxReverb__Attach
 0005:00128C44       nn__snd__CTR__DspFxReverb__Enable
 0005:00128CD0       nn__snd__CTR__DspFxReverb__SetParam
 0005:00129050       nn__snd__CTR__DspFxManager__GetInstance
 0005:0012905C       nn__snd__CTR__DspFxManager__Detach
 0005:00129070       nn__snd__CTR__WaitForDspSync
 0005:0012911C       nn__snd__CTR__DspFxManagerImpl__GetInstance
 0005:0012922C       nn__snd__CTR__Dspsnd__EnableAuxBus
 0005:00129298       nn__snd__CTR__Dspsnd__SetRearRatio
 0005:001292E8       nn__snd__CTR__Dspsnd__SendParameter
 0005:00129420       nn__snd__CTR__Dspsnd__SyncFrameData
 0005:00129528       nn__snd__CTR__Dspsnd__SetClippingMode
 0005:00129570       nn__snd__CTR__Dspsnd__SetMasterVolume
 0005:001295BC       nn__snd__CTR__Dspsnd__SetSurroundDepth
 0005:00129610       nn__snd__CTR__Dspsnd__SetAuxFrontBypass
 0005:0012967C       nn__snd__CTR__Dspsnd__SetAuxReturnVolume
 0005:001296EC       nn__snd__CTR__Dspsnd__SetSoundOutputMode
 0005:00129734       nn__snd__CTR__Dspsnd__SetOutputBufferCount
 0005:001297C0       nn__snd__CTR__Dspsnd__WaitPipe
 0005:001298DC       nn__gxlow__CTR__CmdReqQueueTx__Initialize
 0005:00129940       nn__gxlow__CTR__CmdReqQueueTx__TryEnqueue
 0005:00129AA0       nn__gxlow__CTR__IsInitialized
 0005:00129C2C       nn__gxlow__CTR__InterruptRelayQueueRx__SuppressPdcEvents
 0005:00129C6C       nn__gxlow__CTR__Gpu__ReleaseRight
 0005:00129D20       nn__gxlow__CTR__Gpu__RegisterInterruptRelayQueue
 0005:00129D98       nn__gxlow__CTR__detail__IsFatalErrMode
 0005:00129DA8       nn__gxlow__CTR__detail__GetInterruptReceiver
 0005:00129DB8       nn__gxlow__CTR__detail__GetGpuIpc
 0005:00129DC4       nn__applet__CTR__GetMessageCommand
 0005:00129DD4       nn__applet__CTR__detail__GetDisplayInfo
 0005:00129E38       nn__applet__CTR__detail__WaitForRegister
 0005:00129FB8       nn__applet__CTR__detail__ClearControlEvent
 0005:00129FC4       nn__applet__CTR__detail__WaitForControlEvent
 0005:00129FD0       nn__applet__CTR__detail__WaitToCaptureScreen
 0005:0012A0C8       nn__applet__CTR__detail__FinalizeClientThread
 0005:0012A184       nn__applet__CTR__detail__CalcCaptureBufferInfo
 0005:0012A1A0       jpt_12A198
 0005:0012A1C8       def_12A198
 0005:0012A1FC       jpt_12A1F4
 0005:0012A224       def_12A1F4
 0005:0012A264       jpt_12A25C
 0005:0012A28C       def_12A25C
 0005:0012A2F8       nn__applet__CTR__detail__TryWaitForControlEvent
 0005:0012A304       nn__applet__CTR__detail__APPLET__AppletUtility
 0005:0012A380       nn__applet__CTR__detail__APPLET__SendParameter
 0005:0012A3D8       nn__applet__CTR__detail__APPLET__CancelParameter
 0005:0012A434       nn__applet__CTR__detail__APPLET__GlanceParameter
 0005:0012A4C0       nn__applet__CTR__detail__APPLET__ReceiveParameter
 0005:0012A5C8       nn__applet__CTR__detail__APPLET__ReplySleepNotificationComplete
 0005:0012A600       nn__applet__CTR__detail__Receive
 0005:0012A8C0       nn__camera__CTR__detail__Camera__GetSleepCamera
 0005:0012A8FC       nn__camera__CTR__detail__Camera__Activate
 0005:0012A938       nn__camera__CTR__detail__Camera__GetActivatedCamera
 0005:0012A974       nn__camera__CTR__detail__Camera__SetSleepCamera
 0005:0012AA34       nn__crypto__Sha256Context__Update
 0005:0012AB38       Grp__GetProjOrtho
 0005:0012AC70       jpt_12AC68
 0005:0012B504       def_12AC68
 0005:0012C9C4       CellAnime__setConstColor
 0005:0012CA08       CellAnime__draw
 0005:0012CD90       glViewport
 0005:0012D258       __shv_partialValidateShaderValidator
 0005:00130DE0       jpt_130DD8
 0005:00130EDC       def_130DD8
 0005:00130EE4       __txv_validateTextureValidator
 0005:00131050       __vbv_initializeVBValidator
 0005:0013105C       __vbv_validateVBValidator
 0005:001313A0       vbv_validateZeroBuffer
 0005:00131430       vldtr_validateOthers
 0005:00131A6C       nullsub_371
 0005:0013267C       nn_svc__Break
 0005:00132694       nullsub_372
 0005:00132698       __aeabi_idiv0
 0005:00132704       nn__fs__ipc__FileSystem__GetPriority
 0005:0013273C       nn__os__CriticalSection__Enter
 0005:00132774       nn__gxlow__CTR__InterruptReceiver__WaitAnyHandlerDone
 0005:001327BC       nn__os__CriticalSection__Leave
 0005:00132990       nn__dsp__CTR__FlushDataCach
 0005:00132ACC       nn__dsp__CTR__DSP__ReadPipeIfPossible
 0005:00132B34       nn__dsp__CTR__DSP__ConvertProcessAddressFromDspDram
 0005:00132BB4       nn__fnd__detail__AllocFromHeap
 0005:00132CFC       nn__fnd__detail__GetNextListObject
 0005:00132D14       nn__fnd__detail__SetGroupIDForHelp
 0005:00132D24       nn__fnd__detail__SetAllocModeForHeap
 0005:00132D44       nn__fnd__detail__UseMarginOfAlignmentForHeap
 0005:00132DB4       nn__snd__CTR__VoiceManager__AllocVoice
 0005:00132DCC       nn__snd__CTR__DspFxManager__GetDspCycles
 0005:00132E40       nn__snd__CTR__DspFxManager__Attach
 0005:00132E60       nn__snd__CTR__VoiceManager__UpdateParams
 0005:00132E94       nn__snd__CTR__VoiceManager__AdjustVoicePlayState
 0005:0013300C       nn__snd__CTR__VoiceManager__UpdateWaveBufferList
 0005:00133040       nn__snd__CTR__MasterManager__GetDspCycles
 0005:001330C0       nn__snd__CTR__MasterManager__ExecuteEffect
 0005:00133134       nn__snd__CTR__MasterManager__AuxUserCallback
 0005:0013317C       nn__snd__CTR__OutputCapture__Write
 0005:001331BC       nn__snd__CTR__DspFxManagerImpl__SetDspDelayEffect
 0005:0013339C       nn__snd__CTR__Dspsnd__SetDspDelayEffect
 0005:001335CC       nn__snd__CTR__Dspsnd__SetSurroundSpeakerPosition
 0005:00133784       nn__gxlow__CTR__ImportDisplayCaptureInfo
 0005:001337F8       nn__gxlow__CTR__Gpu__TriggerCmdReqQueue
 0005:00134270       jpt_134268
 0005:0013441C       def_134268
 0005:00136824       CellAnime__GetPtnNo
 0005:00136908       CellAnime__drawCore
 0005:001377A0       __cb_addDummyWrite
 0005:00137800       __cb_fillRegs
 0005:001378C8       __cb_multiWriteReg
 0005:00137A60       __hardfp_powf
 0005:001381E8       __shv_ValidateShaderValidator
 0005:0013BC34       j_nngxlowGetPhysicalAddr
 0005:0013BC38       tx_validate2DTextureWUnit
 0005:0013CBE0       tx_validateCubeTextureWUnit
 0005:0013D278       __btod_div_common
 0005:0013D5C0       _e2e
 0005:0013D69C       __btod_mult_common
 0005:0013DD64       CellAnimeColorAnm__GetColorResult
 0005:0013DF78       nn__dsp__CTR__IsComponentLoaded
 0005:0013DF88       nn__fnd__detail__AllocUsedBlockFromFreeBlock
 0005:0013E45C       nn__snd__CTR__GetHeadphoneStatus
 0005:0013E4AC       nn__snd__CTR__Dspsnd__SetChannelRIM
 0005:0013E514       nn__snd__CTR__Dspsnd__SetChannelTimer
 0005:0013E574       nn__snd__CTR__Dspsnd__GetDroppedFrameCount
 0005:0013E5AC       nn__snd__CTR__Dspsnd__SetChannelIirFilterType
 0005:0013E604       nn__snd__CTR__Dspsnd__SetChannelIIRFilter_Mono
 0005:0013E664       nn__snd__CTR__Dspsnd__SetChannelIIRFilter_Biquad
 0005:0013E6D8       nn__snd__CTR__FxDelay__UpdateBuffer
 0005:0013E7C8       nn__snd__CTR__FxReverb__UpdateBuffer
 0005:0013E9F8       nn__snd__CTR__FreeVoice
 0005:0013EA08       nn__snd__CTR__VoiceImpl__SetMixVolume
 0005:0013EAF0       nn__snd__CTR__VoiceImpl__SetSyncCount
 0005:0013EB2C       nn__snd__CTR__VoiceImpl__ForceUpdateParams
 0005:0013EB38       nn__snd__CTR__VoiceImpl__UpdateParams
 0005:0013EDD4       nn__snd__CTR__VoiceImpl__UpdateStatus
 0005:0013F13C       nn__snd__CTR__VoiceImpl__SendWaveBuffer
 0005:0013F150       nn__snd__CTR__VoiceImpl__Start
 0005:0013F1C0       nn__gxlow__CTR__Gpu__ImportDisplayCaptureInfo
 0005:001406F0       __cb_writeRegs
 0005:001407D4       __hardfp_cosf
 0005:00140950       __hardfp_sinf
 0005:00140C30       nn__snd__CTR__VoiceManager__FreeVoice
 0005:00140CF0       nn__snd__CTR__VoiceImpl__Initialize
 0005:00140DCC       nn__snd__CTR__Dspsnd__SetChannelMix
 0005:00140E90       nn__snd__CTR__Dspsnd__SetChannelPlayStart
 0005:00140EE4       nn__snd__CTR__Dspsnd__SetChannelSyncCount
 0005:0014121C       nn__snd__CTR__Voice__SetState
 0005:00141248       nn__snd__CTR__VoiceImpl__SetState
 0005:0014134C       nn__math__CntBit1
 0005:00141718       __ARM_fpclassifyf
 0005:00141744       __mathlib_flt_underflow
 0005:00141754       __mathlib_rredf2
 0005:00141898       nn__snd__CTR__Dspsnd__SetChannelPlayStop
 0005:001418F4       nn__snd__CTR__Dspsnd__ResetChannelNextBuffer
 0005:00141944       nn__snd__CTR__Dspsnd__AppendChannelNextBuffer
 0005:00141AAC       nn__snd__CTR__Dspsnd__UpdateChannelNextBuffer
 0005:00141BA0       nn__snd__CTR__Dspsnd__AssignPCM
 0005:00141E68       nn__snd__CTR__VoiceImpl__ReleaseWaveBuffer
 0005:00141ED4       __ARM_common_memclr4_10
 0005:00141EE8       __ARM_common_memcpy4_5
 0005:00141F30       nn__math__ARMv6__MTX34MultAsm
 0005:00142110       nn__math__ARMv6__MTX34InverseAsm
 0005:0014222C       nn__math__ARMv6__MTX34InvTransposeAsm
 0005:00142328       nn__math__ARMv6__MTX34MultTranslateAsm
 0005:00142378       nn__math__ARMv6__MTX34TransposeAsm
 0005:00142564       nn__math__ARMv6__MTX34ToMTX33Asm
 0005:001427B4       adsl__gfx__internal__NWCopyMtx34Reverse
 0005:001427EC       adsl__gfx__internal__NWCopyMtx34WithHeader
 0005:001428BC       adsl__gfx__internal__NWCopyVec3Reverse
 0005:00142E04       adsl__gfx__internal__FastWordCopyAsm_6
 0005:00143390       nn__crypto__Sha256Context__ProcessBlock
 0005:001434D0       nn__svc__CreateMemoryBlock
 0005:001434EC       nn__svc__CreateMutex
 0005:001435D8       __rt_new_handler_addr
 0005:001435E4       _e2d
 0005:00143640       _btod_edivd
 0005:00143670       _btod_emuld
 0005:00145470       LMS_GetText
 0005:001454AC       LMS_GetTextSize
 0005:001455B4       LMS_GetAttrNum
 0005:001455D0       LMS_InitMessage
 0005:00145648       aMsgstdbn
 0005:00145654       aLbl1_0
 0005:0014565C       aTxt2_0
 0005:00145664       aAtr1_0
 0005:0014566C       aTsy1_0
 0005:00145730       PutRegFlag
 0005:0014576C       def_145768
 0005:00145770       jpt_145768
 0005:001459F8       FieldPlaySe
 0005:00145FD4       BtlGetMonData
 0005:00146084       GetSndSeParam
 0005:00146180       jpt_146178
 0005:00146238       def_146178
 0005:001464D4       TransCrossBtnBit
 0005:001465E8       def_1465E4
 0005:001465EC       jpt_1465E4
 0005:00146638       RewriteMatTexComb
 0005:00146640       def_14663C
 0005:00146644       jpt_14663C
 0005:00146A94       SetTex4bLocationFlag
 0005:00146E50       InitRewriteMatTexComb
 0005:00147968       LMSi_AnalyzeMessageBinary
 0005:001484BC       jpt_1484B4
 0005:00148660       def_1484B4
 0005:00148CD0       get
 0005:00149D0C       BtlDfxSystem__BtlDfxSystem
 0005:0014B89C       jpt_14B894
 0005:0014B9C8       def_14B894
 0005:0014C3DC       nullsub_1
 0005:0014C44C       nullsub_2
 0005:0014C55C       nullsub_3
 0005:0014CB88       nullsub_4
 0005:0014CD70       BtlObjBase____deallocating
 0005:0014CFAC       nullsub_5
 0005:0014F198       BtlObjMove__BtlObjMove
 0005:0014F3D8       BtlObjMove____deallocating
 0005:00152080       jpt_152078
 0005:00152160       def_152078
 0005:00152278       jpt_152270
 0005:00152294       def_152270
 0005:0015265C       jpt_152654
 0005:00152690       def_152654
 0005:00152878       jpt_152870
 0005:001528F8       def_152870
 0005:00152F74       jpt_152F6C
 0005:00152FA8       def_152F6C
 0005:00153280       aExsetask
 0005:00155464       jpt_15545C
 0005:00155524       def_15545C
 0005:00157AC8       jpt_157AC0
 0005:00157CA0       def_157AC0
 0005:00158240       jpt_158238
 0005:00158498       def_158238
 0005:001586EC       REDSPARK__Sd__RSSound__pause
 0005:00158B60       CtrArcFile__open
 0005:00158C18       CtrArcFile__cancel
 0005:00158D78       CtrArcFile__isBusy
 0005:00158E18       CtrArcFile__getSize
 0005:00158E88       CtrArcFile__readCore
 0005:00158F30       CtrArcFile____deallocating
 0005:0015A2EC       aMastacheRTop
 0005:0015A2FC       aMastacheR2
 0005:0015A308       aMastacheR
 0005:0015A314       aMastacheLTop
 0005:0015A324       aMastacheL2
 0005:0015A330       aMastacheL
 0005:0015ACA8       DfxSys__term
 0005:0015BF10       jpt_15BF08
 0005:0015BFB0       def_15BF08
 0005:0015BFF8       jpt_15BFF0
 0005:0015C158       def_15BFF0
 0005:0015C548       jpt_15C540
 0005:0015C688       def_15C540
 0005:0015C6D4       jpt_15C6CC
 0005:0015C790       def_15C6CC
 0005:0015C7D8       jpt_15C7D0
 0005:0015C930       def_15C7D0
 0005:0015C97C       jpt_15C974
 0005:0015CABC       def_15C974
 0005:0015CB0C       jpt_15CB04
 0005:0015CC4C       def_15CB04
 0005:0015CF38       jpt_15CF30
 0005:0015CFD8       def_15CF30
 0005:0015D0EC       jpt_15D0E4
 0005:0015D20C       def_15D0E4
 0005:0015D2E4       jpt_15D2DC
 0005:0015D4AC       def_15D2DC
 0005:0015DBC0       jpt_15DBB8
 0005:0015DCC8       def_15DBB8
 0005:0015E98C       jpt_15E984
 0005:0015EACC       def_15E984
 0005:0015EB58       DreamEvent____deallocating
 0005:0015F398       nullsub_6
 0005:0015F39C       nullsub_7
 0005:0015F7FC       jpt_15F7F4
 0005:0015F82C       def_15F7F4
 0005:0015F8AC       jpt_15F8A4
 0005:0015F8DC       def_15F8A4
 0005:00161074       MoveFBase__moveSin
 0005:001632BC       jpt_1632B4
 0005:00163378       def_1632B4
 0005:00168AA0       DreamMainU__DreamMainU
 0005:00168C88       DreamMainU____deallocating
 0005:00169D28       jpt_169D20
 0005:00169EA0       def_169D20
 0005:00169EFC       jpt_169EF4
 0005:0016A094       def_169EF4
 0005:0016A590       def_16A58C
 0005:0016A594       jpt_16A58C
 0005:0016B374       jpt_16B36C
 0005:0016B3C0       def_16B36C
 0005:00171998       jpt_171990
 0005:001719C8       def_171990
 0005:00171A48       jpt_171A40
 0005:00171A78       def_171A40
 0005:00171BF8       jpt_171BF0
 0005:00171C28       def_171BF0
 0005:00171C98       def_171C94
 0005:00171C9C       jpt_171C94
 0005:00172080       def_17207C
 0005:00172084       jpt_17207C
 0005:00172A38       DreamMario____deallocating
 0005:00173938       FieldBlock__FieldBlock
 0005:00173E24       FieldBlock____deallocating
 0005:00174280       nullsub_8
 0005:00175048       jpt_175040
 0005:0017515C       def_175040
 0005:00175564       jpt_17555C
 0005:00175648       def_17555C
 0005:00176700       jpt_1766F8
 0005:001767BC       def_1766F8
 0005:001767FC       jpt_1767F4
 0005:001768B8       def_1767F4
 0005:001768F0       jpt_1768E8
 0005:001769B4       def_1768E8
 0005:00176BFC       jpt_176BF4
 0005:00176CB8       def_176BF4
 0005:00176CF8       jpt_176CF0
 0005:00176DB4       def_176CF0
 0005:00176DEC       jpt_176DE4
 0005:00176EB0       def_176DE4
 0005:001779E0       jpt_1779D8
 0005:00177BA4       def_1779D8
 0005:00177C08       jpt_177C00
 0005:00177E74       def_177C00
 0005:00177EE4       jpt_177EDC
 0005:001786A8       def_177EDC
 0005:00178C34       jpt_178C2C
 0005:00178CEC       def_178C2C
 0005:00178D48       jpt_178D40
 0005:00178DE4       def_178D40
 0005:00179064       aRomRoPuzzleCro
 0005:001790EC       aIsend
 0005:0017A540       jpt_17A538
 0005:0017A738       jpt_17A730
 0005:0017A9D4       jpt_17A9CC
 0005:0017AFB8       jpt_17AFB0
 0005:0017B130       jpt_17B128
 0005:0017B1E4       jpt_17B1DC
 0005:0017B2D0       jpt_17B2C8
 0005:0017B3C4       def_17A730
 0005:0017B3CC       def_17A538
 0005:0017B410       jpt_17B408
 0005:0017BFC4       def_17B408
 0005:0017C070       jpt_17C068
 0005:0017C240       def_17C250
 0005:0017C258       jpt_17C250
 0005:0017C428       jpt_17C420
 0005:0017CCC4       def_17C068
 0005:0017E3F8       nullsub_843
 0005:0017EED4       jpt_17EECC
 0005:0017EF4C       def_17EECC
 0005:0017F4FC       jpt_17F4F4
 0005:0017F6DC       def_17F4F4
 0005:0017FFD0       jpt_17FFC8
 0005:0018000C       def_17FFC8
 0005:00181E64       jpt_181E5C
 0005:00181F4C       def_181E5C
 0005:00181F98       jpt_181F90
 0005:001820C4       def_181F90
 0005:001821F0       jpt_1821E8
 0005:00182524       def_1821E8
 0005:00182594       jpt_18258C
 0005:001829B8       def_18258C
 0005:001843D8       jpt_1843D0
 0005:001845EC       def_1843D0
 0005:00184A50       FieldEvent__FieldEvent
 0005:00184AEC       FieldEvent____deallocating
 0005:00186048       jpt_186040
 0005:00186290       def_186040
 0005:00186388       nullsub_9
 0005:00186440       jpt_186438
 0005:00186474       def_186438
 0005:0018D6EC       thunk_FUN_002ad9b4
 0005:00190A08       jpt_190A00
 0005:00190A74       def_190A00
 0005:00190B60       jpt_190B58
 0005:00190C04       def_190B58
 0005:00192270       ShadowSys__build
 0005:00193EC0       FieldMainU__FieldMainU
 0005:00194034       FieldMainU____deallocating
 0005:00194130       jpt_194128
 0005:00194378       def_194128
 0005:001943FC       nullsub_892
 0005:001944E0       jpt_1944D8
 0005:00194514       def_1944D8
 0005:0019483C       FieldObjCA__chgCA
 0005:00194954       FieldObjCA__delCA
 0005:0019499C       FieldObjCA__initCA
 0005:001949B4       FieldObjCA__playCA
 0005:00194A78       FieldObjCA__buildCA
 0005:00194BC0       FieldObjCA__setCADisp
 0005:00194BD0       FieldObjCA__FieldObjCA
 0005:00195494       jpt_19548C
 0005:001954E4       def_19548C
 0005:001956F0       nullsub_872
 0005:001963D8       nullsub_894
 0005:00198F78       def_198F74
 0005:00198F7C       jpt_198F74
 0005:00199C94       aEyeL
 0005:00199C9C       aEyeLocL
 0005:00199CA8       aEyeR
 0005:00199CB0       aEyeLocR
 0005:0019A154       def_19A150
 0005:0019A158       jpt_19A150
 0005:0019A6C8       jpt_19A6C0
 0005:0019A708       def_19A6C0
 0005:0019B38C       nullsub_553
 0005:0019D6CC       jpt_19D6C4
 0005:0019D988       def_19D6C4
 0005:0019DD48       nullsub_901
 0005:0019DD4C       nullsub_902
 0005:0019E21C       j_operator_delete_
 0005:0019E220       nullsub_411
 0005:0019E3D8       nullsub_412
 0005:0019E3DC       nullsub_413
 0005:0019E3E0       nullsub_414
 0005:0019E3E4       nullsub_415
 0005:0019E3E8       j_operator_delete__0
 0005:0019E3EC       nullsub_416
 0005:0019E870       jpt_19E868
 0005:0019E960       def_19E868
 0005:0019F328       nullsub_10
 0005:0019F4B8       operator_delete
 0005:0019F4BC       nullsub_11
 0005:0019F4C0       nullsub_12
 0005:0019F630       j_operator_delete__1
 0005:0019F634       nullsub_13
 0005:0019F888       j_operator_delete__2
 0005:0019F88C       nullsub_417
 0005:0019F890       nullsub_418
 0005:0019FA4C       j_operator_delete__3
 0005:0019FA50       nullsub_419
 0005:0019FAF4       nullsub_420
 0005:0019FD64       j_operator_delete__4
 0005:0019FD68       nullsub_421
 0005:001A04BC       nullsub_14
 0005:001A0904       nullsub_422
 0005:001A0BE8       j_operator_delete__5
 0005:001A0BEC       nullsub_423
 0005:001A0BF0       nullsub_424
 0005:001A0C90       j_operator_delete__6
 0005:001A0C94       nullsub_425
 0005:001A0E3C       nullsub_426
 0005:001A1338       nullsub_427
 0005:001A141C       def_1A1418
 0005:001A1420       jpt_1A1418
 0005:001A17D8       j_operator_delete__7
 0005:001A17DC       nullsub_428
 0005:001A17E0       nullsub_429
 0005:001A193C       j_operator_delete__8
 0005:001A1940       nullsub_430
 0005:001A1D88       nullsub_431
 0005:001A1DF4       nullsub_432
 0005:001A1DF8       j_operator_delete__9
 0005:001A1DFC       nullsub_433
 0005:001A20B0       nullsub_434
 0005:001A21B4       jpt_1A21AC
 0005:001A2560       def_1A21AC
 0005:001A2630       j_operator_delete__10
 0005:001A2634       nullsub_435
 0005:001A3194       nullsub_436
 0005:001A32A4       j_operator_delete__11
 0005:001A32A8       nullsub_437
 0005:001A33FC       nullsub_438
 0005:001A3810       j_operator_delete__12
 0005:001A3814       nullsub_439
 0005:001A3818       nullsub_440
 0005:001A381C       nullsub_441
 0005:001A3820       nullsub_442
 0005:001A3824       j_operator_delete__13
 0005:001A3828       nullsub_443
 0005:001A3E50       nullsub_444
 0005:001A3E9C       def_1A3E98
 0005:001A3EA0       jpt_1A3E98
 0005:001A40A0       nullsub_445
 0005:001A4180       jpt_1A4178
 0005:001A42DC       def_1A4178
 0005:001A46B4       nullsub_446
 0005:001A478C       j_operator_delete__14
 0005:001A4790       nullsub_447
 0005:001A4850       nullsub_448
 0005:001A4B18       nullsub_449
 0005:001A4C40       j_operator_delete__15
 0005:001A4C44       nullsub_450
 0005:001A587C       jpt_1A5874
 0005:001A5AAC       def_1A5874
 0005:001A628C       aBroom01
 0005:001A6298       aBroom02
 0005:001A62A4       aBroom03
 0005:001A62B0       aRoot
 0005:001A62B8       aProg01
 0005:001A653C       j_operator_delete__16
 0005:001A6540       nullsub_451
 0005:001A6F04       jpt_1A6EFC
 0005:001A706C       def_1A6EFC
 0005:001A7218       jpt_1A7210
 0005:001A77E8       def_1A7210
 0005:001A7EEC       jpt_1A7EE4
 0005:001A9C0C       def_1A7EE4
 0005:001A9C24       jpt_1A9C1C
 0005:001AACA4       def_1A9C1C
 0005:001AADE4       jpt_1AADDC
 0005:001AC014       def_1AADDC
 0005:001AC038       nullsub_925
 0005:001AD95C       jpt_1AD954
 0005:001ADB24       def_1AD954
 0005:001ADCBC       jpt_1ADCB4
 0005:001ADEB0       def_1ADCB4
 0005:001B1184       nullsub_926
 0005:001B11B8       jpt_1B11B0
 0005:001B128C       def_1B11B0
 0005:001B12A8       jpt_1B12A0
 0005:001B137C       def_1B12A0
 0005:001B1BD0       jpt_1B1BC8
 0005:001B1E5C       def_1B1BC8
 0005:001B1E78       jpt_1B1E70
 0005:001B1FB0       def_1B1E70
 0005:001B2404       jpt_1B23FC
 0005:001B2420       def_1B23FC
 0005:001B32C8       jpt_1B32C0
 0005:001B33C0       def_1B32C0
 0005:001B4374       jpt_1B436C
 0005:001B4554       def_1B436C
 0005:001B4B7C       jpt_1B4B74
 0005:001B4EE8       def_1B4B74
 0005:001B526C       jpt_1B5264
 0005:001B559C       def_1B5264
 0005:001B5C90       jpt_1B5C88
 0005:001B5FCC       def_1B5C88
 0005:001B74E4       nullsub_927
 0005:001B7D78       jpt_1B7D70
 0005:001BAA78       def_1B7D70
 0005:001BAECC       jpt_1BAEC4
 0005:001BB7B8       def_1BAEC4
 0005:001BBF44       jpt_1BBF3C
 0005:001BC034       def_1BBF3C
 0005:001BC344       jpt_1BC33C
 0005:001BC6DC       def_1BC33C
 0005:001BC76C       jpt_1BC764
 0005:001BC9D8       def_1BC764
 0005:001BCBE0       jpt_1BCBD8
 0005:001BD20C       def_1BCBD8
 0005:001BE70C       jpt_1BE704
 0005:001BE72C       def_1BE704
 0005:001BE734       nullsub_928
 0005:001BF638       jpt_1BF630
 0005:001BF768       jpt_1BF760
 0005:001BF784       def_1BF760
 0005:001BF7F8       def_1BF630
 0005:001BFA5C       jpt_1BFA54
 0005:001BFB2C       def_1BFA54
 0005:001C0024       jpt_1C001C
 0005:001C01CC       def_1C001C
 0005:001C0298       jpt_1C0290
 0005:001C039C       def_1C0290
 0005:001C04B8       jpt_1C04B0
 0005:001C076C       def_1C04B0
 0005:001C11FC       def_1C1D88
 0005:001C12B8       jpt_1C12B0
 0005:001C17AC       jpt_1C17A4
 0005:001C17C8       def_1C17A4
 0005:001C19C0       jpt_1C19B8
 0005:001C19DC       def_1C19B8
 0005:001C1C3C       def_1C12B0
 0005:001C1D90       jpt_1C1D88
 0005:001C20A0       jpt_1C2098
 0005:001C2144       def_1C2098
 0005:001C2D2C       j_operator_delete__17
 0005:001C2D30       nullsub_929
 0005:001C32E4       jpt_1C32DC
 0005:001C3838       def_1C32DC
 0005:001C38A8       jpt_1C38A0
 0005:001C38C4       def_1C38A0
 0005:001C4EB4       jpt_1C4EAC
 0005:001C5178       def_1C4EAC
 0005:001C5730       jpt_1C5728
 0005:001C576C       def_1C5728
 0005:001C5820       jpt_1C5818
 0005:001C58CC       def_1C5818
 0005:001C5E6C       jpt_1C5E64
 0005:001C5F04       def_1C5E64
 0005:001C6DE4       jpt_1C6DDC
 0005:001C6E8C       def_1C6DDC
 0005:001C7190       MemAlc__initAlloc
 0005:001C7194       MemAlc__getAlloc
 0005:001C71BC       MessageSys__GetLangName
 0005:001C726C       MessageSys__draw
 0005:001C7590       MessageSys__func
 0005:001C78E8       MessageSys__init
 0005:001C7A64       aRomMessageSS
 0005:001C7C00       jpt_1C7BF8
 0005:001C7C28       def_1C7BF8
 0005:001C8878       jpt_1C8870
 0005:001C88D4       def_1C8870
 0005:001C8B64       PrimVtxBuf__init
 0005:001C8D34       PrimVtxBuf__begin
 0005:001C8EB4       PrimVtxBuf__vtxClr
 0005:001C8F64       PrimVtxBuf__vtxPos
 0005:001C8FF0       PrimVtxBuf__vtxTex
 0005:001C9094       PrimVtxBuf__swapBuf
 0005:001C9134       PrimVtxBuf__PrimVtxBuf
 0005:001C92DC       RealPlayer__RealPlayer
 0005:001C94C4       RealSystem__UpdateState
 0005:001C94C8       RealSystem__getPath
 0005:001C955C       RealSystem_____Mode2
 0005:001C967C       RealSystem_____
 0005:001C97E4       RealSystem__initBtl
 0005:001C99EC       jpt_1C99E4
 0005:001C9EB4       jpt_1C9EAC
 0005:001CA050       def_1C9EAC
 0005:001CA300       def_1C99E4
 0005:001CAE80       RealSystem__start
 0005:001CB050       RealSystem__RealSystem
 0005:001CB14C       RealSystem____deallocating
 0005:001CB41C       nullsub_17
 0005:001CB794       jpt_1CB78C
 0005:001CBBD8       def_1CB78C
 0005:001CBFFC       nullsub_903
 0005:001CC000       nullsub_904
 0005:001CC004       nullsub_905
 0005:001CC008       nullsub_906
 0005:001CC00C       nullsub_907
 0005:001CCBD0       def_1CCBCC
 0005:001CCBD4       jpt_1CCBCC
 0005:001CD03C       jpt_1CD034
 0005:001CD0BC       def_1CD034
 0005:001CD878       jpt_1CD870
 0005:001CDB5C       def_1CD870
 0005:001CDD44       jpt_1CDD3C
 0005:001CDDC4       def_1CDD3C
 0005:001CE05C       jpt_1CE054
 0005:001CE31C       def_1CE054
 0005:001CE930       BtlBootInfo__reset
 0005:001CF30C       jpt_1CF304
 0005:001CF3FC       def_1CF304
 0005:001CFB10       j_operator_delete__18
 0005:001CFB18       nullsub_18
 0005:001CFB3C       j_nullsub_18_14
 0005:001CFB50       j_nullsub_18_15
 0005:001CFB64       j_nullsub_18_16
 0005:001CFB78       j_nullsub_18
 0005:001CFB8C       j_nullsub_18_17
 0005:001CFBA0       j_nullsub_18_18
 0005:001CFBB4       j_nullsub_18_19
 0005:001CFBC8       j_nullsub_18_11
 0005:001CFBDC       j_nullsub_18_20
 0005:001D36A8       jpt_1D36A0
 0005:001D37D0       def_1D36A0
 0005:001D3840       j_operator_delete__19
 0005:001D3844       nullsub_978
 0005:001D3F8C       jpt_1D3F84
 0005:001D3FF0       def_1D3F84
 0005:001D4268       nullsub_979
 0005:001D5AE8       jpt_1D5AE0
 0005:001D5B18       def_1D5AE0
 0005:001D7350       BtlMainFunc__BtlMainFunc
 0005:001D7444       BtlMainFunc____deallocating
 0005:001D75DC       nullsub_980
 0005:001D7668       nullsub_981
 0005:001DAFF0       jpt_1DAFE8
 0005:001DB5D0       def_1DAFE8
 0005:001DBC98       nullsub_998
 0005:001DE23C       jpt_1DE234
 0005:001DE3E0       def_1DE234
 0005:001DFCE0       thunk_FUN_001cf9fc
 0005:001DFCF4       j_nullsub_18_22
 0005:001DFDA8       CtrFileBase__cancel
 0005:001DFF00       CtrFileBase__isBusy
 0005:001DFF90       CtrFileBase____deallocating
 0005:001E0070       CtrSaveFile____deallocating
 0005:001E008C       CtrSaveFile__CtrSaveFile
 0005:001E1E88       aCylinder01
 0005:001E211C       DfxChildMan__run
 0005:001E2A74       j_nullsub_951
 0005:001E3000       DreamPlayer____deallocating
 0005:001E3010       j_nullsub_949
 0005:001E35A4       DreamSystem__UpdateState
 0005:001E35A8       DreamSystem__getPath
 0005:001E37A0       jpt_1E3798
 0005:001E3A04       def_1E3798
 0005:001E3BF4       DreamSystem__UpdateMode
 0005:001E3D9C       jpt_1E3D94
 0005:001E3E00       caseD_1
 0005:001E3E24       caseD_2
 0005:001E3E9C       caseD_4
 0005:001E3F24       def_1E3D94
 0005:001E45D4       DreamSystem__Update
 0005:001E4624       DreamSystem__start
 0005:001E4AB4       DreamSystem__DreamSystem
 0005:001E4BC0       DreamSystem____deallocating
 0005:001E4E98       FieldCAInfo__FieldCAInfo
 0005:001E4EA8       j_operator_delete__20
 0005:001E4EB0       nullsub_951
 0005:001E5A88       FieldCamera__setPos
 0005:001E5C30       FieldCamera__update
 0005:001E6B04       nullsub_19
 0005:001E7BAC       nullsub_20
 0005:001E7DC0       nullsub_21
 0005:001E8090       nullsub_869
 0005:001E8094       nullsub_870
 0005:001E85D0       aInitfro
 0005:001E86E0       aTermfro
 0005:001E8744       aUpdatefro
 0005:001E8750       FieldModule__FieldModule
 0005:001E87C8       FieldModule____deallocating
 0005:001E8D74       FieldNumber__FieldNumber
 0005:001E9348       FieldObjMdl__chgMdl
 0005:001E9F04       FieldObjMdl__FieldObjMdl
 0005:001E9F90       FieldObjMdl____deallocating
 0005:001EA5A8       FieldPlayer__FieldPlayer
 0005:001EA5BC       FieldPlayer____deallocating
 0005:001EA5C4       nullsub_949
 0005:001EA7F0       FieldSystem__GetMdlData
 0005:001EA82C       GameMain__ParseModel
 0005:001EB578       jpt_1EB570
 0005:001EB5B4       def_1EB570
 0005:001EC07C       jpt_1EC074
 0005:001EC0B4       def_1EC074
 0005:001EC20C       jpt_1EC204
 0005:001EC244       def_1EC204
 0005:001EC6F8       GameMain__LoadMultiDat
 0005:001EC7A0       jpt_1EC798
 0005:001EC7D8       def_1EC798
 0005:001EC928       FieldSystem__UpdateState
 0005:001ED12C       jpt_1ED124
 0005:001ED164       def_1ED124
 0005:001ED204       GameMain__getResourceSize
 0005:001ED31C       GameMain__LoadResource
 0005:001ED47C       GameMain__startDfx
 0005:001ED4C0       FieldSystem__getPath
 0005:001ED880       nullsub_957
 0005:001ED884       GameMain__LoadFieldData
 0005:001EDAA0       GameMain__UpdateFieldStatus
 0005:001EDFB8       nullsub_958
 0005:001EDFBC       FieldSystem__initBtl
 0005:001EF24C       jpt_1EF244
 0005:001EF264       def_1EF244
 0005:001EF34C       jpt_1EF344
 0005:001EF364       def_1EF344
 0005:001EFCE8       jpt_1EFCE0
 0005:001EFD00       def_1EFCE0
 0005:001EFD84       GameMain__setHardMode
 0005:001F04F0       jpt_1F04E8
 0005:001F0508       def_1F04E8
 0005:001F07E0       GameMain__calcScreen
 0005:001F0A4C       GameMain__GameMain
 0005:001F0AE8       GameMain__changeBgm
 0005:001F11A8       GameMain__change
 0005:001F11E8       jpt_1F11E0
 0005:001F1500       def_1F11E0
 0005:001F1644       GameMain__term
 0005:001F1D78       FieldSystem__Update
 0005:001F1ED8       FieldSystem__init
 0005:001F1FC8       jpt_1F1FC0
 0005:001F20D4       def_1F1FC0
 0005:001F25F8       aFmesBin
 0005:001F26CC       jpt_1F26C4
 0005:001F26E4       def_1F26C4
 0005:001F28B4       jpt_1F28AC
 0005:001F28CC       def_1F28AC
 0005:001F29DC       jpt_1F29D4
 0005:001F29F4       def_1F29D4
 0005:001F2B9C       jpt_1F2B94
 0005:001F2BB4       def_1F2B94
 0005:001F2F50       DreamSystem__LoadRO
 0005:001F2F54       FieldSystem__LoadRO
 0005:001F3398       aIsvalid
 0005:001F343C       FieldSystem__GetCAData
 0005:001F347C       FieldSystem__start
 0005:001F348C       GameMain__initVSync
 0005:001F34E4       FieldSystem__FieldSystem
 0005:001F38C8       FieldSystem____deallocating
 0005:001F3B38       nullsub_873
 0005:001F3B84       nullsub_874
 0005:001F3BC4       nullsub_875
 0005:001F3CDC       nullsub_876
 0005:001F3D28       nullsub_877
 0005:001F3D2C       nullsub_878
 0005:001F4040       jpt_1F4038
 0005:001F40F0       def_1F4038
 0005:001F4258       GlobalEvent__getStatusReg
 0005:001F4264       GlobalEvent__setStatusReg
 0005:001F4298       jpt_1F4290
 0005:001F4310       jpt_1F4308
 0005:001F43A4       jpt_1F439C
 0005:001F4478       jpt_1F4470
 0005:001F451C       def_1F4290
 0005:001F4544       GlobalEvent__execLocalEvent
 0005:001F4610       jpt_1F4608
 0005:001F471C       def_1F4608
 0005:001F4764       GlobalEvent__init
 0005:001F4D5C       GlobalEvent__execEx
 0005:001F51E8       jpt_1F51E0
 0005:001F52A4       def_1F51E0
 0005:001F5518       GlobalEvent__GlobalEvent
 0005:001F553C       GlobalEvent____deallocating
 0005:001F6CA0       nullsub_812
 0005:001F6D24       nullsub_813
 0005:001F74A8       jpt_1F74A0
 0005:001F7AB4       def_1F74A0
 0005:001F9A14       nullsub_567
 0005:001FB018       j_operator_delete__21
 0005:001FB01C       nullsub_568
 0005:001FDB84       jpt_1FDB7C
 0005:001FDBE0       def_1FDB7C
 0005:001FDC48       aMinigameMsbt_7
 0005:001FE398       jpt_1FE390
 0005:001FE550       def_1FE390
 0005:001FF1C8       def_1FF1C4
 0005:001FF1CC       jpt_1FF1C4
 0005:001FF6D0       nullsub_879
 0005:001FF79C       nullsub_880
 0005:001FFA04       nullsub_881
 0005:001FFA14       aMouth1
 0005:001FFB4C       nullsub_882
 0005:001FFC34       nullsub_883
 0005:001FFCBC       nullsub_884
 0005:002002F0       nullsub_885
 0005:002004B4       nullsub_886
 0005:00200574       nullsub_887
 0005:00200578       nullsub_888
 0005:00200704       nullsub_889
 0005:00200F34       nullsub_814
 0005:0020175C       SndSys__setVolume
 0005:00201ECC       jpt_201EC4
 0005:00202564       def_201EC4
 0005:0020258C       jpt_202584
 0005:00202720       def_202584
 0005:00202730       jpt_202728
 0005:0020275C       def_202728
 0005:002027CC       jpt_2027C4
 0005:00202874       def_2027C4
 0005:00202898       def_202894
 0005:0020289C       jpt_202894
 0005:00203330       def_20332C
 0005:00203334       jpt_20332C
 0005:00203EE4       jpt_203EDC
 0005:00203F10       def_203EDC
 0005:00203FCC       jpt_203FC4
 0005:00204014       def_203FC4
 0005:0020407C       jpt_204074
 0005:002040E8       def_204074
 0005:00205120       jpt_205118
 0005:002051A8       def_205118
 0005:002055E8       jpt_2055E0
 0005:00205630       def_2055E0
 0005:00205678       jpt_205670
 0005:002056C8       def_205670
 0005:00205E50       jpt_205E48
 0005:00205F08       def_205E48
 0005:00205F74       jpt_205F6C
 0005:00206034       def_205F6C
 0005:00206174       jpt_20616C
 0005:00206210       def_20616C
 0005:002062F4       jpt_2062EC
 0005:00206464       def_2062EC
 0005:00206DB0       jpt_206DA8
 0005:00207094       jpt_20708C
 0005:0020716C       jpt_207164
 0005:0020721C       jpt_207214
 0005:002072F0       def_206DA8
 0005:00207470       jpt_207468
 0005:0020751C       def_207468
 0005:002078F0       jpt_2078E8
 0005:00207B80       def_2078E8
 0005:00207BE0       jpt_207BD8
 0005:00207F0C       def_207BD8
 0005:00208694       jpt_20868C
 0005:00208868       def_20868C
 0005:00208B64       jpt_208B5C
 0005:00209874       def_208B5C
 0005:00209F88       jpt_209F80
 0005:00209FB4       def_209F80
 0005:0020A7B0       jpt_20A7A8
 0005:0020A7DC       def_20A7A8
 0005:0020AF30       jpt_20AF28
 0005:0020AFCC       def_20AF28
 0005:0020B040       jpt_20B038
 0005:0020B084       def_20B038
 0005:0020B41C       jpt_20B414
 0005:0020B460       def_20B414
 0005:0020C918       jpt_20C910
 0005:0020C9C4       def_20C910
 0005:0020CA44       jpt_20CA3C
 0005:0020CAB8       def_20CA3C
 0005:0020CB24       jpt_20CB1C
 0005:0020CB50       def_20CB1C
 0005:0020CF18       jpt_20CF10
 0005:0020CFB0       def_20CF10
 0005:0020D064       jpt_20D05C
 0005:0020D0E4       def_20D05C
 0005:0020D448       jpt_20D440
 0005:0020D504       def_20D440
 0005:0020D524       jpt_20D51C
 0005:0020D5E0       def_20D51C
 0005:0020D600       jpt_20D5F8
 0005:0020D6D4       def_20D5F8
 0005:0020D8B0       def_20D8AC
 0005:0020D8B4       jpt_20D8AC
 0005:0020DAB8       jpt_20DAB0
 0005:0020DB9C       def_20DAB0
 0005:0020DF3C       def_20DF38
 0005:0020DF40       jpt_20DF38
 0005:0020E210       jpt_20E208
 0005:0020E2A4       def_20E208
 0005:0020E2E8       def_20E2E4
 0005:0020E2EC       jpt_20E2E4
 0005:0020E49C       def_20E498
 0005:0020E4A0       jpt_20E498
 0005:0020E58C       jpt_20E584
 0005:0020E670       def_20E584
 0005:0020E908       jpt_20E900
 0005:0020E98C       def_20E900
 0005:0020ED94       jpt_20ED8C
 0005:0020F048       def_20ED8C
 0005:0020F088       def_20F084
 0005:0020F08C       jpt_20F084
 0005:0020F238       jpt_20F230
 0005:0020F36C       def_20F230
 0005:0020FEF4       jpt_20FEEC
 0005:0020FF60       jpt_20FF58
 0005:0020FFAC       def_20FEEC
 0005:00210234       jpt_21022C
 0005:002103A8       def_21022C
 0005:00210E14       jpt_210E0C
 0005:002110B0       def_210E0C
 0005:002112D8       jpt_2112D0
 0005:0021133C       def_2112D0
 0005:0021147C       jpt_211474
 0005:002115B4       def_211474
 0005:0021182C       jpt_211824
 0005:00211A84       def_211824
 0005:00211CC4       jpt_211CBC
 0005:00211D24       def_211CBC
 0005:00212D24       jpt_212D1C
 0005:002130E0       def_212D1C
 0005:002131E4       jpt_2131DC
 0005:00213374       def_2131DC
 0005:002145A0       GameMain__back
 0005:00214680       BtlMainProxy__BtlMainProxy
 0005:002146F4       jpt_2146EC
 0005:00214718       jpt_214710
 0005:00214740       def_2146EC
 0005:002147E8       BtlMainProxy____deallocating
 0005:00214FF0       jpt_214FE8
 0005:002150AC       def_214FE8
 0005:00216B2C       nullsub_22
 0005:00217318       jpt_217310
 0005:00217740       def_217310
 0005:00218280       nullsub_410
 0005:0021BA8C       j_operator_delete__22
 0005:0021BA90       nullsub_23
 0005:0021BC18       j_operator_delete__23
 0005:0021BC1C       nullsub_24
 0005:0021C0E8       j_operator_delete__24
 0005:0021C0EC       nullsub_25
 0005:0021CFF0       CalcEquipEff__CalcEquipEff
 0005:0021D0A4       CellAnimeTex__initVram
 0005:0021D124       nullsub_895
 0005:0021D128       nullsub_896
 0005:0021D62C       nullsub_897
 0005:0021D690       nullsub_898
 0005:0021D694       nullsub_899
 0005:0021F4C8       j_operator_delete__25
 0005:0021F4CC       nullsub_890
 0005:0021F584       CtrFReadEx__term
 0005:0021F59C       CtrFReadBase__term
 0005:0021F5E0       nullsub_855
 0005:0021F5E4       CtrNullNwAlc__init
 0005:0021F5EC       CtrNullNwAlc____deallocating
 0005:0021F5F0       nullsub_856
 0005:00220EE4       aElbowR
 0005:00220EEC       aHandR
 0005:00220F10       nullsub_844
 0005:00221748       j_nullsub_810
 0005:002217C8       DfxMemorySys__memReadCancelAll
 0005:00221890       DfxMemorySys__init
 0005:0022196C       DfxMemorySys__term
 0005:00221A48       DfxMemorySys__doWork
 0005:00221D8C       DfxMemorySys__DfxMemorySys
 0005:00222108       DfxUnitIDMan__init
 0005:0022214C       DfxUnitIDMan__term
 0005:00222170       DfxUnitIDMan__getNextID
 0005:002221C8       DfxUnitIDMan__releaseID
 0005:002221DC       nullsub_512
 0005:00222704       nullsub_513
 0005:00223A9C       nullsub_514
 0005:00223B30       j_operator_delete__26
 0005:00223B34       nullsub_515
 0005:00223E44       nullsub_516
 0005:00224104       jpt_2240FC
 0005:0022416C       def_2240FC
 0005:00224A40       nullsub_517
 0005:00224C0C       jpt_224C04
 0005:00224E98       def_224C04
 0005:0022588C       jpt_225884
 0005:002258F4       def_225884
 0005:00228320       jpt_228318
 0005:00228454       def_228318
 0005:0022AC8C       jpt_22AC84
 0005:0022ACE8       def_22AC84
 0005:0022AD54       aMinigameMsbt_6
 0005:0022C548       jpt_22C540
 0005:0022C5C4       def_22C540
 0005:0022C984       nullsub_518
 0005:0022CCE4       j_operator_delete__27
 0005:0022CCE8       nullsub_519
 0005:0022CF04       nullsub_26
 0005:0022CF08       nullsub_27
 0005:0022CF0C       nullsub_28
 0005:0022CF10       nullsub_29
 0005:0022CF14       nullsub_30
 0005:0022CF1C       nullsub_31
 0005:0022D02C       j_operator_delete__28
 0005:0022D048       nullsub_32
 0005:0022D964       nullsub_33
 0005:0022DFE8       nullsub_329
 0005:0022DFEC       nullsub_330
 0005:0022E044       nullsub_331
 0005:0022E048       nullsub_332
 0005:0022E8E8       nullsub_333
 0005:0022E8EC       nullsub_334
 0005:0022EB50       nullsub_335
 0005:0022EB54       nullsub_336
 0005:0022F124       nullsub_337
 0005:0022F128       nullsub_338
 0005:00230BFC       nullsub_339
 0005:00230EF0       FieldChrPrim____deallocating
 0005:00231C4C       FieldDfxSystem____deallocating
 0005:00232C1C       FieldGetItem____deallocating
 0005:00232D00       nullsub_868
 0005:00233D74       nullsub_1039
 0005:00234658       j_operator_delete__29
 0005:0023465C       nullsub_891
 0005:00234660       nullsub_344
 0005:002348DC       nullsub_963
 0005:00234B94       FieldSrtBase__FieldSrtBase
 0005:00234C68       j_operator_delete__30
 0005:00234C70       nullsub_34
 0005:00235884       jpt_23587C
 0005:00235904       def_23587C
 0005:00236DA0       def_236D9C
 0005:00236DA4       jpt_236D9C
 0005:00237074       nullsub_999
 0005:002370D8       nullsub_1000
 0005:002370DC       nullsub_1001
 0005:002370E0       nullsub_1002
 0005:002374D0       nullsub_1003
 0005:002374D4       nullsub_1004
 0005:00237B18       nullsub_1005
 0005:00237BE8       nullsub_1006
 0005:00237BEC       nullsub_1007
 0005:00237BF0       nullsub_1008
 0005:00237C18       nullsub_1009
 0005:00237C1C       nullsub_1010
 0005:002387F4       nullsub_1011
 0005:00238800       nullsub_1012
 0005:00238804       nullsub_1013
 0005:00238810       nullsub_1014
 0005:00238814       nullsub_1015
 0005:00238818       nullsub_1016
 0005:0023881C       nullsub_1017
 0005:00238820       nullsub_1018
 0005:00238824       nullsub_1019
 0005:002388A4       nullsub_1020
 0005:002388A8       nullsub_1021
 0005:00238A18       jpt_238A10
 0005:00238DF0       def_238A10
 0005:0023933C       jpt_239334
 0005:002394A0       def_239334
 0005:002397E0       jpt_2397D8
 0005:00239A30       def_2397D8
 0005:00239A44       jpt_239A3C
 0005:00239E70       def_239A3C
 0005:00239ED0       def_239EE4
 0005:00239EEC       jpt_239EE4
 0005:0023A010       jpt_23A008
 0005:0023A96C       def_23A008
 0005:0023AC34       jpt_23AC2C
 0005:0023B294       def_23AC2C
 0005:0023B2A8       jpt_23B2A0
 0005:0023BF14       def_23B2A0
 0005:0023C3F4       jpt_23C3EC
 0005:0023C410       def_23C3EC
 0005:0023D49C       nullsub_1022
 0005:0023DB7C       jpt_23DB74
 0005:0023DB98       def_23DB74
 0005:0023E47C       jpt_23E474
 0005:0023E498       def_23E474
 0005:0023ECE0       jpt_23ECD8
 0005:0023ECFC       def_23ECD8
 0005:002410C4       jpt_2410BC
 0005:0024122C       def_2410BC
 0005:002417A8       nullsub_1023
 0005:00241810       jpt_241808
 0005:00241970       def_241808
 0005:00241ED4       jpt_241ECC
 0005:00242324       def_241ECC
 0005:002424C8       jpt_2424C0
 0005:0024265C       def_2424C0
 0005:00242774       jpt_24276C
 0005:00242FA0       def_24276C
 0005:00243894       FieldChrPrim__FieldChrPrim
 0005:002466C0       jpt_2466B8
 0005:00246964       def_2466B8
 0005:002469C4       jpt_2469BC
 0005:00248594       def_2469BC
 0005:00248B68       nullsub_1024
 0005:00248B6C       j_operator_delete__31
 0005:00248B70       nullsub_1025
 0005:00248F48       nullsub_588
 0005:00249CC4       jpt_249CBC
 0005:00249E28       def_249CBC
 0005:0024A330       nullsub_35
 0005:0024AD10       nullsub_36
 0005:0024AD14       nullsub_37
 0005:0024AD18       nullsub_38
 0005:0024AD1C       j_operator_delete__32
 0005:0024AD20       nullsub_39
 0005:0024C180       nullsub_617
 0005:0024C248       jpt_24C240
 0005:0024CB2C       def_24C240
 0005:0024D178       nullsub_618
 0005:00250788       j_operator_delete__33
 0005:0025078C       nullsub_619
 0005:002507B4       nullsub_620
 0005:00251538       j_operator_delete__34
 0005:0025153C       nullsub_621
 0005:00251A7C       nullsub_40
 0005:00251D50       jpt_251D48
 0005:00251DB8       def_251D48
 0005:00252BF4       j_operator_delete__35
 0005:00252BF8       nullsub_622
 0005:00253134       j_operator_delete__36
 0005:00253138       nullsub_623
 0005:002535C8       j_operator_delete__37
 0005:002535CC       nullsub_624
 0005:002537E0       nullsub_625
 0005:002537E4       nullsub_626
 0005:002537E8       nullsub_627
 0005:002537EC       nullsub_628
 0005:002537F0       j_operator_delete__38
 0005:002537F4       nullsub_629
 0005:00256364       nullsub_41
 0005:00257034       jpt_25702C
 0005:002570F8       def_25702C
 0005:002580B8       jpt_2580B0
 0005:00258114       def_2580B0
 0005:002581DC       aMinigameMsbt
 0005:00259E60       jpt_259E58
 0005:0025A040       def_259E58
 0005:0025A400       jpt_25A3F8
 0005:0025A430       def_25A3F8
 0005:0025B6F0       nullsub_630
 0005:0025BD88       j_operator_delete__39
 0005:0025BD8C       nullsub_631
 0005:0025E768       jpt_25E760
 0005:0025E880       def_25E760
 0005:0025F260       jpt_25F258
 0005:0025F3FC       def_25F258
 0005:00260450       nullsub_42
 0005:00260454       nullsub_43
 0005:00260728       jpt_260720
 0005:00260790       def_260720
 0005:00261524       j_operator_delete__40
 0005:00261528       nullsub_44
 0005:002619B8       j_operator_delete__41
 0005:002619BC       nullsub_45
 0005:002619C0       nullsub_46
 0005:00261A70       nullsub_47
 0005:002622CC       jpt_2622C4
 0005:00262744       def_2622C4
 0005:00263790       jpt_263788
 0005:002638AC       def_263788
 0005:00265B20       nullsub_48
 0005:002660EC       jpt_2660E4
 0005:00266248       def_2660E4
 0005:00268240       jpt_268238
 0005:002683F0       def_268238
 0005:00269C44       jpt_269C3C
 0005:00269CA0       def_269C3C
 0005:00269D3C       aMinigameMsbt_0
 0005:00269EF4       j_operator_delete__42
 0005:00269EF8       nullsub_49
 0005:0026AF7C       nullsub_50
 0005:0026DBC8       nullsub_51
 0005:0026E6DC       jpt_26E6D4
 0005:0026E804       def_26E6D4
 0005:0026E97C       nullsub_52
 0005:0026EC64       nullsub_53
 0005:0026F5C0       jpt_26F5B8
 0005:0026F600       def_26F5B8
 0005:0026FBA8       nullsub_54
 0005:0026FBC0       j_operator_delete__43
 0005:0026FBC4       nullsub_55
 0005:0026FCF8       nullsub_56
 0005:0026FF10       nullsub_57
 0005:00270248       j_operator_delete__44
 0005:0027024C       nullsub_58
 0005:002706BC       thunk_FUN_0026f2a4
 0005:00270938       nullsub_1040
 0005:00271AF4       jpt_271AEC
 0005:00271CF0       def_271AEC
 0005:0027434C       nullsub_59
 0005:00274558       j_operator_delete__45
 0005:0027455C       nullsub_60
 0005:00274560       j_operator_delete__46
 0005:00274564       nullsub_61
 0005:0027459C       jpt_274594
 0005:00274834       def_274594
 0005:002748E0       jpt_2748D8
 0005:00274B6C       def_2748D8
 0005:00275360       j_operator_delete__47
 0005:00275364       nullsub_62
 0005:00275FE4       nullsub_63
 0005:002762B8       jpt_2762B0
 0005:00276320       def_2762B0
 0005:0027744C       j_operator_delete__48
 0005:00277450       nullsub_64
 0005:0027798C       j_operator_delete__49
 0005:00277990       nullsub_65
 0005:00277E20       j_operator_delete__50
 0005:00277E24       nullsub_66
 0005:00277EF0       nullsub_67
 0005:00277EF4       nullsub_68
 0005:00277EF8       j_operator_delete__51
 0005:00277EFC       nullsub_69
 0005:00277F00       nullsub_70
 0005:00277F04       nullsub_71
 0005:00277F08       j_operator_delete__52
 0005:00277F0C       nullsub_72
 0005:00278128       nullsub_73
 0005:002781E0       jpt_2781D8
 0005:002783E4       def_2781D8
 0005:00278A98       nullsub_74
 0005:00279BE0       j_operator_delete__53
 0005:00279BE4       nullsub_75
 0005:00279BE8       nullsub_76
 0005:0027A03C       jpt_27A034
 0005:0027A2C0       def_27A034
 0005:0027AE3C       jpt_27AE34
 0005:0027B000       def_27AE34
 0005:0027EA40       jpt_27EA38
 0005:0027EC34       def_27EA38
 0005:0027F0A4       nullsub_77
 0005:0027F0A8       nullsub_78
 0005:0027F258       nullsub_79
 0005:0027F25C       nullsub_80
 0005:0027F26C       nullsub_81
 0005:0027F270       nullsub_82
 0005:0027F274       nullsub_83
 0005:0027F27C       nullsub_84
 0005:0027F280       nullsub_85
 0005:0027F394       jpt_27F38C
 0005:0027F4C0       jpt_27F4B8
 0005:0027F4D8       def_27F4B8
 0005:0027F564       def_27F38C
 0005:0028097C       jpt_280974
 0005:002809D8       def_280974
 0005:00280A78       aMinigameMsbt_1
 0005:00280E3C       nullsub_86
 0005:00280F74       j_operator_delete__54
 0005:00280F78       nullsub_87
 0005:0028129C       nullsub_88
 0005:002812A0       nullsub_89
 0005:002812A4       j_operator_delete__55
 0005:002812A8       nullsub_90
 0005:002814D4       nullsub_91
 0005:002814D8       nullsub_92
 0005:00281678       j_operator_delete__56
 0005:0028167C       nullsub_93
 0005:00282424       jpt_28241C
 0005:002827A4       def_28241C
 0005:00283BFC       jpt_283BF4
 0005:00283DD0       def_283BF4
 0005:00284668       jpt_284660
 0005:002846B4       def_284660
 0005:00284910       jpt_284908
 0005:00284974       def_284908
 0005:00285168       jpt_285160
 0005:002851A0       def_285160
 0005:00285608       jpt_285600
 0005:00285668       def_285600
 0005:002891EC       jpt_2891E4
 0005:002899D8       def_2891E4
 0005:0028A21C       jpt_28A214
 0005:0028A24C       def_28A214
 0005:0028ADC4       j_operator_delete__57
 0005:0028ADC8       nullsub_94
 0005:0028AEBC       j_operator_delete__58
 0005:0028AEC0       nullsub_95
 0005:0028AEE8       nullsub_96
 0005:0028B1E4       j_operator_delete__59
 0005:0028B1E8       nullsub_97
 0005:0028B1EC       j_operator_delete__60
 0005:0028B1F0       nullsub_98
 0005:0028B228       jpt_28B220
 0005:0028B4C0       def_28B220
 0005:0028B56C       jpt_28B564
 0005:0028B7F8       def_28B564
 0005:0028C088       j_operator_delete__61
 0005:0028C08C       nullsub_99
 0005:0028DA34       j_operator_delete__62
 0005:0028DA38       nullsub_100
 0005:0028DEC8       j_operator_delete__63
 0005:0028DECC       nullsub_101
 0005:0028E7CC       nullsub_102
 0005:0028E7D0       nullsub_103
 0005:0028E7D4       j_operator_delete__64
 0005:0028E7D8       nullsub_104
 0005:0028E7DC       nullsub_105
 0005:0028E7E0       nullsub_106
 0005:0028E7E4       j_operator_delete__65
 0005:0028E7E8       nullsub_107
 0005:0028EE90       jpt_28EE88
 0005:0028F0BC       def_28EE88
 0005:0028FB74       nullsub_108
 0005:0028FEA8       jpt_28FEA0
 0005:00290688       def_28FEA0
 0005:002912C4       nullsub_109
 0005:002913EC       j_operator_delete__66
 0005:002913F0       nullsub_110
 0005:0029156C       nullsub_111
 0005:002918D4       nullsub_112
 0005:002918D8       nullsub_113
 0005:002919C8       j_operator_delete__67
 0005:002919CC       nullsub_114
 0005:002922B8       nullsub_115
 0005:00292328       j_operator_delete__68
 0005:0029232C       nullsub_116
 0005:00292428       nullsub_117
 0005:00292EB8       j_operator_delete__69
 0005:00292EBC       nullsub_118
 0005:00294858       j_operator_delete__70
 0005:0029485C       nullsub_119
 0005:00295B5C       jpt_295B54
 0005:00295D44       def_295B54
 0005:00297EA8       jpt_297EA0
 0005:00297F04       def_297EA0
 0005:00298034       aMinigameMsbt_2
 0005:00299C00       jpt_299BF8
 0005:0029A310       def_299BF8
 0005:0029CF44       jpt_29CF3C
 0005:0029D000       def_29CF3C
 0005:0029D010       ScriptSystem__init
 0005:0029D0F8       jpt_29D0F0
 0005:0029D194       def_29D0F0
 0005:0029D1B0       ScriptSystem__rewind
 0005:0029D254       j_operator_delete__71
 0005:0029D25C       nullsub_983
 0005:0029F4F8       nullsub_120
 0005:0029F4FC       TaskMainBase__restore
 0005:0029F528       TaskMainBase____deallocating
 0005:0029FC1C       UIListWindow__Item__reset
 0005:0029FC48       UIListWindow__draw
 0005:002A0228       UIListWindow__update
 0005:002A04E0       UIListWindow__setCurNo
 0005:002A060C       UIListWindow__InitParam__InitParam
 0005:002A08EC       UIListWindow__drawArrow
 0005:002A0B44       UIListWindow__UIListWindow
 0005:002A0CC8       UIListWindow____deallocating
 0005:002A0D90       nullsub_1041
 0005:002A0DBC       jpt_2A0DB4
 0005:002A0DF4       def_2A0DB4
 0005:002A0EB0       VramAlcRange__VramAlcRange
 0005:002A12BC       jpt_2A12B4
 0005:002A143C       def_2A12B4
 0005:002A1FD0       def_2A1FCC
 0005:002A1FD4       jpt_2A1FCC
 0005:002A3120       nullsub_458
 0005:002A43F4       nullsub_379
 0005:002A46F8       def_2A4728
 0005:002A4730       jpt_2A4728
 0005:002A4888       jpt_2A4880
 0005:002A48C4       def_2A4880
 0005:002A6B10       jpt_2A6B08
 0005:002A6D3C       def_2A6B08
 0005:002A841C       CmdCacheMulti__init
 0005:002A8470       CmdCacheMulti__term
 0005:002A84A0       CmdCacheMulti__clear
 0005:002A84DC       CmdCacheMulti__endSave
 0005:002A8520       CmdCacheMulti__beginSave
 0005:002A8548       CmdCacheMulti__CmdCacheMulti
 0005:002A8760       CtrLoadModule__CtrLoadModule
 0005:002A88DC       CtrModuleFile____deallocating
 0005:002A92D4       aNoseTop_0
 0005:002A9794       j_nullsub_810_0
 0005:002A9B3C       aNoseTop
 0005:002A9BCC       jpt_2A9BC4
 0005:002A9CD4       def_2A9BC4
 0005:002AA370       j_nullsub_810_1
 0005:002AAB00       DreamMarioSub____deallocating
 0005:002AB690       jpt_2AB688
 0005:002AB754       def_2AB688
 0005:002AC490       nullsub_1042
 0005:002AC58C       FieldGuideMap__FieldGuideMap
 0005:002ACFF0       jpt_2ACFE8
 0005:002AD290       def_2ACFE8
 0005:002AD588       jpt_2AD580
 0005:002AD6C8       def_2AD580
 0005:002AD79C       jpt_2AD794
 0005:002AD7D4       def_2AD794
 0005:002AD8C4       jpt_2AD8BC
 0005:002AD8FC       def_2AD8BC
 0005:002ADA18       nullsub_1043
 0005:002ADC3C       jpt_2ADC34
 0005:002ADFBC       def_2ADC34
 0005:002AE080       jpt_2AE078
 0005:002AE36C       def_2AE078
 0005:002AE3E8       jpt_2AE3E0
 0005:002AE43C       def_2AE3E0
 0005:002AE798       jpt_2AE790
 0005:002AE7D0       def_2AE790
 0005:002AEC88       jpt_2AEC80
 0005:002AEF34       def_2AEC80
 0005:002AF1EC       aRomFeventFeven
 0005:002AF2A4       jpt_2AF29C
 0005:002AF2DC       def_2AF29C
 0005:002AF718       FieldMainBase__GetMapStatData
 0005:002AFA70       nullsub_857
 0005:002AFD1C       aDraw
 0005:002AFFC0       jpt_2AFFB8
 0005:002AFFF8       def_2AFFB8
 0005:002B0134       jpt_2B012C
 0005:002B016C       def_2B012C
 0005:002B08D0       FieldMessageSystem__GetPath
 0005:002B0920       aFmesDat
 0005:002B0AD4       jpt_2B0ACC
 0005:002B0B0C       def_2B0ACC
 0005:002B12BC       jpt_2B12B4
 0005:002B12F4       def_2B12B4
 0005:002B57C0       nullsub_1044
 0005:002B5850       nullsub_1045
 0005:002B5C90       FieldMainBase__FieldMainBase
 0005:002B6584       FieldMainBase____deallocating
 0005:002B6714       nullsub_121
 0005:002B71A0       aJointY00_0
 0005:002B71AC       aAxisY00_0
 0005:002B71B8       aWingYR00_0
 0005:002B71C4       aWingYL00_0
 0005:002B71D4       aWing01_0
 0005:002B71DC       aWing02_0
 0005:002B8C2C       aJointY00
 0005:002B8C38       aAxisY00
 0005:002B8C44       aWingYR00
 0005:002B8C50       aWingYL00
 0005:002B8C60       aWing01
 0005:002B8C68       aWing02
 0005:002B98B8       aBase01_0
 0005:002B9BA0       aBase01
 0005:002B9F78       jpt_2B9F70
 0005:002BA2B0       def_2B9F70
 0005:002BB988       jpt_2BB980
 0005:002BB9DC       def_2BB980
 0005:002BD8D0       jpt_2BD8C8
 0005:002BDB0C       def_2BD8C8
 0005:002BE43C       aEyeL_0
 0005:002BE444       aEyeLocL_0
 0005:002BE450       aEyeR_0
 0005:002BE458       aEyeLocR_0
 0005:002BE9CC       MessageDrawer__drawCursor
 0005:002BEB24       MessageDrawer__drawRubyWin
 0005:002BEC88       MessageDrawer__draw
 0005:002BEE30       MessageDrawer__init
 0005:002BF4EC       MessageDrawer__term
 0005:002BF550       MessageDrawer__setTex
 0005:002BF5FC       MessageDrawer__drawBtn
 0005:002BF988       MessageDrawer__drawStr
 0005:002BFD84       jpt_2BFD7C
 0005:002C00B0       def_2BFD7C
 0005:002C0164       jpt_2C015C
 0005:002C0440       def_2C015C
 0005:002C04EC       MessageDrawer__prepare
 0005:002C0500       MessageDrawer__drawKick
 0005:002C0538       MessageDrawer__copyCache
 0005:002C06FC       MessageSimple__getLineSpace
 0005:002C07AC       jpt_2C07A4
 0005:002C085C       def_2C07A4
 0005:002C08EC       jpt_2C08E4
 0005:002C0970       jpt_2C0968
 0005:002C0A14       MessageSimple__getLineWidth
 0005:002C0CA0       MessageSimple__getPageWidth
 0005:002C0D24       MessageSimple__getLineHeight
 0005:002C0E58       MessageSimple__getPageHeight
 0005:002C0EF0       MessageSimple__init
 0005:002C1644       jpt_2C163C
 0005:002C1AC4       jpt_2C1ABC
 0005:002C1D14       def_2C163C
 0005:002C2000       MessageSimple__MessageSimple
 0005:002C2080       MessageSimple____deallocating
 0005:002C20F0       MessageWriter__setParallax
 0005:002C2180       MessageWriter__setFontColor
 0005:002C2340       MessageWriter__init
 0005:002C24FC       MessageSimple__term
 0005:002C2500       MessageWriter__term
 0005:002C2504       MessageWriter__clear
 0005:002C292C       MessageWriter__setDepth
 0005:002C29A8       MessageWriter____deallocating
 0005:002C33E4       nullsub_815
 0005:002C33E8       nullsub_816
 0005:002C5078       nullsub_1046
 0005:002C5B20       nullsub_1047
 0005:002C6514       j_nullsub_18_0
 0005:002C6528       j_nullsub_18_23
 0005:002C653C       j_nullsub_18_1
 0005:002C6550       j_nullsub_18_24
 0005:002C6564       j_nullsub_18_2
 0005:002C6578       j_nullsub_18_21
 0005:002C658C       j_nullsub_18_25
 0005:002C65A0       j_nullsub_18_26
 0005:002C65B4       j_nullsub_18_10
 0005:002C65C8       j_nullsub_18_27
 0005:002C65DC       j_nullsub_18_28
 0005:002C65F0       j_nullsub_18_29
 0005:002C6604       j_nullsub_18_4
 0005:002C6618       j_nullsub_18_5
 0005:002C662C       j_nullsub_18_6
 0005:002C6640       j_nullsub_18_7
 0005:002C6654       j_nullsub_18_8
 0005:002C6668       j_nullsub_18_9
 0005:002C7168       jpt_2C7160
 0005:002C71B4       def_2C7160
 0005:002C7F80       jpt_2C7F78
 0005:002C82C4       def_2C7F78
 0005:002C8A3C       jpt_2C8A34
 0005:002C8BE0       def_2C8A34
 0005:002C996C       nullsub_123
 0005:002C9CD4       jpt_2C9CCC
 0005:002C9D3C       def_2C9CCC
 0005:002C9F9C       jpt_2C9F94
 0005:002C9FD0       def_2C9F94
 0005:002CA000       jpt_2C9FF8
 0005:002CA0D0       def_2C9FF8
 0005:002CA800       jpt_2CA7F8
 0005:002CA830       def_2CA7F8
 0005:002CA8DC       jpt_2CA8D4
 0005:002CA984       def_2CA8D4
 0005:002CAF14       j_operator_delete__72
 0005:002CAF18       nullsub_977
 0005:002CB07C       jpt_2CB074
 0005:002CB1B4       def_2CB074
 0005:002CB810       nullsub_124
 0005:002CBCEC       jpt_2CBCE4
 0005:002CBD9C       def_2CBCE4
 0005:002CBF7C       def_2CBF78
 0005:002CBF80       jpt_2CBF78
 0005:002CD980       j_operator_delete__73
 0005:002CD984       nullsub_125
 0005:002CDA20       CellAnimeState__CellAnimeState
 0005:002CDACC       nullsub_1048
 0005:002CDF50       nullsub_801
 0005:002CE34C       nullsub_802
 0005:002CF168       def_2CF164
 0005:002CF16C       jpt_2CF164
 0005:002CF3D4       CtrFUncompSize__signal
 0005:002CF4B0       nullsub_805
 0005:002CF504       nullsub_806
 0005:002CF508       nullsub_807
 0005:002CF524       nullsub_808
 0005:002CF538       nullsub_809
 0005:002CF560       j_operator_delete__74
 0005:002CF568       nullsub_810
 0005:002D0DCC       jpt_2D0DC4
 0005:002D0E8C       def_2D0DC4
 0005:002D1C94       FieldBlockItem____deallocating
 0005:002D1D3C       nullsub_126
 0005:002D1D40       nullsub_127
 0005:002D1D50       j_FieldObjCA__buildCA
 0005:002D1E78       nullsub_128
 0005:002D2020       thunk_FUN_00233754
 0005:002D2130       nullsub_858
 0005:002D2684       jpt_2D267C
 0005:002D274C       def_2D267C
 0005:002D2884       jpt_2D287C
 0005:002D2954       def_2D287C
 0005:002D30FC       FieldDfxSystem__deleteUnitAll
 0005:002D3590       FieldDfxSystem__init
 0005:002D3DF8       FieldDfxSystem__entryDfx
 0005:002D40C0       FieldDfxSystem__Prepare
 0005:002D43FC       nullsub_962
 0005:002D7898       jpt_2D7890
 0005:002D7BAC       def_2D7890
 0005:002D8510       aEyeL_1
 0005:002D8518       aEyeLocL_1
 0005:002D8524       aEyeR_1
 0005:002D852C       aEyeLocR_1
 0005:002D8ED4       nullsub_803
 0005:002D8ED8       nullsub_817
 0005:002D8EEC       nullsub_818
 0005:002D8EF0       nullsub_819
 0005:002D8EF4       nullsub_820
 0005:002D8EF8       nullsub_821
 0005:002D8F0C       nullsub_822
 0005:002D8F1C       nullsub_823
 0005:002D8F34       j_operator_delete__75
 0005:002D8F3C       nullsub_824
 0005:002D9470       jpt_2D9468
 0005:002D94EC       def_2D9468
 0005:002D992C       jpt_2D9924
 0005:002D99E0       def_2D9924
 0005:002DC2BC       nullsub_825
 0005:002DC7E0       jpt_2DC7D8
 0005:002DD344       def_2DC7D8
 0005:002DD364       jpt_2DD35C
 0005:002DD474       def_2DD35C
 0005:002DDB50       def_2DDB4C
 0005:002DDB54       jpt_2DDB4C
 0005:002DDBE0       AfterImageObjCA____deallocating
 0005:002DE400       nullsub_380
 0005:002DE480       jpt_2DE478
 0005:002DE610       def_2DE478
 0005:002DEAF0       AkmAtk4Relocate__CmdStateIntro__CmdStateIntro
 0005:002DEB40       AkmAtk4Relocate__CmdStateIntro____deallocating
 0005:002DF018       AkmAtk4Relocate__IntroInternal__Resource____deallocating
 0005:002DF01C       nullsub_381
 0005:002DF020       nullsub_382
 0005:002DF308       AkmAtk4Relocate__CmdStateEscape__StateHitHole____deallocating
 0005:002DF3B4       nullsub_383
 0005:002DF5A4       AkmAtk4Relocate__CmdStateEscape__StateGameOver____deallocating
 0005:002DF618       AkmAtk4Relocate__CmdStateEscape__StateHitHole__StateHitHole
 0005:002DF800       AkmAtk4Relocate__CmdStateEscape__StateGameOver__StateGameOver
 0005:002DF96C       nullsub_384
 0005:002DFDB4       nullsub_385
 0005:002E0338       AkmAtk4Relocate__CmdStateEscape__StateMove____deallocating
 0005:002E033C       nullsub_386
 0005:002E03A8       AkmAtk4Relocate__CmdStateEscape____deallocating
 0005:002E0E88       AkmAtk4Relocate__EscapeInternal__MarioObj__StateEscape____deallocating
 0005:002E0F6C       AkmAtk4Relocate__EscapeInternal__MarioObj__StateHitBullet__StateHitBullet
 0005:002E108C       nullsub_387
 0005:002E113C       AkmAtk4Relocate__EscapeInternal__MarioObj__StateHitHole____deallocating
 0005:002E1140       nullsub_388
 0005:002E1568       AkmAtk4Relocate__EscapeInternal__MarioObj__StateHitBullet____deallocating
 0005:002E169C       AkmAtk4Relocate__EscapeInternal__MarioObj__StateEscape__StateEscape
 0005:002E18DC       AkmAtk4Relocate__EscapeInternal__AkkumuObj__StateIdle__StateIdle
 0005:002E20B8       nullsub_129
 0005:002E2174       AkmAtk4Relocate__EscapeInternal__AkkumuObj__StateIdle____deallocating
 0005:002E2178       nullsub_130
 0005:002E26B4       AkmAtk4Relocate__EscapeInternal__AkkumuObj__StateShot____deallocating
 0005:002E2B9C       nullsub_389
 0005:002E2D08       AkmAtk4Relocate__CmdStateExitEnd__CmdStateExitEnd
 0005:002E2D30       AkmAtk4Relocate__CmdStateExitEnd____deallocating
 0005:002E2EF8       nullsub_390
 0005:002E3388       AkmAtk4Relocate__CmdStateLoopEnd__CmdStateLoopEnd
 0005:002E33C0       AkmAtk4Relocate__CmdStateLoopEnd____deallocating
 0005:002E3AD8       nullsub_391
 0005:002E4190       AkmAtk4Relocate__CmdStateMinigame__StateGame____deallocating
 0005:002E42E0       AkmAtk4Relocate__CmdStateMinigame__CmdStateMinigame
 0005:002E4310       AkmAtk4Relocate__CmdStateMinigame____deallocating
 0005:002E5B18       nullsub_392
 0005:002E5CEC       AkmAtk4Relocate__CmdStateGameOverEnd__CmdStateGameOverEnd
 0005:002E5D14       AkmAtk4Relocate__CmdStateGameOverEnd____deallocating
 0005:002E5F58       j_operator_delete__76
 0005:002E5F5C       nullsub_393
 0005:002E6410       nullsub_394
 0005:002E6AB8       AkmAtk4Relocate__AkmAtk4RelocateInternal__AkmFall__AkmFall
 0005:002E6C70       jpt_2E6C68
 0005:002E6D50       def_2E6C68
 0005:002E75F0       AkmAtk4Relocate__AtkCmd____deallocating
 0005:002E7AA4       AkmAtk4Relocate__HoleObj____deallocating
 0005:002E8670       nullsub_984
 0005:002E87E8       nullsub_131
 0005:002E8A1C       nullsub_132
 0005:002E8A64       nullsub_1038
 0005:002E8BEC       jpt_2E8BE4
 0005:002E8DC0       def_2E8BE4
 0005:002E8FB4       jpt_2E8FAC
 0005:002E8FF0       def_2E8FAC
 0005:002E9A64       j_operator_delete__77
 0005:002E9A68       nullsub_799
 0005:002E9B00       jpt_2E9AF8
 0005:002E9DBC       def_2E9AF8
 0005:002EA65C       j_operator_delete__78
 0005:002EA660       nullsub_133
 0005:002EA7C8       jpt_2EA7C0
 0005:002EA824       def_2EA7C0
 0005:002EC560       j_operator_delete__79
 0005:002EC564       nullsub_509
 0005:002EC92C       j_operator_delete__80
 0005:002EC930       nullsub_510
 0005:002EE584       jpt_2EE57C
 0005:002EFB94       def_2EE57C
 0005:002EFDCC       nullsub_134
 0005:002F1028       jpt_2F1020
 0005:002F1354       def_2F1020
 0005:002F24A8       nullsub_135
 0005:002F270C       jpt_2F2704
 0005:002F2798       def_2F2704
 0005:002F28F8       jpt_2F28F0
 0005:002F29F0       def_2F28F0
 0005:002F4584       jpt_2F457C
 0005:002F4630       def_2F457C
 0005:002F5DB4       nullsub_136
 0005:002F5F30       jpt_2F5F28
 0005:002F62A0       def_2F5F28
 0005:002F6338       nullsub_137
 0005:002F7B30       jpt_2F7B28
 0005:002F7B64       def_2F7B28
 0005:002F7D08       jpt_2F7D00
 0005:002F7D3C       def_2F7D00
 0005:002F7EDC       jpt_2F7ED4
 0005:002F7F10       def_2F7ED4
 0005:002FB570       DfxVRAMTransfer__transferCancelAll
 0005:002FB5EC       DfxVRAMTransfer__init
 0005:002FB6D8       DfxVRAMTransfer__term
 0005:002FB754       DfxVRAMTransfer__doWork
 0005:002FC464       FieldActionIcon____deallocating
 0005:002FCAFC       nullsub_138
 0005:002FCB0C       nullsub_139
 0005:002FCBA0       nullsub_140
 0005:002FCBA4       FieldMdlCharBase__FieldMdlCharBase
 0005:002FCC50       nullsub_859
 0005:002FCC54       nullsub_860
 0005:002FCF30       nullsub_908
 0005:002FDDC4       nullsub_909
 0005:002FDF08       _printf_truncate_signed
 0005:002FDF1E       _printf_truncate_unsigned
 0005:002FDF34       __rt_udiv10
 0005:002FDF60       _printf_int_common
 0005:002FE010       _mbrtowc
 0005:002FE050       _printf_pre_padding
 0005:002FE07C       _printf_post_padding
 0005:002FE0A4       nullsub_1049
 0005:002FE188       _printf
 0005:002FE310       _ll_udiv10
 0005:002FE3A8       _is_digit
 0005:002FE3EC       nullsub_924
 0005:002FE484       j_nndbgPanic
 0005:002FE5A4       __rt_ctype_table
 0005:002FE5C0       _btod_etento
 0005:002FE694       _btod_ediv
 0005:002FE6C4       _btod_emul
 0005:002FE774       __ARM_fpclassify
 0005:002FEB48       nullsub_1050
 0005:002FEB4A       _fp_digits
 0005:002FEF5C       __rt_locale
 0005:002FEF68       malloc
 0005:002FEFCC       __aeabi_idivmod
 0005:002FF1F8       __aeabi_errno_addr
 0005:002FF20E       _printf_char_common
 0005:002FF234       _sputc
 0005:002FF23E       _wcrtomb
 0005:002FF3D8       __aeabi_memcpy
 0005:002FF460       mbrtowc
 0005:002FF5D4       operator_delete__
 0005:002FF5E8       j_j__scanf_really_real
 0005:002FFAB8       aCylinder01_0
 0005:002FFAC4       aCylinderAxis01
 0005:002FFAD8       aGearAxisT01
 0005:002FFAE8       aGearAxisB01
 0005:002FFB00       __rt_raise
 0005:002FFB1C       _chval
 0005:002FFE6C       _scanf_wcharmap
 0005:002FFE8C       __rt_memclr_w
 0005:002FFEE0       freopen
 0005:002FFF74       fopen
 0005:002FFFC8       __rt_SIGRTRED
 0005:002FFFD4       setvbuf
 0005:00300020       _fclose_internal
 0005:0030006C       free
 0005:003000AC       strcmp
 0005:00300168       strlen
 0005:00300910       __mathlib_narrow
 0005:003009D8       _seterr
 0005:003009EC       _writebuf
 0005:00300A38       _fflush
 0005:00300A84       _deferredlazyseek
 0005:00300CF8       _ll_shift_l
 0005:00300F58       std__string__string
 0005:00300FC4       BtlDfxSystem____deallocating
 0005:00300FD4       operator_delete_
 0005:0030150C       __support_ldexp
 0005:00301510       __rw____rw_throw
 0005:00301664       memcpy
 0005:003016C0       __aeabi_vec_delete
 0005:003016D4       setlocale
 0005:003016E8       strcpy
 0005:00301750       fprintf
 0005:00301784       __rw____rw_use_c_lib_locale____rw_use_c_lib_locale
 0005:00301888       std__string__begin
 0005:003018DC       std____rw_get_cats
 0005:0030191C       std__locale__operator__
 0005:00301950       std__locale__classic
 0005:00301998       std__ctype_char___is
 0005:00301BA4       std__ctype_char___ctype
 0005:00301DC4       EntryFieldBootMenu
 0005:0030211C       aRdOutGear
 0005:00302128       aGearIn01
 0005:00302134       aEyeL_2
 0005:0030213C       aEyeLocL01
 0005:0030214C       aEyeR_2
 0005:00302154       aEyeLocR01
 0005:0030226C       std__locale___C_init
 0005:003022F4       __cxa_guard_acquire
 0005:00302308       __aeabi_atexit
 0005:00302790       std__max
 0005:0030279C       std__string___C_getRep
 0005:0030281C       std__char_traits_char___copy
 0005:00302828       std__string___C_unlink
 0005:00302870       __aeabi_memmove
 0005:003028FC       __rw____string_ref_char__std__char_traits_char___std__allocator_char_____C_inc_ref
 0005:00303154       nullsub_910
 0005:003033CC       nullsub_911
 0005:003033D0       nullsub_912
 0005:003033D4       nullsub_913
 0005:0030341C       nullsub_914
 0005:00303420       nullsub_915
 0005:003035F8       nullsub_916
 0005:00303728       thunk_FUN_002007e8
 0005:00303798       nullsub_917
 0005:003046FC       nullsub_918
 0005:00304BD0       nullsub_919
 0005:0030635C       aJointL01
 0005:00306368       aJointL02
 0005:00306374       aJointL03
 0005:00306380       aJointL04
 0005:0030638C       aJointL05
 0005:00306398       aJointL06
 0005:003063A4       aJointL07
 0005:003063C0       aJointR01
 0005:003063CC       aJointR02
 0005:003063D8       aJointR03
 0005:003063E4       aJointR04
 0005:003063F0       aJointR05
 0005:003063FC       aJointR06
 0005:00306408       aJointR07
 0005:00306648       def_306644
 0005:0030664C       jpt_306644
 0005:00307D38       aEyeL_3
 0005:00307D40       aEyeLocL_2
 0005:00307D4C       aEyeR_3
 0005:00307D54       aEyeLocR_2
 0005:00307D6C       aNose_0
 0005:00307D78       aNoseLoc
 0005:003085A4       nullsub_804
 0005:00308980       MsgDataAcsrBase__MsgDataAcsrBase
 0005:0030AA34       jpt_30AA2C
 0005:0030ABCC       def_30AA2C
 0005:0030BD34       RenderDrawSysCA____deallocating
 0005:0030BD38       nullsub_861
 0005:0030BD3C       RenderQueneBase____deallocating
 0005:0030C8A4       nullsub_142
 0005:00310670       aDBombS
 0005:003107F0       nullsub_826
 0005:00310C28       def_310C24
 0005:00310C2C       jpt_310C24
 0005:0031121C       jpt_311214
 0005:0031128C       def_311214
 0005:00311698       jpt_311690
 0005:003117F0       def_311690
 0005:00311BBC       jpt_311BB4
 0005:00311BD8       def_311BB4
 0005:00311DCC       nullsub_1051
 0005:00312A80       nullsub_1052
 0005:00313454       jpt_31344C
 0005:003139EC       def_31344C
 0005:00316BA0       j_operator_delete__81
 0005:00316BA4       nullsub_557
 0005:00316C78       j_operator_delete__82
 0005:00316C7C       nullsub_558
 0005:00317F74       nullsub_559
 0005:003183C0       nullsub_560
 0005:003188C8       jpt_3188C0
 0005:00318E30       def_3188C0
 0005:003192C4       j_operator_delete__83
 0005:003192C8       nullsub_561
 0005:00319AC4       j_operator_delete__84
 0005:00319AC8       nullsub_562
 0005:00319B9C       j_operator_delete__85
 0005:00319BA0       nullsub_563
 0005:0031B1D8       nullsub_564
 0005:0031B218       jpt_31B210
 0005:0031B32C       def_31B210
 0005:0031B5F0       jpt_31B5E8
 0005:0031B758       def_31B5E8
 0005:0031BD44       j_operator_delete__86
 0005:0031BD48       nullsub_565
 0005:0031BD60       nullsub_566
 0005:0031C8D4       jpt_31C8CC
 0005:0031C9FC       def_31C8CC
 0005:003212F0       nullsub_1053
 0005:003212F4       FieldGlobalEvent__init
 0005:00321364       FieldGlobalEvent____deallocating
 0005:003215F0       FieldSoundSystem__playBgm
 0005:00321610       FieldSoundSystem__stopBgm
 0005:00322090       nullsub_1054
 0005:003225EC       aFHaneBlock
 0005:0032278C       nullsub_920
 0005:00322F30       nullsub_921
 0005:00323128       nullsub_922
 0005:00324B50       aPropeller
 0005:00324EE8       aInFeather1
 0005:00324EF8       aEyeL_4
 0005:00324F00       aEyeLocL_3
 0005:00324F0C       aEyeR_4
 0005:00324F14       aEyeLocR_3
 0005:00324F2C       aPropellerBase1
 0005:0032F034       caseD_0
 0005:0032F1EC       RenderDrawSysDFX__DfxRenderBuf__init
 0005:0032F2A0       RenderDrawSysDFX__DfxRenderBuf__term
 0005:0032F2EC       RenderDrawSysDFX__DfxRenderBuf__DfxRenderBuf
 0005:0032F308       RenderDrawSysDFX__setLayerZFunc
 0005:0032F72C       RenderDrawSysDFX__initRenderState
 0005:0032F740       RenderDrawSysDFX__preCollectionEx
 0005:0032F838       RenderDrawSysDFX__DfxRenderBufRange__Range__makeRenderPack
 0005:00330320       RenderDrawSysDFX__DfxRenderBufRange__Range__Range
 0005:00330EEC       RenderDrawSysDFX__init
 0005:003313C0       RenderDrawSysDFX__setCam
 0005:0033180C       RenderDrawSysDFX__preRender
 0005:0033183C       RenderDrawSysDFX__RenderDrawSysDFX
 0005:00331A44       RenderDrawSysDFX____deallocating
 0005:00331D04       j_operator_delete__87
 0005:00331D08       nullsub_862
 0005:00331D20       j_operator_delete__88
 0005:00331D24       nullsub_863
 0005:00331D28       UIListWindowPlus__drawListCA
 0005:00332248       UIListWindowPlus__drawCaption
 0005:00332320       UIListWindowPlus__drawListStr
 0005:003327DC       nullsub_143
 0005:00332824       UIListWindowPlus__tpCtrlStart
 0005:00332A78       nullsub_144
 0005:00332BFC       nullsub_145
 0005:00332C00       nullsub_146
 0005:00332C04       nullsub_147
 0005:00332C08       UIListWindowPlus__draw
 0005:003330EC       UIListWindowPlus__init
 0005:00333180       UIListWindowPlus__tpCtrl
 0005:00333374       UIListWindowPlus__keyCtrl
 0005:003333F0       UIListWindowPlus__setCurNo
 0005:0033350C       UIListWindowPlus__InitParam__InitParam
 0005:00333578       UIListWindowPlus__tpCtrlCnt
 0005:003335B0       jpt_3335A8
 0005:00333A14       def_3335A8
 0005:00333A28       UIListWindowPlus__tpCtrlEnd
 0005:00333A44       jpt_333A3C
 0005:00333AEC       def_333A3C
 0005:00333AF8       UIListWindowPlus__UIListWindowPlus
 0005:00333CEC       UIListWindowPlus____deallocating
 0005:00333FD4       jpt_333FCC
 0005:0033411C       def_333FCC
 0005:003342BC       jpt_3342B4
 0005:00334C70       def_3342B4
 0005:00334EA8       jpt_334EA0
 0005:00334F9C       def_334EA0
 0005:0033711C       jpt_337114
 0005:003372C8       def_337114
 0005:003374C4       j_operator_delete__89
 0005:003374C8       nullsub_751
 0005:0033808C       jpt_338084
 0005:00338140       def_338084
 0005:00338A28       jpt_338A20
 0005:00338A90       def_338A20
 0005:00338CCC       nullsub_653
 0005:00338CFC       nullsub_654
 0005:00339A08       jpt_339A00
 0005:00339B3C       def_339A00
 0005:0033A650       nullsub_1055
 0005:0033C090       j_operator_delete__90
 0005:0033C094       nullsub_775
 0005:0033C16C       j_operator_delete__91
 0005:0033C170       nullsub_776
 0005:0033D858       nullsub_777
 0005:0033DF34       jpt_33DF2C
 0005:0033E82C       def_33DF2C
 0005:003415A4       jpt_34159C
 0005:00341618       def_34159C
 0005:0034575C       jpt_345754
 0005:003464CC       def_345754
 0005:00346E80       jpt_346E78
 0005:00346ED8       def_346E78
 0005:0034B548       jpt_34B540
 0005:0034B58C       def_34B540
 0005:0034BB10       j_operator_delete__92
 0005:0034BB14       nullsub_781
 0005:0034BBE0       j_operator_delete__93
 0005:0034BBE4       nullsub_782
 0005:0034E8E4       jpt_34E8DC
 0005:0034EDDC       def_34E8DC
 0005:0034F2B0       j_operator_delete__94
 0005:0034F2B4       nullsub_783
 0005:0034F318       jpt_34F310
 0005:0034F7F4       def_34F310
 0005:0034FE10       nullsub_784
 0005:003512B4       nullsub_785
 0005:003512CC       nullsub_786
 0005:00355DD0       nullsub_797
 0005:00355E1C       jpt_355E14
 0005:0035615C       def_355E14
 0005:00356228       nullsub_798
 0005:00357888       jpt_357880
 0005:00357A24       def_357880
 0005:00358B4C       jpt_358B44
 0005:00358B68       def_358B44
 0005:0035904C       jpt_359044
 0005:00359080       def_359044
 0005:0035909C       jpt_359094
 0005:003590C8       def_359094
 0005:00359264       jpt_35925C
 0005:00359280       def_35925C
 0005:003592DC       jpt_3592D4
 0005:00359484       def_3592D4
 0005:003598E8       jpt_3598E0
 0005:00359904       def_3598E0
 0005:0035A690       jpt_35A688
 0005:0035A6E4       def_35A688
 0005:0035B024       FieldCameraStereo__FieldCameraStereo
 0005:0035B044       j_operator_delete__95
 0005:0035B048       nullsub_864
 0005:0035D910       jpt_35D908
 0005:0035DA18       def_35D908
 0005:0035DFEC       aClockInPendulu
 0005:0035E000       aClockOutPendul
 0005:0035E018       aEyeL_5
 0005:0035E020       aEyeLocL_4
 0005:0035E02C       aEyeR_5
 0005:0035E034       aEyeLocR_4
 0005:0035EC98       jpt_35EC90
 0005:0035F25C       def_35EC90
 0005:003607EC       jpt_3607E4
 0005:003609C0       def_3607E4
 0005:00361210       jpt_361208
 0005:00361840       def_361208
 0005:0036447C       jpt_364474
 0005:00364718       def_364474
 0005:003647E8       jpt_3647E0
 0005:00364990       def_3647E0
 0005:0036635C       j_operator_delete__96
 0005:00366360       nullsub_865
 0005:00366B5C       j_nullsub_18_3
 0005:00366B70       j_nullsub_18_12
 0005:00368670       j_operator_delete__97
 0005:00368674       nullsub_773
 0005:0036A034       j_operator_delete__98
 0005:0036A038       nullsub_539
 0005:0036A10C       j_operator_delete__99
 0005:0036A110       nullsub_540
 0005:0036B440       nullsub_541
 0005:0036C4C4       nullsub_542
 0005:0036E088       j_operator_delete__100
 0005:0036E08C       nullsub_554
 0005:0036E1D8       nullsub_555
 0005:003752F4       j_operator_delete__101
 0005:003752F8       nullsub_752
 0005:003753E0       j_operator_delete__102
 0005:003753E4       nullsub_753
 0005:00379034       jpt_37902C
 0005:00379488       def_37902C
 0005:0037A970       nullsub_754
 0005:0037B408       j_operator_delete__103
 0005:0037B40C       nullsub_755
 0005:0037C110       nullsub_756
 0005:0037C114       nullsub_757
 0005:0037D5E8       FieldMessageSystem__setSE
 0005:0037D710       FieldMessageSystem__resetSE
 0005:0037D8DC       nullsub_964
 0005:0037F0A0       nullsub_923
 0005:00380C5C       jpt_380C54
 0005:00380E88       def_380C54
 0005:003811C0       aEyeL_6
 0005:003811C8       aEyeLocL_5
 0005:003811D4       aEyeR_6
 0005:003811DC       aEyeLocR_5
 0005:00381E14       jpt_381E0C
 0005:00381E60       def_381E0C
 0005:00382D78       aIsvalid_0
 0005:0038358C       aIsend_0
 0005:00383970       aTermfro_0
 0005:00383B1C       jpt_383B14
 0005:00383BD0       def_383B14
 0005:00383E7C       nullsub_952
 0005:00383F00       aRomRoPuzzleCro_0
 0005:00385498       nullsub_866
 0005:0038549C       j_operator_delete__104
 0005:003854A0       nullsub_867
 0005:00385FC4       jpt_385FBC
 0005:00386068       def_385FBC
 0005:003862F4       nullsub_985
 0005:00386548       jpt_386540
 0005:00386570       def_386540
 0005:00386580       jpt_386578
 0005:003865A8       def_386578
 0005:00386618       jpt_386610
 0005:00386680       def_386610
 0005:0038A480       jpt_38A478
 0005:0038A54C       def_38A478
 0005:0038AF48       j_operator_delete__105
 0005:0038AF4C       nullsub_481
 0005:0038B020       j_operator_delete__106
 0005:0038B024       nullsub_482
 0005:0038C2F4       nullsub_483
 0005:0038E514       j_operator_delete__107
 0005:0038E518       nullsub_484
 0005:0038E5A4       j_operator_delete__108
 0005:0038E5A8       nullsub_485
 0005:0038F164       nullsub_486
 0005:00390040       j_operator_delete__109
 0005:00390044       nullsub_487
 0005:00390174       j_operator_delete__110
 0005:00390178       nullsub_488
 0005:003901D8       nullsub_489
 0005:00390374       j_operator_delete__111
 0005:00390378       nullsub_490
 0005:003904D0       j_operator_delete__112
 0005:003904D4       nullsub_491
 0005:00394EF4       jpt_394EEC
 0005:00394FD4       def_394EEC
 0005:00395B68       j_operator_delete__113
 0005:00395B6C       nullsub_493
 0005:00395C40       j_operator_delete__114
 0005:00395C44       nullsub_494
 0005:00396648       nullsub_495
 0005:003979F8       nullsub_496
 0005:00397F8C       jpt_397F84
 0005:0039848C       def_397F84
 0005:003986A8       nullsub_497
 0005:0039A240       nullsub_498
 0005:0039A824       nullsub_499
 0005:0039B2D0       nullsub_500
 0005:0039B51C       nullsub_501
 0005:0039BC64       j_operator_delete__115
 0005:0039BC68       nullsub_502
 0005:0039BCC8       nullsub_503
 0005:0039BEB0       j_operator_delete__116
 0005:0039BEB4       nullsub_504
 0005:0039E8A8       j__scanf_really_real
 0005:003A186C       nullsub_893
 0005:003A1DD0       aD
 0005:003A2EAC       nullsub_1056
 0005:003A2EB0       nullsub_346
 0005:003A3488       MsgWndPosCalculator__calc
 0005:003A3560       jpt_3A3558
 0005:003A35FC       def_3A3558
 0005:003A3630       jpt_3A3628
 0005:003A3690       def_3A3628
 0005:003A5D64       nullsub_345
 0005:003A7CC0       aD_4
 0005:003A88C4       jpt_3A88BC
 0005:003A8980       def_3A88BC
 0005:003A8A1C       jpt_3A8A14
 0005:003A8AD8       def_3A8A14
 0005:003A8B94       jpt_3A8B8C
 0005:003A8C60       def_3A8B8C
 0005:003A8CAC       jpt_3A8CA4
 0005:003A8D68       def_3A8CA4
 0005:003A8DBC       jpt_3A8DB4
 0005:003A8E78       def_3A8DB4
 0005:003A8ED0       jpt_3A8EC8
 0005:003A8F8C       def_3A8EC8
 0005:003B0F8C       nullsub_655
 0005:003B0F90       nullsub_656
 0005:003B0F94       nullsub_657
 0005:003B0F98       nullsub_658
 0005:003B0F9C       j_operator_delete__117
 0005:003B0FA0       nullsub_659
 0005:003B19AC       j_operator_delete__118
 0005:003B19B0       nullsub_986
 0005:003B1CB4       jpt_3B1CAC
 0005:003B2078       def_3B1CAC
 0005:003B2294       jpt_3B228C
 0005:003B24DC       def_3B228C
 0005:003B31C0       jpt_3B31B8
 0005:003B3C8C       def_3B31B8
 0005:003B5414       nullsub_459
 0005:003B5F14       j_operator_delete__119
 0005:003B5F18       nullsub_460
 0005:003B5FEC       j_operator_delete__120
 0005:003B5FF0       nullsub_461
 0005:003B7168       nullsub_462
 0005:003B7770       nullsub_463
 0005:003B7A18       jpt_3B7A10
 0005:003B8078       def_3B7A10
 0005:003B82A8       nullsub_464
 0005:003B84B8       nullsub_465
 0005:003B8AF4       jpt_3B8AEC
 0005:003B8D8C       def_3B8AEC
 0005:003B99E4       jpt_3B99DC
 0005:003B9A9C       def_3B99DC
 0005:003B9AAC       jpt_3B9AA4
 0005:003B9B54       def_3B9AA4
 0005:003B9C9C       nullsub_466
 0005:003BA0A4       nullsub_467
 0005:003BA320       j_operator_delete__121
 0005:003BA324       nullsub_1057
 0005:003BA65C       nullsub_1058
 0005:003BB200       jpt_3BB1F8
 0005:003BB29C       def_3BB1F8
 0005:003BBC40       nullsub_1060
 0005:003BBD3C       nullsub_1061
 0005:003BFA18       j_operator_delete__122
 0005:003BFA1C       nullsub_759
 0005:003BFAF4       j_operator_delete__123
 0005:003BFAF8       nullsub_760
 0005:003C0F5C       nullsub_761
 0005:003C1114       jpt_3C110C
 0005:003C1324       def_3C110C
 0005:003C15C0       nullsub_762
 0005:003C17D4       jpt_3C17CC
 0005:003C1DB4       def_3C17CC
 0005:003C1E10       nullsub_763
 0005:003C4D9C       jpt_3C4D94
 0005:003C4FD4       def_3C4D94
 0005:003C53C0       nullsub_764
 0005:003C5714       nullsub_765
 0005:003C5D54       nullsub_766
 0005:003C8784       nullsub_767
 0005:003C8DA8       jpt_3C8DA0
 0005:003C8E00       def_3C8DA0
 0005:003CF8E8       nullsub_953
 0005:003D194C       j_operator_delete__124
 0005:003D1950       nullsub_660
 0005:003D1CA8       nullsub_661
 0005:003D1F30       j_operator_delete__125
 0005:003D1F34       nullsub_662
 0005:003D2388       jpt_3D2380
 0005:003D2450       def_3D2380
 0005:003D313C       jpt_3D3134
 0005:003D31F4       def_3D3134
 0005:003D3D80       nullsub_663
 0005:003D3D84       nullsub_664
 0005:003D3D88       nullsub_665
 0005:003D3D8C       nullsub_666
 0005:003D3D90       j_operator_delete__126
 0005:003D3D94       nullsub_667
 0005:003D8D64       j_operator_delete__127
 0005:003D8D68       nullsub_960
 0005:003DAA58       j_operator_delete__128
 0005:003DAA5C       nullsub_668
 0005:003DACD0       j_operator_delete__129
 0005:003DACD4       nullsub_669
 0005:003DACF0       nullsub_670
 0005:003DB130       j_operator_delete__130
 0005:003DB134       nullsub_705
 0005:003DB2F8       j_operator_delete__131
 0005:003DB2FC       nullsub_706
 0005:003DF4B0       j_operator_delete__132
 0005:003DF4B4       nullsub_1037
 0005:003DF51C       j_operator_delete__133
 0005:003DF520       nullsub_148
 0005:003E0758       j_operator_delete__134
 0005:003E075C       nullsub_149
 0005:003E0EE0       j_operator_delete__135
 0005:003E0EE4       nullsub_707
 0005:003E0EE8       nullsub_671
 0005:003E0EEC       nullsub_672
 0005:003E1134       j_operator_delete__136
 0005:003E1138       nullsub_673
 0005:003E113C       nullsub_674
 0005:003E12D4       j_operator_delete__137
 0005:003E12D8       nullsub_675
 0005:003E3E28       nullsub_1062
 0005:003E41F8       jpt_3E41F0
 0005:003E4248       def_3E41F0
 0005:003E47C8       j_operator_delete__138
 0005:003E47CC       nullsub_676
 0005:003E47D0       nullsub_677
 0005:003E4A2C       j_operator_delete__139
 0005:003E4A30       nullsub_678
 0005:003E59FC       jpt_3E59F4
 0005:003E5A58       def_3E59F4
 0005:003E5BA4       aMinigameMsbt_9
 0005:003E6D34       j_operator_delete__140
 0005:003E6D38       nullsub_778
 0005:003E8350       nullsub_779
 0005:003E8A30       jpt_3E8A28
 0005:003E9370       def_3E8A28
 0005:003EAAE8       jpt_3EAAE0
 0005:003EAD34       def_3EAAE0
 0005:003EC4D4       jpt_3EC4CC
 0005:003EC620       def_3EC4CC
 0005:003F6E38       nullsub_1063
 0005:003F6E3C       nullsub_679
 0005:003F6F58       jpt_3F6F50
 0005:003F6F98       def_3F6F50
 0005:003F6FC8       nullsub_680
 0005:003F6FCC       j_operator_delete__141
 0005:003F6FD0       nullsub_681
 0005:003F7FCC       nullsub_543
 0005:003F7FD0       nullsub_544
 0005:003F823C       jpt_3F8234
 0005:003F8298       def_3F8234
 0005:003F82CC       aMinigameMsbt_3
 0005:003F99EC       j_operator_delete__142
 0005:003F99F0       nullsub_545
 0005:003FA928       nullsub_546
 0005:003FB348       nullsub_547
 0005:003FC0EC       nullsub_548
 0005:003FC2D4       jpt_3FC2CC
 0005:003FC360       def_3FC2CC
 0005:003FDB6C       j_operator_delete__143
 0005:003FDB70       nullsub_556
 0005:003FDCA4       nullsub_549
 0005:003FE2F8       nullsub_550
 0005:003FE8E8       nullsub_551
 0005:003FEF94       j_operator_delete__144
 0005:003FEF98       nullsub_552
 0005:00405060       jpt_405058
 0005:0040508C       def_405058
 0005:0040614C       nullsub_708
 0005:00406244       j_operator_delete__145
 0005:00406248       nullsub_709
 0005:0040624C       nullsub_710
 0005:0040631C       j_operator_delete__146
 0005:00406320       nullsub_711
 0005:004064BC       j_operator_delete__147
 0005:004064C0       nullsub_682
 0005:004064C4       nullsub_683
 0005:00406660       j_operator_delete__148
 0005:00406664       nullsub_684
 0005:00406668       nullsub_685
 0005:00407C78       jpt_407C70
 0005:00407CD4       def_407C70
 0005:00407D24       aMinigameMsbt_4
 0005:00409C20       j_operator_delete__149
 0005:00409C24       nullsub_505
 0005:00409F0C       nullsub_150
 0005:0040B390       nullsub_151
 0005:0040BA80       jpt_40BA78
 0005:0040BB0C       def_40BA78
 0005:0040C210       nullsub_152
 0005:0040DFA0       nullsub_153
 0005:0040E70C       nullsub_154
 0005:0040EAD8       j_operator_delete__150
 0005:0040EADC       nullsub_155
 0005:0040EF5C       jpt_40EF54
 0005:0040F3F8       def_40EF54
 0005:0040F70C       nullsub_156
 0005:004101B8       nullsub_157
 0005:00410404       nullsub_158
 0005:00410C2C       jpt_410C24
 0005:00410CB0       def_410C24
 0005:004166FC       nullsub_686
 0005:00416770       nullsub_687
 0005:00416774       nullsub_688
 0005:00416778       j_operator_delete__151
 0005:0041677C       nullsub_689
 0005:00416780       nullsub_690
 0005:00416854       nullsub_691
 0005:00416858       j_operator_delete__152
 0005:0041685C       nullsub_692
 0005:00416860       nullsub_712
 0005:00416A54       j_operator_delete__153
 0005:00416A58       nullsub_713
 0005:00416BDC       nullsub_693
 0005:004171E4       jpt_4171DC
 0005:00417240       def_4171DC
 0005:00418CD0       jpt_418CC8
 0005:00418D2C       def_418CC8
 0005:00418D58       aMinigameMsbt_5
 0005:00419EB0       j_operator_delete__154
 0005:00419EB4       nullsub_468
 0005:0041A234       nullsub_469
 0005:0041A770       nullsub_470
 0005:0041A9B8       jpt_41A9B0
 0005:0041AC7C       def_41A9B0
 0005:0041B128       nullsub_471
 0005:0041B438       nullsub_472
 0005:0041B450       nullsub_473
 0005:0041C018       nullsub_159
 0005:0041C41C       j_operator_delete__155
 0005:0041C420       nullsub_1064
 0005:0041C4C0       j_operator_delete__156
 0005:0041C4C4       nullsub_474
 0005:0041C8D8       nullsub_1065
 0005:0041D1E0       jpt_41D1D8
 0005:0041D27C       def_41D1D8
 0005:0041DC20       nullsub_1067
 0005:0041DD1C       nullsub_1068
 0005:00423A3C       jpt_423A34
 0005:00423A98       def_423A34
 0005:00423BC0       aMinigameMsbt_8
 0005:00424A10       j_operator_delete__157
 0005:00424A14       nullsub_768
 0005:0042542C       nullsub_160
 0005:004284CC       jpt_4284C4
 0005:00428704       def_4284C4
 0005:00429158       nullsub_161
 0005:0042C548       nullsub_769
 0005:0042CAD8       jpt_42CAD0
 0005:0042CB30       def_42CAD0
 0005:0043230C       jpt_432304
 0005:004323B8       def_432304
 0005:00432998       jpt_432990
 0005:00432A3C       def_432990
 0005:0043622C       nullsub_589
 0005:0043638C       jpt_436384
 0005:00436870       def_436384
 0005:0043697C       nullsub_590
 0005:00436C30       j_operator_delete__158
 0005:00436C34       nullsub_591
 0005:00436DD0       j_operator_delete__159
 0005:00436DD4       nullsub_592
 0005:004373E4       j_operator_delete__160
 0005:004373E8       nullsub_593
 0005:00437410       nullsub_594
 0005:0043770C       j_operator_delete__161
 0005:00437710       nullsub_595
 0005:00437714       j_operator_delete__162
 0005:00437718       nullsub_596
 0005:00437750       jpt_437748
 0005:004379E8       def_437748
 0005:00437A94       jpt_437A8C
 0005:00437D20       def_437A8C
 0005:004385B0       j_operator_delete__163
 0005:004385B4       nullsub_597
 0005:004394D8       j_operator_delete__164
 0005:004394DC       nullsub_598
 0005:0043A168       j_operator_delete__165
 0005:0043A16C       nullsub_599
 0005:0043A5FC       j_operator_delete__166
 0005:0043A600       nullsub_600
 0005:0043A720       j_operator_delete__167
 0005:0043A724       nullsub_601
 0005:0043AF90       nullsub_602
 0005:0043AF9C       nullsub_603
 0005:0043B07C       nullsub_604
 0005:0043B080       nullsub_605
 0005:0043B084       j_operator_delete__168
 0005:0043B088       nullsub_606
 0005:0043B08C       nullsub_607
 0005:0043B090       nullsub_608
 0005:0043B094       j_operator_delete__169
 0005:0043B098       nullsub_609
 0005:0043B09C       nullsub_610
 0005:0043B340       j_operator_delete__170
 0005:0043B344       nullsub_611
 0005:0043CF60       jpt_43CF58
 0005:0043CFDC       def_43CF58
 0005:0043D598       jpt_43D590
 0005:0043D720       def_43D590
 0005:0043DE10       nullsub_632
 0005:0043E060       jpt_43E058
 0005:0043E720       def_43E058
 0005:0043E818       nullsub_633
 0005:0043E9B8       j_operator_delete__171
 0005:0043E9BC       nullsub_634
 0005:0044066C       nullsub_635
 0005:00440880       j_operator_delete__172
 0005:00440884       nullsub_1070
 0005:004409E0       j_operator_delete__173
 0005:004409E4       nullsub_644
 0005:00440E2C       j_operator_delete__174
 0005:00440E30       nullsub_636
 0005:00441304       j_operator_delete__175
 0005:00441308       nullsub_637
 0005:00441798       j_operator_delete__176
 0005:0044179C       nullsub_638
 0005:00441828       j_operator_delete__177
 0005:0044182C       nullsub_639
 0005:00441830       nullsub_649
 0005:0044183C       nullsub_650
 0005:0044191C       nullsub_645
 0005:00441920       nullsub_640
 0005:00441924       nullsub_646
 0005:00441928       nullsub_647
 0005:0044192C       j_operator_delete__178
 0005:00441930       nullsub_648
 0005:00441D5C       jpt_441D54
 0005:00441DB0       def_441D54
 0005:00442068       nullsub_651
 0005:00442724       nullsub_652
 0005:00442A60       nullsub_323
 0005:00443144       jpt_44313C
 0005:0044317C       def_44313C
 0005:0044351C       jpt_443514
 0005:004437C0       def_443514
 0005:00443CE8       jpt_443CE0
 0005:00443FC8       def_443CE0
 0005:004447E0       jpt_4447D8
 0005:00444964       def_4447D8
 0005:00444FF8       j_operator_delete__179
 0005:00444FFC       nullsub_641
 0005:00445000       nullsub_642
 0005:0044518C       j_operator_delete__180
 0005:00445190       nullsub_643
 0005:00445194       nullsub_162
 0005:00445914       nullsub_163
 0005:00446918       nullsub_164
 0005:004471FC       j_operator_delete__181
 0005:00447200       nullsub_165
 0005:00447204       nullsub_166
 0005:004472D0       j_operator_delete__182
 0005:004472D4       nullsub_167
 0005:004472D8       nullsub_168
 0005:00447308       nullsub_169
 0005:0044730C       j_operator_delete__183
 0005:00447310       nullsub_170
 0005:00447CF0       j_operator_delete__184
 0005:00447CF4       nullsub_171
 0005:0044BC0C       nullsub_172
 0005:0044BCA4       j_operator_delete__185
 0005:0044BCA8       nullsub_173
 0005:0044C80C       j_operator_delete__186
 0005:0044C810       nullsub_174
 0005:0044CD54       nullsub_175
 0005:0044D444       j_operator_delete__187
 0005:0044D448       nullsub_176
 0005:0044DBE8       j_operator_delete__188
 0005:0044DBEC       nullsub_177
 0005:0044E07C       j_operator_delete__189
 0005:0044E080       nullsub_178
 0005:0044E10C       j_operator_delete__190
 0005:0044E110       nullsub_179
 0005:0044E254       nullsub_180
 0005:0044E260       nullsub_181
 0005:0044E340       nullsub_182
 0005:00450168       nullsub_183
 0005:00450288       j_operator_delete__191
 0005:0045028C       nullsub_184
 0005:00450370       nullsub_185
 0005:00450644       nullsub_186
 0005:00450EC4       nullsub_187
 0005:00451238       nullsub_188
 0005:00451370       j_operator_delete__192
 0005:00451374       nullsub_189
 0005:00451900       nullsub_190
 0005:00451D5C       nullsub_191
 0005:00453710       jpt_453708
 0005:00453794       def_453708
 0005:00454014       nullsub_192
 0005:00454390       nullsub_193
 0005:004546E4       j_operator_delete__193
 0005:004546E8       nullsub_194
 0005:00454C74       nullsub_195
 0005:00454D7C       j_operator_delete__194
 0005:00454D80       nullsub_196
 0005:00455B1C       nullsub_197
 0005:00455E90       nullsub_198
 0005:0045888C       jpt_458884
 0005:00458B84       def_458884
 0005:0045931C       nullsub_199
 0005:00459320       nullsub_200
 0005:004598CC       nullsub_201
 0005:0045997C       j_operator_delete__195
 0005:00459980       nullsub_202
 0005:0045AB24       nullsub_203
 0005:0045ABE4       j_operator_delete__196
 0005:0045ABE8       nullsub_204
 0005:0045B144       j_operator_delete__197
 0005:0045B148       nullsub_205
 0005:0045B618       j_operator_delete__198
 0005:0045B61C       nullsub_206
 0005:0045B6A8       j_operator_delete__199
 0005:0045B6AC       nullsub_207
 0005:0045C0E4       nullsub_208
 0005:0045C0F0       j_operator_delete__200
 0005:0045C0F4       nullsub_750
 0005:0045C500       nn__fs__FileInputStream__SetPosition
 0005:0045C550       nn__fs__FileInputStream__Seek
 0005:0045C5A0       nn__fs__FileInputStream__Write
 0005:0045C6AC       j_operator_delete__201
 0005:0045C6B0       nullsub_322
 0005:0045C6B4       j_operator_delete__202
 0005:0045C6B8       nullsub_209
 0005:0045C768       nn__fs__FileInputStream__Read
 0005:0045C934       nn__fs__CTR__MPCore__detail__RomFsArchive__OpenDirectory
 0005:0045C9FC       nn__fs__CTR__MPCore__detail__RomFsArchive__OpenLinkHandle
 0005:0045CA0C       nn__fs__CTR__MPCore__detail__RomFsArchive__CreateDirectory
 0005:0045CE54       j_operator_delete__203
 0005:0045CE58       nullsub_210
 0005:0045CE5C       nn__fs__CTR__MPCore__detail__RomFsArchive__OpenFile
 0005:0045D4A0       j_operator_delete__204
 0005:0045D4A4       nullsub_211
 0005:0045D4A8       nn__fs__CTR__MPCore__detail__RomFsArchive____deallocating
 0005:0045D5B4       nn__fs__CTR__MPCore__detail__UserFileSystem__TryWriteFile
 0005:0045D6DC       nn__fs__CTR__MPCore__detail__FileServerArchive__DeleteFile
 0005:0045D79C       nn__fs__CTR__MPCore__detail__FileServerArchive__DeleteObject
 0005:0045D820       nn__fs__CTR__MPCore__detail__FileServerArchive__OpenDirectory
 0005:0045DD98       nn__fs__CTR__MPCore__detail__FileServerArchive__OpenFile
 0005:0045DFB0       nn__fs__CTR__MPCore__detail__FileServerArchive____deallocating
 0005:0045E064       nn__fs__CTR__MPCore__detail__ContentRomFsArchive__OpenDirect
 0005:0045E104       nn__fs__CTR__MPCore__detail__ContentRomFsArchive____deallocating
 0005:0045E218       nullsub_212
 0005:0045E284       nn__fs__ipc__FileSystem__DeleteFile
 0005:0045E3A0       nn__fs__ipc__FileSystem__OpenDirectory
 0005:0045E654       nn__fs__ipc__FileSystem__OpenFile
 0005:0045EA58       nn__fs__detail__FileBase__TryWrite
 0005:0045EEAC       def_45EEA8
 0005:0045EEB0       jpt_45EEA8
 0005:0045EEFC       nullsub_1071
 0005:0045EF00       nullsub_1072
 0005:0045EF04       nullsub_1073
 0005:0045F46C       nn__ro__GetAddress
 0005:0045F708       nn__ro__detail__GetAddressDir
 0005:00460078       nn__dsp__CTR___GLOBAL__N__11_dsp_Api_cpp_2ff03107__SleepAcceptedCallback
 0005:004600E8       nn__fnd__ExpHeapBase__Free
 0005:00460128       nn__fnd__ExpHeapBase__Invalidate
 0005:00460254       nullsub_213
 0005:004602A0       nullsub_326
 0005:004602A4       nn__fnd__detail__FreeToHeap
 0005:00460440       nn__fnd__detail__RemoveListObject
 0005:00460744       nn__hid__CTR__GetGyroscope
 0005:00460750       nn__hid__CTR__GyroscopeReader__ReadLatest
 0005:0046087C       nn__hid__CTR__GyroscopeReader__EnableZeroPlay
 0005:004608C4       nn__hid__CTR__GyroscopeReader__SetZeroDriftMode
 0005:00460948       nn__hid__CTR__GyroscopeReader__CalculateDirection
 0005:00460B14       nn__hid__CTR__GyroscopeReader__ResetZeroDriftMode
 0005:00460B40       nn__hid__CTR__GyroscopeReader__ResetAxisRotationMatrix
 0005:00460D10       nn__hid__CTR__GyroscopeReader__GyroscopeReader
 0005:00460ECC       nn__hid__CTR__GyroscopeReader__ReviseDirection_Acceleration
 0005:00461334       nn__hid__CTR__GyroscopeReader__InitializeCalibrationData
 0005:004614A0       nn__hid__CTR__GyroscopeReader__ReadLocal
 0005:00461D94       nullsub_348
 0005:00461D98       nn__hid__CTR__AccelerometerReader__DisableAxisRotation
 0005:00461DA4       nn__hid__CTR__AccelerometerReader__SetAxisRotationMatrix
 0005:00461DD8       nn__hid__CTR__OrthonormalizeDirection
 0005:00462034       nn__hid__CTR__detail__Ipc__EnableGyroscopeLow
 0005:00462094       nn__hid__CTR__detail__Ipc__GetGyroscopeLowCalibrateParam
 0005:004620F0       nn__hid__CTR__detail__Ipc__GetGyroscopeLowRawToDpsCoefficient
 0005:00462184       nn__mic__CTR__detail__Initialize
 0005:00462750       nullsub_1074
 0005:00462754       nullsub_1075
 0005:00462758       nullsub_1076
 0005:00462858       nullsub_1077
 0005:00462B20       nn__math__SinCosFIdx
 0005:004636D8       nn__math__ARMv6__MTX44PivotC_FAST
 0005:00463794       nn__math__ARMv6__MTX34LookAtC_FAST
 0005:00463A30       nn__math__ARMv6__QUATToMTX34C_FAST
 0005:00463B04       nn__math__ARMv6__MTX44FrustumC_FAST
 0005:00464168       nn__math__MTX34__Identity
 0005:00464318       nn__math__CosFIdx
 0005:00464380       nn__math__SinFIdx
 0005:004643FC       nn__math__Atan2Idx
 0005:00464528       nn__math__AtanFIdx
 0005:004645C0       nn__math__Atan2FIdx
 0005:004647E0       nn__ulcd__CTR__StereoCamera__Initialize
 0005:004648B0       nn__ulcd__CTR__StereoCamera__SetBaseCamera
 0005:00464900       nn__ulcd__CTR__StereoCamera__SetBaseFrustum
 0005:00464998       nn__ulcd__CTR__StereoCamera__CalculateMatrices
 0005:00464CD0       nn__ulcd__CTR__StereoCamera__CalculateMatricesReal
 0005:00465034       nn__ulcd__CTR__StereoCamera__Finalize
 0005:00465038       nn__ulcd__CTR__StereoCamera__StereoCamera
 0005:0046504C       nullsub_1078
 0005:00465050       nn__ulcd__CTR__StereoCamera__GetLookPose
 0005:00465308       nn__gxlow__CTR__SetBufferSwap
 0005:00465510       nullsub_214
 0005:00465514       j_operator_delete__205
 0005:00465518       nullsub_215
 0005:00465548       nn__hidlow__CTR__GyroscopeLowLifoRing__ReadData
 0005:00465810       nw__ut__GetNextBinaryBlockHeader
 0005:004658FC       nw__ut__internal__LinkListImpl__erase
 0005:004659C0       nw__lyt__GroupContainer__AppendGroup
 0005:004659D0       nw__ut__internal__LinkListImpl__insert
 0005:00466064       nw__lyt__TexResource__Set
 0005:00466178       nw__lyt__AnimResource__Set
 0005:00466238       nw__lyt__ARCInitHandle
 0005:004666BC       nullsub_1079
 0005:004666C0       nw__lyt__GraphicsResource__FinishSetup
 0005:004667A0       nw__lyt__GraphicsResource__SetResource
 0005:0046697C       aAposition
 0005:00466988       aAvertexindex
 0005:00466998       aDmpFragoperati
 0005:004669B4       aDmpFragmentlig
 0005:00466A48       aUprojection_0
 0005:00466A6C       nw__lyt__GraphicsResource__InitVBO
 0005:00466AF4       nw__lyt__GraphicsResource__Finalize
 0005:00466BC0       nw__lyt__GraphicsResource__GraphicsResource
 0005:00466D4C       j_operator_delete__206
 0005:00466D50       nullsub_1080
 0005:00467A98       nw__lyt__ArcResourceAccessor__Attach
 0005:00467B64       nw__lyt__ArcResourceAccessor__ArcResourceAccessor
 0005:00467FF8       nw__lyt__Pane__AnimateSelf
 0005:004680B0       nw__lyt__Pane__AppendChild
 0005:004680D4       nw__lyt__Pane__InsertChild
 0005:004680F8       nw__lyt__Pane__RemoveChild
 0005:00468118       nullsub_216
 0005:0046811C       nw__lyt__Pane__CalculateMtx
 0005:004684D0       nw__lyt__Pane__BindAnimation
 0005:004684F0       nw__lyt__Pane__FindPaneByName
 0005:00468564       nw__lyt__Pane__SetColorElement
 0005:00468580       nw__lyt__Pane__UnbindAnimation
 0005:004685F4       nw__lyt__Pane__FindMaterialByName
 0005:00468848       nw__lyt__Pane__SetVtxColorElement
 0005:004688D8       nw__lyt__Pane__Init
 0005:004689E4       nw__lyt__Pane__Animate
 0005:00468AD4       nullsub_218
 0005:00468AD8       nw__lyt__Pane__Pane
 0005:00468D04       nw__lyt__Pane____deallocating
 0005:004690B8       nw__lyt__Group__Group
 0005:0046A9F0       nw__lyt__Drawer__DrawEnd
 0005:0046AA58       nw__lyt__Drawer__DrawBegin
 0005:0046AAEC       nw__lyt__Drawer__Drawer
 0005:0046AC98       nw__lyt__Layout__FreeMemory
 0005:0046ACB4       nw__lyt__Layout__AllocMemory
 0005:0046B3C0       nw__lyt__Initialize
 0005:0046B44C       nw__lyt__Layout__Build
 0005:0046B840       nw__lyt__TexMap__ResetU32Info
 0005:0046B860       jpt_46B858
 0005:0046B908       def_46B858
 0005:0046BF2C       nw__lyt__Window__FindMaterialByName
 0005:0046D0A0       nw__lyt__TextBox__SetFont
 0005:0046D448       nw__lyt__TextBox__TextBox
 0005:0046D678       nullsub_1081
 0005:0046D67C       nw__lyt__Bounding__Bounding
 0005:0046D6A4       nw__lyt__DrawInfo__DrawInfo
 0005:0046D764       j_operator_delete__207
 0005:0046D768       nullsub_1082
 0005:0046DA14       nw__lyt__Material__GetTexSRTAry
 0005:0046FC40       nw__lyt__internal__EqualsResName
 0005:0046FD68       nw__lyt__internal__EqualsMaterialName
 0005:0046FD84       nw__lyt__Pane__UnbindAnimationSelf
 0005:0047110C       nw__lyt__Drawer__Initialize
 0005:00471224       nw__font__RectDrawer__SetParallax
 0005:00472640       nw__font__RectDrawer__GetCurrentCommandBuffer
 0005:00472650       nw__lyt__Drawer__Draw
 0005:00472D80       nw__font__TextWriterResource__InitResource
 0005:00473060       aAposition_0
 0005:0047306C       aApositionz
 0005:00473078       aAcolor
 0005:00473080       aAtexcoord
 0005:0047308C       aUprojection
 0005:00473098       aUmodelview
 0005:004730A4       aDmpFragmentlig_0
 0005:004730C4       aDmpTexture0Sam
 0005:004730E0       aDmpFogMode
 0005:004730F0       aDmpFragoperati_0
 0005:00473114       aDmpFragoperati_1
 0005:00473134       aDmpFragoperati_2
 0005:00473154       aDmpTexenv3Srcr
 0005:0047316C       aDmpTexenv3Srca
 0005:00473184       aDmpTexenv3Oper
 0005:004731A0       aDmpTexenv3Oper_0
 0005:004731BC       aDmpTexenv3Comb
 0005:004731D8       aDmpTexenv3Comb_0
 0005:004731F4       aDmpTexenv3Scal
 0005:0047320C       aDmpTexenv3Scal_0
 0005:00473228       aDmpTexenv3Cons
 0005:00473240       aDmpTexenv4Srcr
 0005:00473258       aDmpTexenv4Srca
 0005:00473270       aDmpTexenv4Oper
 0005:0047328C       aDmpTexenv4Oper_0
 0005:004732A8       aDmpTexenv4Comb
 0005:004732C4       aDmpTexenv4Comb_0
 0005:004732E0       aDmpTexenv4Scal
 0005:004732F8       aDmpTexenv4Scal_0
 0005:00473314       aDmpTexenv4Cons
 0005:0047332C       aDmpTexenv5Srcr
 0005:00473344       aDmpTexenv5Srca
 0005:0047335C       aDmpTexenv5Oper
 0005:00473378       aDmpTexenv5Oper_0
 0005:00473394       aDmpTexenv5Comb
 0005:004733B0       aDmpTexenv5Comb_0
 0005:004733CC       aDmpTexenv5Scal
 0005:004733E4       aDmpTexenv5Scal_0
 0005:00473400       aDmpTexenv5Cons
 0005:00473940       jpt_473938
 0005:004739BC       def_473938
 0005:00473AF8       nw__math__MTX34LookAtFIdx
 0005:004746B8       nullsub_694
 0005:004749A4       j_operator_delete__208
 0005:004749A8       nullsub_695
 0005:00477494       nullsub_696
 0005:0047925C       j_operator_delete__209
 0005:00479260       nullsub_996
 0005:004792B8       jpt_4792B0
 0005:004795EC       def_4792B0
 0005:0047BB20       nullsub_714
 0005:0047BFC0       j_operator_delete__210
 0005:0047BFC4       nullsub_715
 0005:0047C414       jpt_47C40C
 0005:0047C4D0       def_47C40C
 0005:0047C514       jpt_47C50C
 0005:0047C5D0       def_47C50C
 0005:0047C610       jpt_47C608
 0005:0047C6D8       def_47C608
 0005:0047C744       nullsub_1083
 0005:0047C748       nullsub_1084
 0005:0047CF20       jpt_47CF18
 0005:0047D0A8       def_47CF18
 0005:0047D70C       j_operator_delete__211
 0005:0047D710       nullsub_219
 0005:0047D778       j_operator_delete__212
 0005:0047D77C       nullsub_220
 0005:0047DA70       j_operator_delete__213
 0005:0047DA74       nullsub_221
 0005:0047DC3C       j_operator_delete__214
 0005:0047DC40       nullsub_222
 0005:004802C8       Btn__Cnt
 0005:004802F8       Btn__Trg
 0005:00480310       Btn__Select
 0005:00484E6C       jpt_484E64
 0005:00485008       def_484E64
 0005:00485770       nullsub_961
 0005:00485780       Frm__setFrm
 0005:004857C8       Frm__update
 0005:004858A0       Grp__swapDispBuf
 0005:00485B0C       Grp__GetLcdHeight
 0005:00485B40       Grp__SetClearStencil
 0005:00485B50       Grp__restoreDefVramAlc
 0005:00485B94       Grp__simpleSwapBufVSync
 0005:00485BDC       Grp__GetLcdAsp
 0005:00485C14       Grp__waitVSync
 0005:00485D2C       nullsub_223
 0005:00485D30       nullsub_224
 0005:00485D34       j_operator_delete__215
 0005:00485D38       nullsub_745
 0005:00485DB4       nullsub_721
 0005:00485EE8       jpt_485EE0
 0005:0048697C       def_485EE0
 0005:00486C74       nullsub_722
 0005:00486D30       j_operator_delete__216
 0005:00486D34       nullsub_723
 0005:004877BC       nullsub_724
 0005:00489300       jpt_4892F8
 0005:00489698       def_4892F8
 0005:0048A258       nullsub_741
 0005:0048A824       nullsub_742
 0005:0048A92C       nullsub_725
 0005:0048A9D8       j_operator_delete__217
 0005:0048A9DC       nullsub_726
 0005:0048EB44       j_operator_delete__218
 0005:0048EB48       nullsub_225
 0005:0048F0F8       nullsub_727
 0005:0048F404       j_operator_delete__219
 0005:0048F408       nullsub_374
 0005:0048FF80       j_operator_delete__220
 0005:0048FF84       nullsub_728
 0005:0048FFBC       jpt_48FFB4
 0005:00490254       def_48FFB4
 0005:00490300       jpt_4902F8
 0005:0049058C       def_4902F8
 0005:00490E9C       j_operator_delete__221
 0005:00490EA0       nullsub_729
 0005:00491FC0       j_operator_delete__222
 0005:00491FC4       nullsub_730
 0005:00492B7C       j_operator_delete__223
 0005:00492B80       nullsub_731
 0005:00493054       j_operator_delete__224
 0005:00493058       nullsub_732
 0005:004934E8       j_operator_delete__225
 0005:004934EC       nullsub_733
 0005:0049360C       j_operator_delete__226
 0005:00493610       nullsub_734
 0005:00493BD0       nullsub_735
 0005:00493BDC       nullsub_736
 0005:00493CE4       nullsub_375
 0005:00493CE8       nullsub_226
 0005:00493CEC       j_operator_delete__227
 0005:00493CF0       nullsub_737
 0005:00493CF4       nullsub_376
 0005:00493CF8       nullsub_377
 0005:00493CFC       j_operator_delete__228
 0005:00493D00       nullsub_378
 0005:00494708       nullsub_748
 0005:004952E8       nullsub_746
 0005:00495330       jpt_495328
 0005:00495394       def_495328
 0005:00495988       j_operator_delete__229
 0005:0049598C       nullsub_738
 0005:004959CC       jpt_4959C4
 0005:00495C80       def_4959C4
 0005:00496408       jpt_496400
 0005:00496484       def_496400
 0005:00496E60       j_operator_delete__230
 0005:00496E64       nullsub_739
 0005:00497464       nullsub_1085
 0005:00497538       j_operator_delete__231
 0005:0049753C       nullsub_774
 0005:00497618       j_operator_delete__232
 0005:0049761C       nullsub_1086
 0005:00498350       jpt_498348
 0005:00498A0C       def_498348
 0005:00498C54       j_operator_delete__233
 0005:00498C58       nullsub_788
 0005:0049A444       def_49A440
 0005:0049A448       jpt_49A440
 0005:0049A914       jpt_49A90C
 0005:0049AD10       def_49A90C
 0005:0049B08C       nullsub_452
 0005:0049B0C8       jpt_49B0C0
 0005:0049B2F8       def_49B0C0
 0005:0049B440       nullsub_453
 0005:0049B5A0       nullsub_454
 0005:0049B5D0       jpt_49B5C8
 0005:0049B77C       def_49B5C8
 0005:0049B8BC       jpt_49B8B4
 0005:0049BA0C       def_49B8B4
 0005:0049BD14       j_operator_delete__234
 0005:0049BD18       nullsub_455
 0005:0049BD40       jpt_49BD38
 0005:0049C450       def_49BD38
 0005:0049C490       j_operator_delete__235
 0005:0049C494       nullsub_456
 0005:0049C498       j_operator_delete__236
 0005:0049C49C       nullsub_457
 0005:0049C9AC       jpt_49C9A4
 0005:0049CB5C       def_49C9A4
 0005:0049DBAC       nullsub_349
 0005:0049ED0C       nullsub_827
 0005:0049ED10       nullsub_828
 0005:0049EFF8       aDBombL
 0005:0049F004       aDBombS_1
 0005:0049F2E0       Boot__initMessage
 0005:0049F428       aInitloadMsbt
 0005:0049F460       Boot__term
 0005:0049F478       jpt_49F470
 0005:0049F8F8       def_49F470
 0005:0049F9F4       Boot____deallocating
 0005:0049FB9C       nullsub_1035
 0005:004A0900       Prim__enableCull
 0005:004A0930       Prim__setProjMtx
 0005:004A09BC       Prim__setViewMtx
 0005:004A0AFC       Prim__setVtxAttr
 0005:004A0FA0       Prim__drawElemCore
 0005:004A1060       Prim__disableTexAll
 0005:004A10AC       Prim__setCombVtxClr
 0005:004A10F0       Prim__setupCmnShbin
 0005:004A1190       Prim__enableAlphaTest
 0005:004A1234       Prim__disableDepthTest
 0005:004A125C       Prim__disable2dParallax
 0005:004A1284       Prim__setProj2dParallax
 0005:004A136C       Prim__disableStencilTest
 0005:004A1394       Prim__setFrameBufferByGL
 0005:004A1574       Prim__setViewportScissor
 0005:004A16C0       Prim__setVtxAttrConstTex
 0005:004A1724       Prim__setCombTex0ModVtxClr
 0005:004A1768       Prim__setVtxAttrConstClrRaw
 0005:004A17CC       Prim__term
 0005:004A17F0       nullsub_1087
 0005:004A18F0       PrimVtxBuf__end
 0005:004A1918       Prim__drawAry
 0005:004A1948       Prim__prepare
 0005:004A1E38       nullsub_343
 0005:004A1E3C       nullsub_1088
 0005:004A1E40       Prim__setTexMtx
 0005:004A1E7C       Prim__setTexRes
 0005:004A1F14       Prim__setWldMtx
 0005:004A1F50       Save__saveFormat
 0005:004A1FC4       Save__getErrorCode
 0005:004A1FF4       Save__saveOptionData
 0005:004A2054       Save__exec
 0005:004A214C       Save__entry
 0005:004A21A8       Save__create
 0005:004A2204       Save__destroy
 0005:004A2238       Task__start
 0005:004A2244       Task__term
 0005:004A2260       Task____deallocating
 0005:004A2B50       nullsub_789
 0005:004A2BF0       j_operator_delete__237
 0005:004A2BF4       nullsub_790
 0005:004A37F0       jpt_4A37E8
 0005:004A3DAC       def_4A37E8
 0005:004A4660       j_operator_delete__238
 0005:004A4664       nullsub_791
 0005:004A5F6C       nullsub_792
 0005:004A5F84       nullsub_793
 0005:004A5FD4       jpt_4A5FCC
 0005:004A6134       def_4A5FCC
 0005:004A73CC       j_operator_delete__239
 0005:004A73D0       nullsub_794
 0005:004A73D4       adsl__gfx__AnimBinding__Evaluate
 0005:004A7A2C       adsl__gfx__AnimBinding__AnimBinding
 0005:004A7B44       adsl__gfx__VertexLight__Initialize
 0005:004A7B98       adsl__gfx__VertexLight__UpdateDirection
 0005:004A7C6C       adsl__gfx__VertexLight__CreateOriginalValue
 0005:004A7D7C       adsl__gfx__VertexLight__GetMemorySizeInternal
 0005:004A7E74       adsl__gfx__VertexLight__Accept
 0005:004A7EC8       adsl__gfx__VertexLight__Create
 0005:004A80EC       adsl__gfx__VertexLight__VertexLight
 0005:004A8438       adsl__gfx_____Light__Initialize
 0005:004A848C       adsl__gfx_____Light__CreateOriginalValue
 0005:004A8574       adsl__gfx_____Light__GetMemorySizeInternal
 0005:004A866C       adsl__gfx__AmbientLight__Accept
 0005:004A86C0       adsl__gfx__AmbientLight__Create
 0005:004A88D0       adsl__gfx__AmbientLight__AmbientLight
 0005:004A8C1C       adsl__gfx__MeshRenderer__RenderMesh
 0005:004A8CD0       adsl__gfx__MeshRenderer__SetMatrixPalette
 0005:004A8E60       adsl__gfx__MeshRenderer__RenderSeparateDataShape
 0005:004A9014       adsl__gfx__MeshRenderer__Create
 0005:004A9054       nullsub_846
 0005:004A9058       nullsub_847
 0005:004A9090       adsl__gfx__SceneContext__Builder__Create
 0005:004AA3DC       adsl__gfx__SceneContext__SceneContext
 0005:004AAAA0       adsl__gfx__SceneUpdater__SubmitView
 0005:004AAAE4       adsl__gfx__SceneUpdater__SetDepthSortMode
 0005:004AAAEC       adsl__gfx__SceneUpdater__SceneUpdater
 0005:004AACD8       nullsub_848
 0005:004AACDC       nullsub_849
 0005:004AACE0       adsl__gfx__AnimEvaluator__ChangeAnim
 0005:004AAEF4       adsl__gfx__AnimEvaluator__Initialize
 0005:004AB378       adsl__gfx__AnimEvaluator__UpdateCache
 0005:004AB37C       adsl__gfx__AnimEvaluator__UpdateCacheNonVirtual
 0005:004AB4C4       adsl__gfx__AnimEvaluator__SetCacheBufferPointers
 0005:004AB550       adsl__gfx__AnimEvaluator__GetCacheBufferSizeNeeded
 0005:004AB680       adsl__gfx__AnimEvaluator__AnimEvaluator
 0005:004AB92C       adsl__gfx__FragmentLight__Initialize
 0005:004AB980       adsl__gfx__FragmentLight__UpdateDirection
 0005:004ABA58       adsl__gfx__FragmentLight__CreateOriginalValue
 0005:004ABBE4       adsl__gfx__FragmentLight__GetMemorySizeInternal
 0005:004ABCDC       adsl__gfx__FragmentLight__DestroyResFragmentLight
 0005:004ABD8C       adsl__gfx__FragmentLight__Accept
 0005:004ABDE0       adsl__gfx__FragmentLight__Create
 0005:004ABEB4       adsl__gfx__FragmentLight__FragmentLight
 0005:004AC1CC       adsl__gfx__IRenderTarget__CreateOffScreenBuffer
 0005:004AC2E4       adsl__gfx__RenderContext__ResetState
 0005:004AC598       adsl__gfx__RenderContext__MaterialHash__ResetMaterialHash
 0005:004AC624       adsl__gfx__RenderContext__ActivateContext
 0005:004AC724       adsl__gfx__RenderContext__RenderPrimitive
 0005:004AC814       adsl__gfx__RenderContext__SetCameraMatrix
 0005:004AC8F8       adsl__gfx__RenderContext__SetRenderTarget
 0005:004AD6C4       adsl__gfx__RenderContext__SetModelMatrixForModel
 0005:004AD7B0       adsl__gfx__RenderContext__ActivateVertexAttribute
 0005:004ADA4C       adsl__gfx__RenderContext__SetModelMatrixForSkeletalModel
 0005:004ADB88       adsl__gfx__RenderContext__Builder__Create
 0005:004AE130       adsl__gfx__RenderContext__RenderContext
 0005:004AE25C       adsl__gfx__ShaderProgram__ActivateDescription
 0005:004AE420       adsl__gfx__ShaderProgram__ShaderProgram
 0005:004AE4A4       nullsub_850
 0005:004AE4A8       nullsub_851
 0005:004AE4AC       adsl__gfx__SkeletalModel__Initialize
 0005:004AE500       adsl__gfx__SkeletalModel__CreateSkeletalAnimGroup
 0005:004AE900       adsl__gfx__SkeletalModel__Builder__Create
 0005:004AF00C       adsl__gfx__SkeletalModel__SkeletalModel
 0005:004AF690       adsl__gfx__TransformNode__Initialize
 0005:004AF6C8       adsl__gfx__TransformNode__DynamicBuilder__Create
 0005:004AF728       adsl__gfx__TransformNode__CreateCallbacks
 0005:004AF874       adsl__gfx__TransformNode__UpdateDirection
 0005:004AF878       adsl__gfx__TransformNode__UpdateTransform
 0005:004AFE44       adsl__gfx__TransformNode__InheritTraversalResults
 0005:004AFEC4       adsl__gfx__TransformNode__GetMemorySizeForInitialize
 0005:004B0068       adsl__gfx__TransformNode__InvalidateInverseWorldMatrix
 0005:004B0074       adsl__gfx__TransformNode__Accept
 0005:004B00C8       adsl__gfx__TransformNode__Create
 0005:004B028C       adsl__gfx__TransformNode__TransformNode
 0005:004B08CC       adsl__gfx__GraphicsDevice__ActivateLookupTable
 0005:004B0960       adsl__gfx__GraphicsDevice__InvalidateLookupTable
 0005:004B0994       adsl__gfx__GraphicsDevice__InvalidateAllLookupTables
 0005:004B09BC       adsl__gfx__GraphicsDevice__ActivateFragmentLightPosition
 0005:004B0AE8       adsl__gfx__SceneTraverser__VisitLight
 0005:004B0B48       adsl__gfx__SceneTraverser__VisitCamera
 0005:004B0DD0       adsl__gfx__SceneTraverser__VisitSceneNode
 0005:004B1434       adsl__gfx__SceneTraverser__VisitTransformNode
 0005:004B1450       adsl__gfx__SceneTraverser__VisitUserRenderNode
 0005:004B1570       GfxScnSys__traverseScnRoot
 0005:004B15B0       adsl__gfx__SceneTraverser__Begin
 0005:004B1610       adsl__gfx__SceneTraverser__Builder__Create
 0005:004B1794       nullsub_852
 0005:004B1798       adsl__gfx__SceneTraverser__SceneTraverser
 0005:004B179C       adsl__gfx__OffScreenBuffer__OffScreenBuffer
 0005:004B18EC       nullsub_228
 0005:004B18F0       nullsub_229
 0005:004B18F4       adsl__gfx__SkeletonUpdater__UpdateView
 0005:004B3174       jpt_4B316C
 0005:004B3210       def_4B316C
 0005:004B34B8       adsl__gfx__SceneEnvironment__Reset
 0005:004B3554       adsl__gfx__SceneEnvironment__SceneEnvironment
 0005:004B37AC       adsl__gfx__SceneInitializer__VisitLight
 0005:004B37B0       adsl__gfx__SceneInitializer__VisitModel
 0005:004B37F8       adsl__gfx__SceneInitializer__VisitCamera
 0005:004B37FC       adsl__gfx__SceneInitializer__VisitSceneNode
 0005:004B3800       adsl__gfx__SceneInitializer__VisitParticleSet
 0005:004B3804       adsl__gfx__SceneInitializer__VisitVertexLight
 0005:004B3808       adsl__gfx__SceneInitializer__VisitAmbientLight
 0005:004B380C       adsl__gfx__SceneInitializer__VisitSkeletalModel
 0005:004B3850       adsl__gfx__SceneInitializer__VisitTransformNode
 0005:004B3854       adsl__gfx__SceneInitializer__VisitHemiSphereLight
 0005:004B3858       adsl__gfx__SceneInitializer__VisitParticleEmitter
 0005:004B386C       adsl__gfx__SceneInitializer__Builder__Create
 0005:004B38B8       adsl__gfx__SceneInitializer__VisitFog
 0005:004B390C       adsl__gfx__SceneInitializer__SceneInitializer
 0005:004B3960       adsl__gfx__ShaderBinaryInfo__SafeBuffer__Write
 0005:004B39B0       adsl__gfx__ShaderBinaryInfo__AnalyzeBinary
 0005:004B3A60       adsl__gfx__StandardSkeleton__WorldMatrixPose
 0005:004B3A68       adsl__gfx__StandardSkeleton__LocalOriginalPose
 0005:004B3A78       adsl__gfx__StandardSkeleton__LocalTransformPose
 0005:004B3A80       adsl__gfx__StandardSkeleton__WorldTransformPose
 0005:004B3A88       adsl__gfx__StandardSkeleton__Create
 0005:004B4200       adsl__gfx__StandardSkeleton__StandardSkeleton
 0005:004B438C       adsl__gfx__BaseAnimEvaluator__ResetMember
 0005:004B4404       adsl__gfx__BaseAnimEvaluator__UpdateFrame
 0005:004B4458       nullsub_1089
 0005:004B445C       adsl__gfx__BaseAnimEvaluator__Release
 0005:004B4468       adsl__gfx__BaseAnimEvaluator__TryBind
 0005:004B47B0       jpt_4B47A8
 0005:004B4800       def_4B47A8
 0005:004B495C       adsl__gfx__MaterialActivator__Create
 0005:004B4994       adsl__gfx__MaterialActivator__Activate
 0005:004B521C       jpt_4B5214
 0005:004B5298       def_4B5214
 0005:004B56BC       adsl__gfx__MaterialActivator__MaterialActivator
 0005:004B56C0       adsl__gfx__RotateViewUpdater__GetResource
 0005:004B56C8       adsl__gfx__RotateViewUpdater__Create
 0005:004B57CC       adsl__gfx__RotateViewUpdater__Update
 0005:004B5FE0       adsl__gfx__RotateViewUpdater__RotateViewUpdater
 0005:004B6368       adsl__gfx__CalculatedTransform__SetTransform
 0005:004B65A0       adsl__gfx__CalculatedTransform__UpdateRotateFlags
 0005:004B66A4       adsl__gfx__CalculatedTransform__UpdateCompositeFlags
 0005:004B66D8       adsl__gfx__CalculatedTransform__UpdateTranslateFlags
 0005:004B6734       adsl__gfx__CalculatedTransform__NormalizeRotateMatrix
 0005:004B686C       adsl__gfx__CalculatedTransform__SetRotateAndTranslate
 0005:004B6A94       adsl__gfx__CalculatedTransform__QuaternionToRotateMatrix
 0005:004B6FCC       adsl__gfx__AimTargetViewUpdater__GetResource
 0005:004B70A4       adsl__gfx__AimTargetViewUpdater__Create
 0005:004B70F0       adsl__gfx__AimTargetViewUpdater__Update
 0005:004B73F4       adsl__gfx__AimTargetViewUpdater__AnimTargetViewUpdater
 0005:004B7444       adsl__gfx__AnimBlendOpTransform__AnimBlendOpTransform
 0005:004B7850       adsl__gfx__TransformAnimEvaluator__ChangeAnim
 0005:004B7908       adsl__gfx__TransformAnimEvaluator__UpdateCache
 0005:004B7B6C       adsl__gfx__TransformAnimEvaluator__ResetNoAnimMember
 0005:004B7D84       adsl__gfx__TransformAnimEvaluator__Builder__Create
 0005:004B8394       adsl__gfx__TransformAnimEvaluator__TryBind
 0005:004B85BC       adsl__gfx__LookAtTargetViewUpdater__Create
 0005:004B9B38       jpt_4B9B30
 0005:004B9C34       def_4B9B30
 0005:004BA454       j_operator_delete__240
 0005:004BA458       nullsub_239
 0005:004BAF58       adsl__gfx__PerspectiveProjectionUpdater__Create
 0005:004BB31C       j_operator_delete__241
 0005:004BB320       nullsub_240
 0005:004BB324       j_operator_delete__242
 0005:004BB328       nullsub_241
 0005:004BB32C       j_operator_delete__243
 0005:004BB330       adsl__gfx__TransformAnimBlendOpAccScaleQuat___TransformAnimBlendOpAccScaleQuat
 0005:004BB334       adsl__gfx__Fog__Initialize
 0005:004BB4F4       adsl__gfx__Fog__CreateAnimGroup
 0005:004BB9CC       adsl__gfx__Fog__GetMemorySizeInternal
 0005:004BBADC       adsl__gfx__Fog__Accept
 0005:004BBB30       adsl__gfx__Fog__Create
 0005:004BC2E8       adsl__gfx__res__ResTexture__Setup
 0005:004BC390       adsl__gfx__res__ResTexture__Cleanup
 0005:004BC530       adsl__gfx__res__ResMaterial__SetupShader
 0005:004BC8EC       jpt_4BC8E4
 0005:004BC924       def_4BC8E4
 0005:004BD0DC       adsl__gfx__res__ResPrimitive__SetupDrawCommand
 0005:004BD174       adsl__gfx__res__ResPrimitive__Setup
 0005:004BDC60       adsl__gfx__res__ResGraphicsFile__Setup
 0005:004BE0F8       adsl__gfx__res__ResGraphicsFile__Cleanup
 0005:004BE588       adsl__gfx__res__ResImageTexture__DynamicBuilder__Create
 0005:004BE808       adsl__gfx__res__ResImageTexture__DynamicDestroy
 0005:004BED3C       adsl__gfx__res__ResShadowTexture__DynamicBuilder__Create
 0005:004BEEF8       adsl__gfx__res__ResShadowTexture__DynamicDestroy
 0005:004BEF8C       adsl__gfx__res__ResTextureMapper__SetTexture
 0005:004BF6CC       adsl__gfx__res__ResVertexAttribute__Setup
 0005:004BF7E8       adsl__gfx__res__ResCubeTexture_Setup
 0005:004BFDA0       adsl__gfx__res__ResImageTexture_Setup
 0005:004C0834       adsl__gfx__res__ResReferenceTexture_Setup
 0005:004C100C       nullsub_243
 0005:004C1010       adsl__gfx__res__ResSeparateDataShape_Setup
 0005:004C110C       adsl__gfx__res__ResShaderProgramDescription__Setup
 0005:004C17E0       adsl__gfx__res__ResMesh__Setup
 0005:004C1A98       jpt_4C1A90
 0005:004C1B04       def_4C1A90
 0005:004C1B20       jpt_4C1B18
 0005:004C1B8C       def_4C1B18
 0005:004C1C74       adsl__gfx__res__ResMesh__Cleanup
 0005:004C1EA0       adsl__gfx__res__ResModel__Setup
 0005:004C2064       adsl__gfx__res__ResModel__Cleanup
 0005:004C21A0       adsl__gfx__res__ResShape__Setup
 0005:004C2270       adsl__gfx__res__ResShader__Setup
 0005:004C2468       adsl__gfx__Light__CreateAnimGroup
 0005:004C25D0       jpt_4C25C8
 0005:004C2608       def_4C25C8
 0005:004C26B8       adsl__gfx__Light__DestroyOriginalValue
 0005:004C26E0       adsl__gfx__Light__Accept
 0005:004C2A2C       adsl__gfx__Model__Initialize
 0005:004C3444       jpt_4C343C
 0005:004C3514       def_4C343C
 0005:004C365C       adsl__gfx__Model__CreateAnimGroups
 0005:004C3BD0       adsl__gfx__Model__GetMemorySizeForInitialize
 0005:004C4CB4       adsl__gfx__Camera__Initialize
 0005:004C503C       adsl__gfx__Camera__DynamicBuilder__Create
 0005:004C541C       adsl__gfx__Camera__SetPerspective
 0005:004C5468       adsl__gfx__Camera__CreateAnimGroup
 0005:004C56EC       adsl__gfx__Camera__SetUpwardVector
 0005:004C5728       adsl__gfx__Camera__DestroyResCamera
 0005:004C57D8       adsl__gfx__Camera__SetTargetPosition
 0005:004C5864       adsl__gfx__Camera__UpdateCameraMatrix
 0005:004C5CD0       adsl__gfx__Camera__GetMemorySizeInternal
 0005:004C5F28       adsl__gfx__Camera__Accept
 0005:004C5F7C       adsl__gfx__Camera__Create
 0005:004C668C       adsl__gfx__Camera__SetFar
 0005:004C66B4       adsl__gfx__Camera__SetNear
 0005:004C66DC       adsl__gfx__Camera__SetOrtho
 0005:004C6758       adsl__gfx__Camera__Camera
 0005:004C7330       jpt_4C7328
 0005:004C7364       def_4C7328
 0005:004C7764       jpt_4C775C
 0005:004C780C       def_4C775C
 0005:004C78F8       jpt_4C78F0
 0005:004C792C       def_4C78F0
 0005:004C8AC8       adsl__gfx__internal__adslgfxClear
 0005:004C915C       adsl__gfx__internal__MaterialState__ActivateShaderParameter
 0005:004C98C4       jpt_4C98BC
 0005:004C9C34       def_4C98BC
 0005:004CA320       adsl__gfx__internal__ClearVertexAttribute
 0005:004CA388       adsl__gfx__internal__SetupDrawIndexStreamCommand
 0005:004CA590       adsl__gfx__internal__SetupDeactivateVertexAttributeCommand
 0005:004CA79C       adsl__gfx__internal__CalcSetupActivateVertexAttributeCommandSize
 0005:004CA810       adsl__gfx__internal__CalcSetupDeactivateVertexAttributeCommandSize
 0005:004CA8B4       adsl__gfx__AnimGroup__Initialize
 0005:004CADFC       jpt_4CADF4
 0005:004CAE8C       def_4CADF4
 0005:004CB694       adsl__gfx__AnimGroup__GetMemorySizeForInitialize
 0005:004CB738       adsl__gfx__AnimGroup__AnimGroup
 0005:004CB9AC       adsl__gfx__SceneNode__Initialize
 0005:004CC180       nullsub_244
 0005:004CCA44       j_operator_delete__244
 0005:004CCA48       nullsub_245
 0005:004CCA4C       j_operator_delete__245
 0005:004CCA50       nullsub_246
 0005:004CCA54       j_operator_delete__246
 0005:004CCA58       nullsub_247
 0005:004CCA5C       adsl__anim__PlayPolicy_Loop
 0005:004CCAC8       j_operator_delete__247
 0005:004CCACC       nullsub_248
 0005:004CCAD0       j_operator_delete__248
 0005:004CCAD4       nullsub_249
 0005:004CCAD8       j_operator_delete__249
 0005:004CCADC       nullsub_250
 0005:004CCAE0       j_operator_delete__250
 0005:004CCAE4       nullsub_251
 0005:004CCAE8       adsl__anim__PlayPolicy_Onetime
 0005:004CCB30       j_operator_delete__251
 0005:004CCB34       nullsub_252
 0005:004CCC00       adsl__anim__res__CalcFloatCurve
 0005:004CCE0C       adsl__anim__res__CalcRotateCurve
 0005:004CD160       adsl__anim__res__CalcVector3Curve
 0005:004CD2A8       adsl__anim__res__ResBakedTransformAnim__ApplyBakedFlags
 0005:004CD2D8       adsl__anim__res___GLOBAL__N__21_anim_ResAnimCurve_cpp_fad3d968__NormalizeFrame_
 0005:004CD5A4       j_operator_delete__252
 0005:004CD5A8       nullsub_253
 0005:004CD650       j_operator_delete__253
 0005:004CD654       nullsub_569
 0005:004CDD38       jpt_4CDD30
 0005:004CDE30       def_4CDD30
 0005:004CF1F0       jpt_4CF1E8
 0005:004CFB10       def_4CF1E8
 0005:004CFF90       j_operator_delete__254
 0005:004CFF94       nullsub_697
 0005:004CFFBC       nullsub_698
 0005:004D01C8       j_operator_delete__255
 0005:004D01E4       nullsub_716
 0005:004D050C       j_operator_delete__256
 0005:004D0510       nullsub_699
 0005:004D0810       j_operator_delete__257
 0005:004D0814       nullsub_700
 0005:004D0CE8       j_operator_delete__258
 0005:004D0CEC       nullsub_701
 0005:004D117C       j_operator_delete__259
 0005:004D1180       nullsub_702
 0005:004D120C       j_operator_delete__260
 0005:004D1210       nullsub_703
 0005:004D1214       nullsub_717
 0005:004D1218       nullsub_704
 0005:004D121C       nullsub_718
 0005:004D1220       nullsub_719
 0005:004D1224       j_operator_delete__261
 0005:004D1228       nullsub_720
 0005:004D1A78       jpt_4D1A70
 0005:004D1BCC       def_4D1A70
 0005:004D1D3C       Badge__ObjBtnBase__ObjBtnBase
 0005:004D1E7C       Badge__ObjBtnBase____deallocating
 0005:004D2530       jpt_4D2528
 0005:004D2604       def_4D2528
 0005:004D28E4       Badge__ObjConfirm__ObjConfirm
 0005:004D2CB8       Badge__ObjConfirm____deallocating
 0005:004D2FE8       nullsub_965
 0005:004D3174       nullsub_966
 0005:004D4118       nullsub_967
 0005:004D4850       jpt_4D4848
 0005:004D48B0       def_4D4848
 0005:004D4AE8       nullsub_968
 0005:004D4D5C       Badge__ObjActMeter__ObjActMeter
 0005:004D4FB0       Badge__ObjActMeter____deallocating
 0005:004D5B34       jpt_4D5B2C
 0005:004D5C30       def_4D5B2C
 0005:004D658C       aRomMobjatkMobj
 0005:004D6AFC       jpt_4D6AF4
 0005:004D7200       def_4D6AF4
 0005:004D761C       Badge__ObjAtkExpImg__ObkAtkExpImg
 0005:004D7978       Badge__ObjAtkExpImg____deallocating
 0005:004D7DD8       Badge__ObjAtkExpMsg__ObjAtkExpMsg
 0005:004D7EB4       Badge__ObjAtkExpMsg____deallocating
 0005:004D8474       nullsub_969
 0005:004D84B8       nullsub_970
 0005:004D84BC       Badge__ObjBtnOverlay__ObjBtnOverlay
 0005:004D8528       Badge__ObjBtnOverlay____deallocating
 0005:004D8744       nullsub_254
 0005:004D898C       nullsub_255
 0005:004D9290       jpt_4D9288
 0005:004D9710       def_4D9288
 0005:004DA474       Badge__ObjBadgeEffMsg__ObjBadgeEffMsg
 0005:004DA4E0       Badge__ObjBadgeEffMsg____deallocating
 0005:004DB024       Badge__ObjBadgeEffPopup__ObjBadgeEffPopup
 0005:004DB0B8       Badge__ObjBadgeEffPopup____deallocating
 0005:004DB5F4       Badge__ObjECDetailWindow__ObjECDetailWindow
 0005:004DB8E4       Badge__ObjECDetailWindow____deallocating
 0005:004DBC4C       nullsub_971
 0005:004DBE0C       nullsub_972
 0005:004DBE10       Badge__ObjBg__ObjBg
 0005:004DBF14       Badge__ObjBg____deallocating
 0005:004DC2E8       jpt_4DC2E0
 0005:004DC320       def_4DC2E0
 0005:004DC470       nullsub_256
 0005:004DC608       nullsub_1090
 0005:004DC60C       nullsub_973
 0005:004DC630       Badge__ObjBase__ObjBase
 0005:004DC6C8       Badge__ObjBase____deallocating
 0005:004DC868       j_nullsub_18_13
 0005:004DCC10       nullsub_1091
 0005:004DDF78       nullsub_1092
 0005:004DE2E8       nullsub_1093
 0005:004DE9CC       nullsub_1094
 0005:004DFA3C       jpt_4DFA34
 0005:004DFAFC       def_4DFA34
 0005:004E03E8       Badge__DfxHandle__DfxHandle
 0005:004E0418       Badge__DfxHandle____deallocating
 0005:004E1434       Badge__ObjECList__ListWnd____deallocating
 0005:004E14C4       Badge__ObjECList__ObjECList
 0005:004E1704       Badge__ObjECList____deallocating
 0005:004E1F84       BtlFS__FileUnit__FileUnit
 0005:004E2030       BtlFS__FileUnit____deallocating
 0005:004E2264       BtlFS__FReadUnit__FReadUnit
 0005:004E2E94       jpt_4E2E8C
 0005:004E2F04       def_4E2E8C
 0005:004E2FCC       def_4E2FC8
 0005:004E2FD0       jpt_4E2FC8
 0005:004E3F78       j_operator_delete__262
 0005:004E3F7C       nullsub_987
 0005:004E4314       jpt_4E430C
 0005:004E43C0       jpt_4E43B8
 0005:004E4410       def_4E430C
 0005:004E4420       jpt_4E4418
 0005:004E4450       def_4E4418
 0005:004E4460       jpt_4E4458
 0005:004E449C       def_4E4458
 0005:004E46FC       j_operator_delete__263
 0005:004E4700       nullsub_988
 0005:004E4E18       j_operator_delete__264
 0005:004E4E1C       nullsub_989
 0005:004E4E20       j_operator_delete__265
 0005:004E4E24       nullsub_990
 0005:004E5DE4       BtlPc____deallocating
 0005:004E5F18       CtrFS__cancel
 0005:004E6054       CtrFS____deallocating
 0005:004E60A0       CtrTp__CtrTp
 0005:004E60FC       MoveC__moveCosSin
 0005:004E625C       MoveC__func
 0005:004E63E0       MoveC__stop
 0005:004E64EC       MoveC__wait
 0005:004E6534       MoveC__moveCos
 0005:004E665C       MoveC__moveFrm
 0005:004E6784       MoveC__moveSin
 0005:004E6E78       jpt_4E6E70
 0005:004E71F4       def_4E6E70
 0005:004E733C       jpt_4E7334
 0005:004E76D0       def_4E7334
 0005:004E7C50       rsLib__ColorBlink__init
 0005:004E7C68       rsLib__ColorBlink__update
 0005:004E7C9C       rsLib__ColorBlink__ColorBlink
 0005:004E83B0       j_operator_delete__266
 0005:004E83B4       nullsub_520
 0005:004E84FC       j_operator_delete__267
 0005:004E8500       nullsub_257
 0005:004E8640       j_operator_delete__268
 0005:004E8644       nullsub_258
 0005:004E8658       j_operator_delete__269
 0005:004E865C       nullsub_521
 0005:004E91E4       jpt_4E91DC
 0005:004E9210       def_4E91DC
 0005:004E9228       jpt_4E9220
 0005:004E925C       def_4E9220
 0005:004E9D64       j_operator_delete__270
 0005:004E9D68       nullsub_522
 0005:004EA288       nullsub_523
 0005:004EA28C       nullsub_524
 0005:004EAB64       nullsub_525
 0005:004EAB68       nullsub_526
 0005:004EADCC       nullsub_527
 0005:004EAE88       jpt_4EAE80
 0005:004EB0E8       def_4EAE80
 0005:004EB310       j_operator_delete__271
 0005:004EB314       nullsub_528
 0005:004EB5C8       j_operator_delete__272
 0005:004EB5CC       nullsub_529
 0005:004EB64C       nullsub_530
 0005:004EB674       j_operator_delete__273
 0005:004EB678       nullsub_531
 0005:004EC594       j_operator_delete__274
 0005:004EC598       nullsub_532
 0005:004EC884       j_operator_delete__275
 0005:004EC888       nullsub_1095
 0005:004EC9B0       j_operator_delete__276
 0005:004EC9B4       nullsub_533
 0005:004ECF70       j_operator_delete__277
 0005:004ECF74       nullsub_1096
 0005:004ED0D0       j_operator_delete__278
 0005:004ED0D4       nullsub_1097
 0005:004ED43C       j_operator_delete__279
 0005:004ED440       nullsub_534
 0005:004ED468       nullsub_535
 0005:004ED6A4       jpt_4ED69C
 0005:004EDA18       def_4ED69C
 0005:004EE76C       jpt_4EE764
 0005:004EE840       def_4EE764
 0005:004EE93C       jpt_4EE934
 0005:004EEA08       def_4EE934
 0005:004EEE70       nullsub_536
 0005:004EEE74       j_operator_delete__280
 0005:004EEE78       nullsub_537
 0005:004F0068       jpt_4F0060
 0005:004F00E0       def_4F0060
 0005:004F0B28       j_operator_delete__281
 0005:004F0B2C       nullsub_538
 0005:004F0BDC       Backup__copySaveData
 0005:004F0C90       Backup__getSaveData1
 0005:004F0CC8       Backup__isBusyFormat
 0005:004F0D10       Backup__isBusyReading
 0005:004F0DB0       Backup__isBusyWriting
 0005:004F0FCC       Backup__readSaveData2
 0005:004F11E8       Backup__buildPrizeWork
 0005:004F1260       Backup__deleteSaveData
 0005:004F1328       Backup__writeSaveData0
 0005:004F13E8       Backup__setMsgPlayParam
 0005:004F1438       Backup__destroyPrizeWork
 0005:004F14A0       Backup__writeSaveDataPartial
 0005:004F1674       Backup__init
 0005:004F16A0       Backup__term
 0005:004F16C4       Backup__mount
 0005:004F16EC       Backup__format
 0005:004F1748       Backup__addCoin
 0005:004F1774       Backup__addItem
 0005:004F17EC       nullsub_974
 0005:004F17F0       nullsub_975
 0005:004F183C       j_operator_delete__282
 0005:004F1840       nullsub_976
 0005:004F1E14       nullsub_991
 0005:004F1F94       jpt_4F1F8C
 0005:004F2084       def_4F1F8C
 0005:004F2090       jpt_4F2088
 0005:004F210C       def_4F2088
 0005:004F22B4       jpt_4F22AC
 0005:004F2308       def_4F22AC
 0005:004F2DE0       BtlEnc__TaskBattleEncount__TaskBattleEncount
 0005:004F3420       jpt_4F3418
 0005:004F3468       def_4F3418
 0005:004F3864       MemAlcB__MemAlcB
 0005:004F3AD4       jpt_4F3ACC
 0005:004F3AF8       def_4F3ACC
 0005:004F9AB4       jpt_4F9AAC
 0005:004F9B74       def_4F9AAC
 0005:004FA908       j_operator_delete__283
 0005:004FA90C       nullsub_995
 0005:004FC9F0       jpt_4FC9E8
 0005:004FCE0C       def_4FC9E8
 0005:004FD3B4       jpt_4FD3AC
 0005:004FD618       def_4FD3AC
 0005:0050018C       j_operator_delete__284
 0005:00500190       nullsub_997
 0005:00501C08       jpt_501C00
 0005:00501C94       def_501C00
 0005:00502D50       nullsub_800
 0005:005033DC       SndSys__term
 0005:00503C60       jpt_503C58
 0005:00503D54       def_503C58
 0005:00504188       jpt_504180
 0005:005041C0       def_504180
 0005:00504AD4       def_504AD0
 0005:00504AD8       jpt_504AD0
 0005:005055A0       jpt_505598
 0005:00505630       def_505598
 0005:005076A8       jpt_5076A0
 0005:005076EC       jpt_5076E4
 0005:00507714       jpt_50770C
 0005:00507770       def_5076A0
 0005:00508398       jpt_508390
 0005:00508564       def_508390
 0005:0050B5F0       aNose
 0005:0050B5F8       aRoot_0
 0005:0050C4E0       jpt_50C4D8
 0005:0050C514       def_50C4D8
 0005:0050E688       DfxSys__ApplyCamShake
 0005:0050E9C0       DfxSys__resetFrmParam
 0005:0050EA80       DfxSys__init
 0005:0050EB48       DfxSys__freeRes
 0005:0050EB80       DfxSys__entryRes
 0005:0050EC60       DfxSys__initParam
 0005:0050ED48       DfxSys__DfxSys
 0005:0050EDBC       DfxSys____deallocating
 0005:0050EF08       GameDB__GetItemMsg
 0005:0050EFA0       GameDB__GetUseItem
 0005:0050EFC4       GameDB__GetItemData
 0005:0050F020       GameDB__GetPcAtkData
 0005:0050F080       GameDB__GetBadgeEffect
 0005:0050F0A4       GameDB__GetBadgeIdList
 0005:0050F0C0       GameDB__GetBadgeIdPair
 0005:0050F100       GameDB__GetEquipIdList
 0005:0050F10C       GameDB__GetItemMsgCore
 0005:0050F11C       GameDB__GetPcAtkExpMsg
 0005:0050F174       GameDB__GetBadgeEffectId
 0005:0050F1A4       GameDB__GetBrosAtkIdList
 0005:0050F220       GameDB__GetUseItemIdList
 0005:0050F22C       GameDB__GetBadgeEffExpMsg
 0005:0050F28C       GameDB__GetRankUpBonusName
 0005:0050F2B8       GameDB__GetMiracleAtkIdList
 0005:0050F2D0       GameDB__GetRankUpBonusExpMsg
 0005:0050F308       GameDB__GetExpertChallengeMsgData
 0005:0050F318       GameDB__GetExpertChallengeMsgFile
 0005:0050F328       GameDB__GetBadge
 0005:0050F424       JobMan____deallocating
 0005:0050F4B0       MemAlc__free
 0005:0050F798       MemAlc__allocCore
 0005:0050F928       nullsub_829
 0005:0050F970       nullsub_830
 0005:0050FFD8       def_50FFD4
 0005:0050FFDC       jpt_50FFD4
 0005:005102E8       jpt_5102E0
 0005:005103D8       def_5102E0
 0005:005110BC       jpt_5110B4
 0005:00511134       def_5110B4
 0005:00512320       jpt_512318
 0005:005125E4       def_512318
 0005:00512678       def_512674
 0005:0051267C       jpt_512674
 0005:0051298C       nullsub_930
 0005:00512990       nullsub_931
 0005:005129C0       jpt_5129B8
 0005:00513060       def_5129B8
 0005:00513954       jpt_51394C
 0005:00513B94       def_51394C
 0005:0051973C       nullsub_932
 0005:00519D68       nullsub_933
 0005:0051AA2C       def_51AA28
 0005:0051AA30       jpt_51AA28
 0005:0051AAC4       def_51AAC0
 0005:0051AAC8       jpt_51AAC0
 0005:0051AED4       jpt_51AECC
 0005:0051AF00       jpt_51AEF8
 0005:0051AF8C       jpt_51AF84
 0005:0051AFFC       jpt_51AFF4
 0005:0051B08C       jpt_51B084
 0005:0051B0D8       jpt_51B0D0
 0005:0051B164       def_51AECC
 0005:0051C1FC       SndSys__setStartPoint
 0005:0051C20C       SndSys__startPrepared
 0005:0051C2FC       SndSys__clearReplayPoint
 0005:0051C300       SndSys__init
 0005:0051C3E4       SndSys__load
 0005:0051C77C       SndSys__stop
 0005:0051C830       SndSys__start
 0005:0051CC00       SndSys__remove
 0005:0051CC84       SndSys__setPan
 0005:0051CCCC       SndSys__prepare
 0005:0051CE34       SndSys__startSe
 0005:0051CEE8       SndSys__stopAll
 0005:0051D0E8       SndSys__getSeWork
 0005:0051D97C       nullsub_259
 0005:0051D980       nullsub_260
 0005:0051D984       nullsub_261
 0005:0051D988       nullsub_262
 0005:0051D98C       j_operator_delete__285
 0005:0051D990       nullsub_263
 0005:0051E688       nullsub_352
 0005:0051ECBC       AkmAtk4__HoleObj__HoleObj
 0005:0051F3F4       nullsub_395
 0005:0051F474       jpt_51F46C
 0005:0051F604       def_51F46C
 0005:0051FAE0       AkmAtk4__CmdStateIntro__CmdStateIntro
 0005:0051FB30       AkmAtk4__CmdStateIntro____deallocating
 0005:00520008       AkmAtk4__IntroInternal__Resource____deallocating
 0005:0052000C       nullsub_396
 0005:00520010       nullsub_397
 0005:00520014       AkmAtk4__EscapeInternal__MarioObj__StateHitHole__StateHitHole
 0005:005202F8       AkmAtk4__CmdStateEscape__StateHitHole____deallocating
 0005:005203A4       nullsub_398
 0005:00520594       AkmAtk4__CmdStateEscape__StateGameOver____deallocating
 0005:00520608       AkmAtk4__CmdStateEscape__StateHitHole__StateHitHole
 0005:005207F0       AkmAtk4__CmdStateEscape__StateGameOver__StateGameOver
 0005:0052095C       nullsub_399
 0005:00520DA4       nullsub_400
 0005:00521328       AkmAtk4__CmdStateEscape__StateMove____deallocating
 0005:0052132C       nullsub_401
 0005:00521398       AkmAtk4__CmdStateEscape____deallocating
 0005:00521E78       AkmAtk4__EscapeInternal__MarioObj__StateEscape____deallocating
 0005:00521F5C       AkmAtk4__EscapeInternal__MarioObj__StateHitBullet__StateHitBullet
 0005:0052207C       nullsub_402
 0005:0052212C       AkmAtk4__EscapeInternal__MarioObj__StateHitHole____deallocating
 0005:00522130       nullsub_403
 0005:00522558       AkmAtk4__EscapeInternal__MarioObj__StateHitBullet____deallocating
 0005:005228CC       AkmAtk4__EscapeInternal__AkkumuObj__StateIdle__StateIdle
 0005:005230A8       nullsub_264
 0005:00523164       AkmAtk4__EscapeInternal__AkkumuObj__StateIdle____deallocating
 0005:00523168       nullsub_265
 0005:00523D58       AkmAtk4__AkmAtk4Internal__AkmFall____deallocating
 0005:00523D5C       nullsub_404
 0005:00523D60       nullsub_405
 0005:00523ECC       AkmAtk4__CmdStateExitEnd__CmdStateExitEnd
 0005:00523EF4       AkmAtk4__CmdStateExitEnd____deallocating
 0005:005240B8       nullsub_406
 0005:0052453C       AkmAtk4__CmdStateLoopEnd__CmdStateLoopEnd
 0005:00524574       AkmAtk4__CmdStateLoopEnd____deallocating
 0005:00524C8C       nullsub_407
 0005:00525344       AkmAtk4__CmdStateMinigame__StateGame____deallocating
 0005:00525494       AkmAtk4__CmdStateMinigame__CmdStateMinigame
 0005:00526CCC       nullsub_408
 0005:00526EA0       AkmAtk4__CmdStateGameOverEnd__CmdStateGameOverEnd
 0005:00526EC8       AkmAtk4__CmdStateGameOverEnd____deallocating
 0005:005273EC       nullsub_409
 0005:00527A90       AkmAtk4__AkmAtk4Internal__AkmFall__AkmFall
 0005:00527C48       jpt_527C40
 0005:00527D28       def_527C40
 0005:005285C8       AkmAtk4__AtkCmd____deallocating
 0005:00528A7C       AkmAtk4__HoleObj____deallocating
 0005:00528B0C       j_operator_delete__286
 0005:00528B10       nullsub_992
 0005:00528B94       j_operator_delete__287
 0005:00528B98       nullsub_266
 0005:00529328       BtlMain__VSyncThread__VSyncThread
 0005:005293D4       BtlMain__VSyncThread____deallocating
 0005:0052A890       jpt_52A888
 0005:0052AE00       def_52A888
 0005:0052B43C       jpt_52B434
 0005:0052B498       def_52B434
 0005:0052B994       jpt_52B98C
 0005:0052B9EC       def_52B98C
 0005:0052C280       jpt_52C278
 0005:0052C2D8       jpt_52C2D0
 0005:0052C49C       def_52C2D0
 0005:0052C4D4       def_52C278
 0005:005301E8       BtlMain__BtlMain
 0005:00531508       BtlMain____deallocating
 0005:005325F0       j_operator_delete__288
 0005:005325F4       nullsub_267
 0005:005325F8       CtrFEnd__Signal
 0005:00532600       CtrFSEx__read
 0005:0053294C       CtrFSEx__term
 0005:00532A4C       CtrFSEx____deallocating
 0005:00532AA0       DfxUnit__setVisible
 0005:00532B54       DfxUnit__isExistChild
 0005:00532C04       DfxUnit__run
 0005:00533240       DfxUnit__init
 0005:00533330       DfxUnit__kill
 0005:0053335C       DfxUnit__setUp
 0005:005334D8       DfxUnit__DfxUnit
 0005:00533574       DfxUnit____deallocating
 0005:00533790       DreamFS___deallocating
 0005:005354C4       nullsub_1026
 0005:005354C8       nullsub_1027
 0005:005354D4       nullsub_1028
 0005:005354D8       nullsub_1029
 0005:005354DC       nullsub_1030
 0005:005354E0       nullsub_1031
 0005:005354E4       nullsub_1032
 0005:00535D74       nullsub_1033
 0005:00536BE4       j_operator_delete__289
 0005:00536BEC       nullsub_1034
 0005:00536F0C       j_CellAnime__draw
 0005:00536F90       FieldCA__FieldCA
 0005:0053708C       FieldFS__open
 0005:005370C4       FieldFS__FieldFS
 0005:00539994       jpt_53998C
 0005:00539E54       def_53998C
 0005:00539E98       jpt_539E90
 0005:0053A418       def_539E90
 0005:0053A73C       nullsub_934
 0005:0053A740       nullsub_935
 0005:0053B384       nullsub_936
 0005:0053B388       nullsub_937
 0005:0053B38C       nullsub_938
 0005:0053B390       nullsub_939
 0005:0053B828       nullsub_940
 0005:0053B834       nullsub_941
 0005:0053B838       nullsub_942
 0005:0053B83C       nullsub_943
 0005:0053B840       nullsub_944
 0005:0053BC34       nullsub_945
 0005:0053BC38       nullsub_946
 0005:0053BC9C       nullsub_947
 0005:0053BCA0       nullsub_948
 0005:0053BD7C       jpt_53BD74
 0005:0053BDA8       jpt_53BDA0
 0005:0053BE30       jpt_53BE28
 0005:0053BE9C       jpt_53BE94
 0005:0053BF28       jpt_53BF20
 0005:0053BF74       jpt_53BF6C
 0005:0053C054       def_53BD74
 0005:0053CBF4       def_53CBF0
 0005:0053CBF8       jpt_53CBF0
 0005:0053D2F0       jpt_53D2E8
 0005:0053D3D0       def_53D2E8
 0005:0053E5BC       nullsub_1099
 0005:0053E5C0       nullsub_1100
 0005:00540A34       FieldPC__FieldPC
 0005:00540BD4       FieldPC____deallocating
 0005:00542840       nullsub_831
 0005:005428D8       nullsub_832
 0005:005428DC       nullsub_833
 0005:005428E0       nullsub_834
 0005:005428F4       j_nullsub_824
 0005:005428F8       nullsub_835
 0005:00542A90       nullsub_836
 0005:00542A9C       def_542A98
 0005:00542AA0       jpt_542A98
 0005:00543014       jpt_54300C
 0005:00543118       def_54300C
 0005:00543230       jpt_543228
 0005:00543350       def_543228
 0005:00543CBC       MComSys__getPrevAreaNo
 0005:00543CD0       MComSys__setPrevAreaNo
 0005:00543CE0       MComSys__initPrevAreaNo
 0005:00544478       Message__func
 0005:00544B10       jpt_544B08
 0005:00544B44       jpt_544B3C
 0005:00545204       jpt_5451FC
 0005:0054596C       def_544B08
 0005:005459B4       Message__init
 0005:00545A80       Message__play
 0005:00545F54       jpt_545F4C
 0005:0054602C       def_545F4C
 0005:00546240       Message__term
 0005:0054626C       Message__close
 0005:005462C8       Message__setSE
 0005:005463E4       Message__setMsgDat
 0005:00546420       Message____deallocating
 0005:00546D5C       nullsub_900
 0005:00546DB0       RandSys__get
 0005:00546E38       nullsub_837
 0005:0054747C       nullsub_838
 0005:005474F4       j_nullsub_824_0
 0005:005477CC       nullsub_839
 0005:005477D0       j_operator_delete__290
 0005:005477D4       nullsub_840
 0005:005489EC       nullsub_350
 0005:00548C44       nullsub_268
 0005:0054C198       nullsub_269
 0005:00552994       nullsub_270
 0005:00552CE0       nullsub_271
 0005:00552F54       j_operator_delete__291
 0005:00552F58       nullsub_272
 0005:00553914       jpt_55390C
 0005:00554138       def_55390C
 0005:00557A5C       nullsub_273
 0005:00557EB8       jpt_557EB0
 0005:00558D18       def_557EB0
 0005:00558FA0       def_558F9C
 0005:00558FA4       jpt_558F9C
 0005:00559CEC       jpt_559CE4
 0005:00559DBC       def_559CE4
 0005:0055A6BC       nullsub_274
 0005:0055A7B4       nullsub_275
 0005:0055B418       nullsub_276
 0005:0055B6C8       nullsub_277
 0005:0055B710       thunk_FUN_00528b1c
 0005:0055B904       nullsub_278
 0005:0055CD18       jpt_55CD10
 0005:0055CD50       def_55CD10
 0005:0055E5FC       nullsub_279
 0005:0055F1B8       j_operator_delete__292
 0005:0055F1BC       nullsub_280
 0005:005608C4       nullsub_281
 0005:00561094       nullsub_282
 0005:005610AC       nullsub_283
 0005:00561590       nullsub_284
 0005:00562420       j_operator_delete__293
 0005:00562424       nullsub_285
 0005:00563D28       j_operator_delete__294
 0005:00563D2C       nullsub_286
 0005:00563D44       nullsub_287
 0005:00566C4C       nullsub_288
 0005:0056A1B4       jpt_56A1AC
 0005:0056A368       def_56A1AC
 0005:0056A9A0       nullsub_570
 0005:0056AC2C       j_operator_delete__295
 0005:0056AC30       nullsub_571
 0005:0056B1A8       j_operator_delete__296
 0005:0056B1AC       nullsub_572
 0005:0056B1B0       nullsub_573
 0005:0056B1DC       jpt_56B1D4
 0005:0056B250       def_56B1D4
 0005:0056B8DC       nullsub_574
 0005:0056B8E0       j_operator_delete__297
 0005:0056B8E4       nullsub_575
 0005:0056B8E8       nullsub_576
 0005:0056BBAC       j_operator_delete__298
 0005:0056BBB0       nullsub_577
 0005:0056BC90       jpt_56BC88
 0005:0056BD10       def_56BC88
 0005:0056C37C       nullsub_578
 0005:0056C5AC       j_operator_delete__299
 0005:0056C5B0       nullsub_579
 0005:0056C774       nullsub_580
 0005:0056C968       j_operator_delete__300
 0005:0056C96C       nullsub_581
 0005:0056CAF0       jpt_56CAE8
 0005:0056CD6C       def_56CAE8
 0005:0056CF94       nullsub_582
 0005:0056D10C       j_operator_delete__301
 0005:0056D110       nullsub_583
 0005:0056D3F8       j_operator_delete__302
 0005:0056D3FC       nullsub_584
 0005:0056D894       j_operator_delete__303
 0005:0056D898       nullsub_585
 0005:0056D89C       nullsub_586
 0005:0056D99C       j_operator_delete__304
 0005:0056D9A0       nullsub_587
 0005:0056EAFC       jpt_56EAF4
 0005:0056EF8C       def_56EAF4
 0005:00571624       j_operator_delete__305
 0005:00571628       nullsub_993
 0005:00571CE0       jpt_571CD8
 0005:005721B4       def_571CD8
 0005:00572C5C       CtrNwAlc__init
 0005:00572CF0       CtrNwAlc__CtrNwAlc
 0005:00572D0C       CtrNwAlc____deallocating
 0005:00572D38       DfxChild__DfxChild
 0005:0057436C       nullsub_289
 0005:00576DB4       jpt_576DAC
 0005:00576E3C       def_576DAC
 0005:00576F30       jpt_576F28
 0005:005770BC       jpt_5770B4
 0005:00577144       def_5770B4
 0005:00577234       jpt_57722C
 0005:005773F0       jpt_5773E8
 0005:005774C4       def_5773E8
 0005:0057754C       jpt_577544
 0005:005775F8       def_576F28
 0005:0057778C       jpt_577784
 0005:00577814       def_577784
 0005:00577908       jpt_577900
 0005:00577B1C       jpt_577B14
 0005:00577C38       def_577B14
 0005:00577CA4       jpt_577C9C
 0005:00577DD8       jpt_577DD0
 0005:00577EAC       def_577DD0
 0005:00577F34       jpt_577F2C
 0005:00577FE0       def_577900
 0005:00578174       jpt_57816C
 0005:00578208       def_57816C
 0005:00578314       jpt_57830C
 0005:005784A8       jpt_5784A0
 0005:0057853C       def_5784A0
 0005:00578634       jpt_57862C
 0005:00578808       jpt_578800
 0005:005788F0       def_578800
 0005:0057897C       jpt_578974
 0005:00578A34       def_57830C
 0005:00578BC8       jpt_578BC0
 0005:00578C64       def_578BC0
 0005:00578D5C       jpt_578D54
 0005:00578EEC       jpt_578EE4
 0005:00578F80       def_578EE4
 0005:00579078       jpt_579070
 0005:00579258       jpt_579250
 0005:0057934C       def_579250
 0005:005793D8       jpt_5793D0
 0005:00579490       def_578D54
 0005:0057BC64       def_57BC60
 0005:0057BC68       jpt_57BC60
 0005:0057DA5C       nullsub_290
 0005:0057EBE8       nullsub_291
 0005:0057EBEC       nullsub_292
 0005:0057EBF0       nullsub_293
 0005:005858F8       GXResCmn__deallocCmn
 0005:00585940       GXResCmn__term
 0005:005859A4       GXResCmn__GXResCmn
 0005:005859C8       j_operator_delete__306
 0005:005859CC       nullsub_294
 0005:00585A5C       GXResTex__initTPL
 0005:00585AD4       GXResTex__allocTPL
 0005:00585BAC       GXResTex__GXResTex
 0005:00585E70       GameMain__gameModeOld
 0005:00585F2C       GameMain__init
 0005:00586220       aEntrytask
 0005:005864EC       aEntrytask_0
 0005:005864FC       GameMain____deallocating
 0005:00586630       GameWork__equipBadge
 0005:00586648       GameWork__addPcStatus
 0005:005866B8       GameWork__getPlayTime
 0005:00586834       GameWork__onNewPuzzle
 0005:00586854       GameWork__ApplyPerCent
 0005:00586890       GameWork__getRealAreaNo
 0005:005868FC       GameWork__onNewColosseum
 0005:00586914       GameWork__putBadgeBitFlag
 0005:00586920       GameWork__existKoopaCastle
 0005:0058693C       GameWork__onClearColosseum
 0005:00586954       GameWork__onPlayablePuzzle
 0005:00586AF8       GameWork__putPuzzleClearTime
 0005:00586B04       GameWork__putMenuEquipBitFlag
 0005:00586C18       GameWork__putColosseumBestTurn
 0005:00586D84       GameWork__addCoin
 0005:00587088       GameWork__equipItem
 0005:0058759C       j_operator_delete__307
 0005:005875A0       nullsub_612
 0005:00587748       nullsub_614
 0005:00587DF8       nullsub_615
 0005:00588938       jpt_588930
 0005:005889A4       def_588930
 0005:005897B4       REDSPARK__Sd__RSSound__isPause
 0005:00589B4C       nullsub_373
 0005:00589F08       REDSPARK__Sd__RSSound__GetStreamPlayInfo
 0005:0058AE4C       nullsub_1101
 0005:0058B520       nullsub_1102
 0005:0058BB0C       REDSPARK__Sd__RSMemory____deallocating
 0005:0058BB88       nullsub_1103
 0005:0058C080       nullsub_1104
 0005:0058C1E4       nullsub_1105
 0005:0058CDCC       jpt_58CDC4
 0005:0058CE4C       def_58CDC4
 0005:0058D7B0       nullsub_1106
 0005:0058DAF8       nullsub_295
 0005:0058DD4C       j_operator_delete__308
 0005:0058DD50       nullsub_296
 0005:0058E294       UICommon__KeyRep__update
 0005:0058E578       j_nullsub_18_30
 0005:0059089C       aRomBdfxBdfxpri
 0005:005908D8       aRomBdfxBdfxpri_0
 0005:00590908       aRomBdfxBdfxcmd
 0005:00590944       aRomBdfxBdfxcmd_0
 0005:00590974       aRomBdfxBdfxtex_0
 0005:005909B0       aRomBdfxBdfxtex
 0005:005909DC       aRomBdfxBdfxres
 0005:00590A1C       aRomBdfxBdfxres_0
 0005:00590A50       aRomBdfxBdfxeca
 0005:00590A80       aRomBdfxBdfxall
 0005:00590D48       BtlMain__entryDfx
 0005:00591DAC       j_operator_delete__309
 0005:00591DB0       nullsub_297
 0005:0059283C       jpt_592834
 0005:005928B4       def_592834
 0005:00592EDC       CellAnime__term
 0005:00592F08       CellAnime__setFrm
 0005:00592F14       CellAnime__update
 0005:00593084       CellAnime__setPtnNo
 0005:005931A8       CellAnime__CellAnime
 0005:0059332C       CellAnime____deallocating
 0005:00593E64       nullsub_811
 0005:0059438C       CtrJobMan__jam
 0005:005943C0       CtrJobMan__isBusy
 0005:005943F4       CtrJobMan__enqueue
 0005:00594428       CtrJobMan__release
 0005:00594490       CtrModule__CtrModule
 0005:005944B0       CtrModule____deallocating
 0005:005945CC       CtrThread____deallocating
 0005:00594A08       jpt_594A00
 0005:00594A5C       def_594A00
 0005:00594ACC       nullsub_845
 0005:00594B6C       j_nullsub_810_2
 0005:00594C38       DfxBuffer__setBufNum
 0005:005958F0       DfxLineBB__DfxLineBB
 0005:00595954       DfxResAlc__init
 0005:005959BC       aDfxdev
 0005:005959C4       aDfxvram
 0005:005975B0       DreamUtil__ChkQuadSeg
 0005:00598788       DreamUtil__ChkTriSeg
 0005:00598B2C       nullsub_340
 0005:00598B30       nullsub_341
 0005:0059900C       jpt_599004
 0005:005991F0       def_599004
 0005:005992DC       jpt_5992D4
 0005:0059969C       j_Prim__term
 0005:005996A0       FieldFade__start
 0005:0059B13C       nullsub_1107
 0005:0059B224       nullsub_351
 0005:0059B674       FieldLoad__StartField
 0005:0059B728       FieldLoad__Read
 0005:0059B818       GfxScnSys__UpdateNode
 0005:0059BE7C       GfxScnSys__initScnRoot
 0005:0059BF54       GfxScnSys__termScnTree
 0005:0059BFCC       GfxScnSys__createCamera
 0005:0059C240       GfxScnSys__createScnObj
 0005:0059C3D8       GfxScnSys__createMatAnim
 0005:0059C484       GfxScnSys__createVisAnim
 0005:0059C598       GfxScnSys__updateScnRoot
 0005:0059C5B0       GfxScnSys__createTransAnim
 0005:0059C660       GfxScnSys__SetRenderContext
 0005:0059C830       GfxScnSys__calcStereoCamera
 0005:0059CA44       GfxScnSys__createSimpleCamera
 0005:0059CB18       GfxScnSys__init
 0005:0059CC94       GfxScnSys__term
 0005:0059CE14       GfxScnSys__GfxScnSys
 0005:0059CEC0       GfxShader__set
 0005:0059D0DC       aRomShaderDefsh
 0005:0059E574       jpt_59E56C
 0005:0059EE38       def_59E56C
 0005:0059F6D0       jpt_59F6C8
 0005:0059F700       def_59F6C8
 0005:0059FF84       MBootInfo__backCursor
 0005:0059FFE8       MBootInfo__setDefault
 0005:005A0060       MBootInfo__shopItemNew
 0005:005A0084       MBootInfo__menuEquipNew
 0005:005A00AC       MBootInfo__shopItemNew2
 0005:005A00D0       MBootInfo__shopLookItem
 0005:005A0124       MBootInfo__updateCursor
 0005:005A014C       MBootInfo__menuEquipNew2
 0005:005A0174       MBootInfo__menuLookEquip
 0005:005A01B8       MBootInfo__menuSndSysInit
 0005:005A0268       MBootInfo__menuSndSysTerm
 0005:005A02E8       MBootInfo__menuSndSysEntry
 0005:005A0370       MBootInfo__menuAlterPcParam
 0005:005A038C       MBootInfo__menuAlterGameWork
 0005:005A0448       MBootInfo__menuSndSysPlayBgm
 0005:005A0468       MBootInfo__menuSndSysRelease
 0005:005A04B8       MBootInfo__menuAlterPartyData
 0005:005A05A4       MBootInfo__menuRestoreGameWork
 0005:005A05F4       MBootInfo__menuRestorePartyData
 0005:005A0644       MBootInfo__get
 0005:005A0650       MBootInfo__setMode
 0005:005A0660       MBootInfo__setPage
 0005:005A0694       MBootInfo__getCursor
 0005:005A06AC       MBootInfo__setCursor
 0005:005A1218       MoveFBase__moveCosAbs
 0005:005A1274       MoveFBase__moveCosSin
 0005:005A12F8       MoveFBase__moveFrmAbs
 0005:005A1598       MoveFBase__moveSinAbs
 0005:005A16E4       MoveFBase__moveCosSinAbs
 0005:005A1740       UIListWindowPlus__update
 0005:005A176C       MoveFBase__func
 0005:005A1834       MoveFBase__move
 0005:005A186C       MoveFBase__stop
 0005:005A1924       MoveFBase__wait
 0005:005A1A48       MoveFBase__moveAbs
 0005:005A1B5C       MoveFBase__moveCos
 0005:005A1BAC       MoveFBase__moveFrm
 0005:005A1E10       MoveFBase__MoveFBase
 0005:005A1E50       j_operator_delete__310
 0005:005A1E54       nullsub_298
 0005:005A1E58       MoveVBase__moveCosAbs
 0005:005A1F58       MoveVBase__moveCosSin
 0005:005A1FC8       MoveVBase__moveFrmAbs
 0005:005A2138       MoveVBase__moveSinAbs
 0005:005A2308       MoveVBase__moveSin2Abs
 0005:005A2384       MoveVBase__moveCosSinAbs
 0005:005A2484       MoveVBase__func
 0005:005A25D0       MoveVBase__move
 0005:005A2640       MoveVBase__stop
 0005:005A2708       MoveVBase__wait
 0005:005A2758       MoveVBase__jumpFA
 0005:005A2840       MoveVBase__jumpFS
 0005:005A28C4       MoveVBase__jumpFT
 0005:005A2A74       MoveVBase__moveAbs
 0005:005A2AE4       MoveVBase__moveCos
 0005:005A2B20       MoveVBase__moveFrm
 0005:005A2B5C       MoveVBase__moveSin
 0005:005A2B98       MoveVBase__MoveVBase
 0005:005A2C0C       j_operator_delete__311
 0005:005A2C10       nullsub_299
 0005:005A2D64       MoveVBase__jumpTA
 0005:005A2F28       MoveWorkF__MoveWorkF
 0005:005A2F5C       j_operator_delete__312
 0005:005A2F64       nullsub_300
 0005:005A3A0C       nullsub_841
 0005:005A3A10       nullsub_842
 0005:005A3CB4       j_nullsub_824_1
 0005:005A473C       jpt_5A4734
 0005:005A48A8       def_5A4734
 0005:005A4EE4       jpt_5A4EDC
 0005:005A4FC8       def_5A4EDC
 0005:005A4FEC       jpt_5A4FE4
 0005:005A50A8       def_5A4FE4
 0005:005A50E0       jpt_5A50D8
 0005:005A519C       def_5A50D8
 0005:005A51CC       jpt_5A51C4
 0005:005A5288       def_5A51C4
 0005:005A52B4       jpt_5A52AC
 0005:005A5370       def_5A52AC
 0005:005A53A0       jpt_5A5398
 0005:005A545C       def_5A5398
 0005:005A548C       jpt_5A5484
 0005:005A5548       def_5A5484
 0005:005A55C4       jpt_5A55BC
 0005:005A5680       def_5A55BC
 0005:005A56B4       jpt_5A56AC
 0005:005A5770       def_5A56AC
 0005:005A57A0       jpt_5A5798
 0005:005A585C       def_5A5798
 0005:005A6738       jpt_5A6730
 0005:005A6810       def_5A6730
 0005:005A6848       jpt_5A6840
 0005:005A6904       def_5A6840
 0005:005A693C       jpt_5A6934
 0005:005A69F8       def_5A6934
 0005:005A6D5C       jpt_5A6D54
 0005:005A6E18       def_5A6D54
 0005:005A7808       jpt_5A7800
 0005:005A78C4       def_5A7800
 0005:005A7908       jpt_5A7900
 0005:005A79C4       def_5A7900
 0005:005A79FC       jpt_5A79F4
 0005:005A7ACC       def_5A79F4
 0005:005A7B04       jpt_5A7AFC
 0005:005A7BC0       def_5A7AFC
 0005:005A8478       jpt_5A8470
 0005:005A8534       def_5A8470
 0005:005A85F0       jpt_5A85E8
 0005:005A86AC       def_5A85E8
 0005:005A86CC       jpt_5A86C4
 0005:005A8788       def_5A86C4
 0005:005A87A8       jpt_5A87A0
 0005:005A8864       def_5A87A0
 0005:005A922C       jpt_5A9224
 0005:005A950C       jpt_5A9504
 0005:005A9600       def_5A9504
 0005:005A96B4       def_5A9224
 0005:005AADEC       nullsub_954
 0005:005AC78C       jpt_5AC784
 0005:005ACC74       def_5AC784
 0005:005ACDE8       jpt_5ACDE0
 0005:005ACEE4       jpt_5ACEDC
 0005:005AD004       def_5ACDE0
 0005:005AD068       jpt_5AD060
 0005:005AD0B8       def_5AD060
 0005:005AD690       jpt_5AD688
 0005:005AD928       def_5AD688
 0005:005ADF58       jpt_5ADF50
 0005:005AE04C       def_5ADF50
 0005:005AE67C       ShadowSys__entryCaster
 0005:005AE6CC       ShadowSys__setShadowTex
 0005:005AE780       ShadowSys__draw
 0005:005AF4A8       ShadowSys__init
 0005:005AF558       ShadowSys__term
 0005:005AFCCC       ShadowSys__update
 0005:005B08B4       ShadowSys__ShadowSys
 0005:005B092C       j_operator_delete__313
 0005:005B0930       nullsub_871
 0005:005B1338       j_operator_delete__314
 0005:005B133C       nullsub_301
 0005:005B1340       StdRender__setRenderTarget
 0005:005B1498       StdRender__init
 0005:005B17C4       StdRender__term
 0005:005B412C       nullsub_302
 0005:005BAF28       j_operator_delete__315
 0005:005BAF2C       nullsub_492
 0005:005BAF5C       nullsub_770
 0005:005BB8E0       jpt_5BB8D8
 0005:005BB990       def_5BB8D8
 0005:005BBAE0       def_5BBADC
 0005:005BBAE4       jpt_5BBADC
 0005:005BC194       jpt_5BC18C
 0005:005BC1F0       def_5BC18C
 0005:005BD968       nullsub_303
 0005:005BDD58       jpt_5BDD50
 0005:005BDDF4       def_5BDD50
 0005:005BE300       nullsub_1108
 0005:005BEE1C       nullsub_475
 0005:005BF0E4       nullsub_511
 0005:005BF584       nullsub_506
 0005:005BF7C4       j_operator_delete__316
 0005:005BF7C8       nullsub_1069
 0005:005BF7F4       jpt_5BF7EC
 0005:005BF828       def_5BF7EC
 0005:005BF8B0       jpt_5BF8A8
 0005:005BF8F4       def_5BF8A8
 0005:005C1A38       nullsub_507
 0005:005C1D2C       nullsub_304
 0005:005C2120       nullsub_347
 0005:005C2EF4       nullsub_508
 0005:005C35EC       j_operator_delete__317
 0005:005C35F0       nullsub_476
 0005:005C3A80       nullsub_772
 0005:005C4018       j_operator_delete__318
 0005:005C401C       nullsub_480
 0005:005C4074       j_operator_delete__319
 0005:005C4078       nullsub_305
 0005:005C407C       nullsub_306
 0005:005C4080       nullsub_307
 0005:005C4084       nullsub_477
 0005:005C4088       nullsub_308
 0005:005C4FE4       jpt_5C4FDC
 0005:005C52CC       def_5C4FDC
 0005:005C63A4       FieldObjCA__isCADisp
 0005:005C69D4       jpt_5C69CC
 0005:005C6BA0       def_5C69CC
 0005:005C7AD0       FieldCamera__getPos
 0005:005C8F08       CalcEquipEff__getWeaponPow
 0005:005C9104       CalcEquipEff__getDef
 0005:005C92B8       CalcEquipEff__getDefUp
 0005:005C98FC       nullsub_342
 0005:005CBDEC       def_5CBDE8
 0005:005CBDF0       jpt_5CBDE8
 0005:005CCAD0       jpt_5CCAC8
 0005:005CCB0C       def_5CCAC8
 0005:005CE5D8       CmdCacheMulti__useSave
 0005:005CE994       MessageWriter__getRectHeight
 0005:005CE9AC       def_5CE9A8
 0005:005CE9B0       jpt_5CE9A8
 0005:005CF05C       thunk_FUN_005d4638
 0005:005CF150       jpt_5CF148
 0005:005CF1B0       def_5CF148
 0005:005CF1C8       jpt_5CF1C0
 0005:005CF204       def_5CF1C0
 0005:005CF254       jpt_5CF24C
 0005:005CF2D0       def_5CF24C
 0005:005D0AFC       BinGlu3AcsIdxHdr__getOfs
 0005:005D34F0       jpt_5D34E8
 0005:005D3528       def_5D34E8
 0005:005D4CE8       jpt_5D4CE0
 0005:005D4D60       def_5D4CE0
 0005:005D4E88       jpt_5D4E80
 0005:005D4ED0       def_5D4E80
 0005:005D6548       def_5D6544
 0005:005D654C       jpt_5D6544
 0005:005D65E8       def_5D65E4
 0005:005D65EC       jpt_5D65E4
 0005:005DC578       jpt_5DC570
 0005:005DC5B0       def_5DC570
 0005:005DED20       def_5DED1C
 0005:005DED24       jpt_5DED1C
 0005:005DF8CC       jpt_5DF8C4
 0005:005DF9C4       def_5DF8C4
 0005:005DFA34       jpt_5DFA2C
 0005:005DFA4C       def_5DFA2C
 0005:005E0558       nn__fs__CTR__MPCore__detail__FileServerArchive__GetIpcObject
 0005:005E0708       nullsub_327
 0005:005E0744       nullsub_309
 0005:005E0784       nullsub_310
 0005:005E0CA0       nn__ulcd__CTR__StereoCamera__GetCoefficientForParallax
 0005:005E0DB8       nw__ut__FloatColor__ToPicaU32
 0005:005E0EC0       nw__ut__ResDicPatricia__Get
 0005:005E10E4       nw__lyt__AnimTransform__GetFrameSize
 0005:005E10F0       nw__lyt__Pane__GetMaterialNum
 0005:005E11B0       nw__lyt__Pane__GetVtxColor
 0005:005E11C4       nw__lyt__Pane__GetColorElement
 0005:005E1270       nw__lyt__Pane__GetVtxColorElement
 0005:005E1278       nw__lyt__Pane__MakeUniformDataSelf
 0005:005E2C78       nw__lyt__Material__GetTexMapAry
 0005:005E35F0       Job__end
 0005:005E36BC       jpt_5E36B4
 0005:005E36D4       def_5E36B4
 0005:005E3990       nullsub_795
 0005:005E3994       nullsub_796
 0005:005E429C       adsl__gfx__SceneBuilder__BuildChildren
 0005:005E439C       adsl__gfx__SceneBuilder__BuildSceneObject
 0005:005E5078       adsl__gfx__AnimEvaluator__HasMemberAnim
 0005:005E50A4       adsl__gfx__AnimEvaluator__GetRuntimeTypeInfo
 0005:005E50B0       adsl__gfx__AnimEvaluator__GetResult
 0005:005E5264       adsl__gfx__SkeletalModel__SetupAnimGroup
 0005:005E539C       adsl__gfx__SkeletalModel__GetRuntimeTypeInfo
 0005:005E53A8       adsl__gfx__TransformNode__GetRuntimeTypeInfo
 0005:005E53B4       adsl__gfx__TransformNode__TrackbackWorldMatrix
 0005:005E53E8       adsl__gfx__OffScreenBuffer__GetRuntimeTypeInfo
 0005:005E53F4       adsl__gfx__SceneInitializer__GetRuntimeTypeInfo
 0005:005E5400       adsl__gfx__ShaderBinaryInfo__PutLoadCommand
 0005:005E550C       adsl__gfx__ShaderBinaryInfo__BuildCommonCommand
 0005:005E5610       adsl__gfx__ShaderBinaryInfo__SearchUniformIndex
 0005:005E5828       jpt_5E5820
 0005:005E58B0       def_5E5820
 0005:005E5B20       adsl__gfx__ShaderBinaryInfo__BuildProgramCommand
 0005:005E5DA0       adsl__gfx__ShaderBinaryInfo__GetCommonCommandSize
 0005:005E6078       adsl__gfx__StandardSkeleton__GetRuntimeTypeInfo
 0005:005E609C       adsl__gfx__BaseAnimEvaluator__GetRuntimeTypeInfo
 0005:005E60B0       adsl__gfx__RenderContext__ClearBuffer
 0005:005E69FC       adsl__MaterialActivator__GetRuntimeTypeInfo
 0005:005E6A10       adsl__gfx__RotateViewUpdater__GetRuntimeTypeInfo
 0005:005E6A2C       adsl__gfx__AimTargetViewUpdater__GetRuntimeTypeInfo
 0005:005E6A40       adsl__gfx__AnimBlendOpTransform__Blend
 0005:005E6BA4       adsl__gfx__AnimBlendOpTransform__PostBlend
 0005:005E6C4C       adsl__gfx__TransformAnimBlendOp__BlendTranslate
 0005:005E6CD8       adsl__gfx__TransformAnimBlendOp__BlendRotateMatrix
 0005:005E7090       adsl__gfx__TransformAnimBlendOp__BlendScaleStandard
 0005:005E7128       adsl__gfx__TransformAnimBlendOp__ConvertToAnimResult
 0005:005E72E4       adsl__gfx__TransformAnimBlendOp__PostBlendAccurateScale
 0005:005E7328       adsl__gfx__TransformAnimBlendOp__Apply
 0005:005E7364       adsl__gfx__TransformAnimEvaluator__HasMemberAnim
 0005:005E73C0       adsl__anim__res__ResAnimGroupMember__SetValueForType
 0005:005E7558       nw__gfx__TransformAnimEvaluator__EvaluateMemberAnim
 0005:005E7B04       adsl__gfx__TransformAnimEvaluator__GetRuntimeTypeInfo
 0005:005E7B10       adsl__gfx__TransformAnimEvaluator__EvaluateMemberBakedAnim
 0005:005E7F20       adsl__gfx__TransformAnimBlendOpAccScale__PostBlend
 0005:005E7F40       adsl__gfx__TransformAnimBlendOpStandard__Blend
 0005:005E8000       adsl__gfx__TransformAnimBlendOpAccScaleQuat__PostBlend
 0005:005E8090       adsl__gfx__res__ResTextureSampler__GetOwnerCommand
 0005:005E80B8       adsl__gfx__res__DefaultShaderAutoSelector__operator
 0005:005E814C       aDefaultshader
 0005:005E81A8       adsl__gfx__Camera__GetTargetPosition
 0005:005E821C       adsl__gfx__Camera__GetRuntimeTypeInfo
 0005:005E8230       adsl__gfx__Camera__GetFar
 0005:005E8254       adsl__gfx__Camera__GetNear
 0005:005E82A0       jpt_5E8298
 0005:005E82FC       def_5E8298
 0005:005E8330       adsl__gfx__SceneNode__IsCircularReference
 0005:005E8804       adsl__anim__AnimBlendOp__PostBlend
 0005:005E8814       adsl__anim__AnimBlendOpInt__ConvertToAnimResult
 0005:005E8828       adsl__anim__AnimBlendOpInt__Apply
 0005:005E8848       adsl__anim__AnimBlendOpBool__ConvertToAnimResult
 0005:005E885C       adsl__anim__AnimBlendOpBool__Apply
 0005:005E8868       adsl__anim__AnimBlendOpBool__Blend
 0005:005E88CC       adsl__anim__AnimBlendOpFloat__ConvertToAnimResult
 0005:005E88E0       adsl__anim__AnimBlendOpFloat__Apply
 0005:005E88EC       adsl__anim__AnimBlendOpFloat__Blend
 0005:005E894C       adsl__anim__AnimBlendOpTexture__ConvertToAnimResult
 0005:005E8998       adsl__anim__AnimBlendOpTexture__Apply
 0005:005E89EC       adsl__anim__AnimBlendOp__BlendFloatVector
 0005:005E8A18       adsl__anim__AnimBlendOpRgbaColor__ConvertToAnimResult
 0005:005E8A74       adsl__anim__AnimBlendOpRgbaColor__Apply
 0005:005E8ACC       adsl__anim__AnimBlendOpRgbaColor__Blend
 0005:005E8BE0       adsl__anim__res__ResVec3Anim__EvaluateResult
 0005:005E8CBC       adsl__anim__res__ResMemberAnim__GetPrimitiveSize
 0005:005E8CD0       jpt_5E8CC8
 0005:005E8D20       def_5E8CC8
 0005:005E8D28       adsl__anim__res__ResMemberAnim__ApplyCacheForType
 0005:005E8D38       def_5E8D34
 0005:005E8D3C       jpt_5E8D34
 0005:005E8E34       adsl__anim__res__ResMemberAnim__EvaluateResultForType
 0005:005E8E60       jpt_5E8E58
 0005:005E9048       def_5E8E58
 0005:005E9708       jpt_5E9700
 0005:005E97E8       def_5E9700
 0005:005E9A88       adsl__anim__res__ResVertexLightMember__SetValue
 0005:005E9AA4       def_5E9AA0
 0005:005E9AA8       jpt_5E9AA0
 0005:005E9B58       adsl__anim__res__ResFragmentLightMember__SetValue
 0005:005E9B7C       def_5E9B78
 0005:005E9B80       jpt_5E9B78
 0005:005E9DF4       adsl__anim__res__ResMaterialColorMember__SetValue
 0005:005E9E0C       def_5E9E08
 0005:005E9E10       jpt_5E9E08
 0005:005E9FB8       adsl__anim__res__ResProjectionUpdaterMember__SetValue
 0005:005E9FE4       def_5E9FE0
 0005:005E9FE8       jpt_5E9FE0
 0005:005EA0A8       adsl__anim__res__ResTextureCoordinatorMember__SetValue
 0005:005EB8B4       jpt_5EB8AC
 0005:005EB8F0       def_5EB8AC
 0005:005EC024       rsLib__ColorBlink__get
 0005:005EC120       Backup__errorCode
 0005:005EC340       nullsub_994
 0005:005EC3DC       jpt_5EC3D4
 0005:005EC5A8       def_5EC3D4
 0005:005ECF34       jpt_5ECF2C
 0005:005ECFDC       def_5ECF2C
 0005:005ED05C       jpt_5ED054
 0005:005ED0A0       def_5ED054
 0005:005EDA30       CtrBtn__get
 0005:005EDB9C       jpt_5EDB94
 0005:005EDC1C       def_5EDB94
 0005:005EDECC       def_5EDEC8
 0005:005EDED0       jpt_5EDEC8
 0005:005EE1D8       jpt_5EE1D0
 0005:005EE238       def_5EE1D0
 0005:005EE250       jpt_5EE248
 0005:005EE28C       def_5EE248
 0005:005EE2DC       jpt_5EE2D4
 0005:005EE354       def_5EE2D4
 0005:005EE5CC       jpt_5EE5C4
 0005:005EE668       jpt_5EE660
 0005:005EE6D8       def_5EE5C4
 0005:005EEF9C       DispBuf__getDispBufId
 0005:005F0F00       GameWork__getItemNum
 0005:005F0F50       GameWork__isHardMode
 0005:005F0F84       GameWork__getEquipMax
 0005:005F0FB8       GameWork__isNewPuzzle
 0005:005F0FDC       GameWork__getUseItemMax
 0005:005F1010       GameWork__isClearPuzzle
 0005:005F1024       GameWork__getEquipStatus
 0005:005F1094       GameWork__isNewColosseum
 0005:005F10B0       GameWork__getBadgeBitFlag
 0005:005F10BC       GameWork__isPlayablePuzzle
 0005:005F10EC       GameWork__getPuzzleClearTime
 0005:005F10F8       GameWork__getColosseumBestTurn
 0005:005F15E4       CellAnime__getSeqPtnFrm
 0005:005F163C       CellAnime__getConstColor
 0005:005F1648       CellAnime__getPtnFromSeqPtnNo
 0005:005F1964       MoveFBase__isBusy
 0005:005F19B8       MoveVBase__isBusy
 0005:005F1A28       MoveWorkF__calc
 0005:005F1AA0       jpt_5F1A98
 0005:005F1B74       def_5F1A98
 0005:005F2E24       j_FieldObjCA__initCA
 0005:005F2E88       j_j_FieldObjCA__buildCA
 0005:005F2E8C       j_FieldObjCA__setCADisp
 0005:005F2F00       j_FieldObjCA__isCADisp
 0005:005F35D8       j_FieldObjCA__buildCA_0
 0005:005F4ABC       nullsub_613
 0005:005F4BDC       nullsub_740
 0005:005F4BF4       nullsub_743
 0005:005F4BF8       nullsub_744
 0005:005F4C10       nullsub_749
 0005:005F4DDC       nullsub_747
 0005:005F534C       nullsub_616
 0005:005F59FC       __ARM_common_memcpy4_6
 0005:005F5B2C       __hardfp_acosf
 0005:005F5C58       __hardfp_asinf
 0005:005F5D90       __hardfp_atan2f
 0005:005F6000       __hardfp_atof
 0005:005F6048       __hardfp_ceilf
 0005:005F60D8       __hardfp_expf
 0005:005F6308       __hardfp_floorf
 0005:005F63A4       __hardfp_fmodf
 0005:005F6480       __hardfp_logf
 0005:005F66E0       __mathlib_dbl_underflow
 0005:005F6714       nn__svc__SetHardwareBreakPoint
 0005:005F767C       __sti___11_err_Api_cpp
 0005:00609DA0       __sys_setDMACommandRequest
 0005:0060A3DC       glDisable
 0005:0060A7F8       frexp
 0005:0060A8C8       glAttachShader
 0005:0060A984       glBindAttribLocation
 0005:0060AAD0       glBindBuffer
 0005:0060AF14       glBindTexture
 0005:0060AFD8       jpt_60AFD0
 0005:0060B014       jpt_60B00C
 0005:0060B05C       def_60AFD0
 0005:0060B79C       jpt_60B794
 0005:0060B7E4       jpt_60B7DC
 0005:0060B894       def_60B794
 0005:0060BD78       glBufferData
 0005:0060C098       glCreateProgram
 0005:0060C1B0       glCreateShader
 0005:0060C548       glDeleteShader
 0005:0060D1F8       glEnable
 0005:0060D238       glGenBuffers
 0005:0060D368       glGenTextures
 0005:0060D4A4       glGetFramebufferAttachmentParameteriv
 0005:0060D588       glGetIntegerv
 0005:0060D868       def_60D864
 0005:0060D86C       jpt_60D864
 0005:0060D8F0       def_60D8EC
 0005:0060D8F4       jpt_60D8EC
 0005:0060E19C       glGetUniformLocation
 0005:0060E314       glLinkProgram
 0005:0060EDF0       jpt_60EDE8
 0005:0060EE28       def_60EDE8
 0005:0060FDE0       jpt_60FDD8
 0005:0060FED0       def_60FDD8
 0005:0060FEEC       glShaderBinary
 0005:006105E8       jpt_6105E0
 0005:00610644       def_6105E0
 0005:006107A4       jpt_61079C
 0005:006107DC       def_61079C
 0005:00611930       glUniform1i
 0005:00611A24       glUseProgram
 0005:00612040       nngxAdd3DCommand
 0005:00612160       nngxAddMemoryFillCommand
 0005:006121AC       nngxCheckVSync
 0005:00612240       nngxClearCmdlist
 0005:006123FC       nngxFlush3DCommand
 0005:006125A4       nngxGetDisplaybufferParameteri
 0005:006126B8       nngxSetDisplayMode
 0005:006127C0       nngxStopCmdlist
 0005:006128C0       nngxSwapBuffers
 0005:00612A58       nngxUseSavedCmdlist
 0005:00612F84       nngxlowSetBufferSwap
 0005:00613068       nnroAeabiAtexit_
 0005:006130B8       j_nndbgPanic_0
 0005:00613498       jpt_613490
 0005:006138F4       def_613490
 0005:006139AC       jpt_6139A4
 0005:00613A0C       jpt_613A04
 0005:00613B9C       jpt_613B94
 0005:00617ECC       def_617EC8
 0005:00617ED0       jpt_617EC8
 0005:006182D4       def_6182D0
 0005:006182D8       jpt_6182D0
 0005:00618A18       def_618A14
 0005:00618A1C       jpt_618A14
 0005:00618B58       def_618B54
 0005:00618B5C       jpt_618B54
 0005:00619A70       jpt_619A68
 0005:00619ADC       def_619A68
 0005:0061B5A8       def_61B5A4
 0005:0061B5AC       jpt_61B5A4
 0005:0061CC24       def_61CC20
 0005:0061CC28       jpt_61CC20
 0005:0061CD3C       sqrtf
 0005:0061CF2C       sys_AddMemoryFillCommandCore
 0005:0061D060       tx_allocTextureMemory
 0005:0061D210       jpt_61D208
 0005:0061D294       def_61D208
 0005:0061D348       tx_texImage
 0005:0061D564       jpt_61D55C
 0005:0061D634       jpt_61D62C
 0005:0061D664       def_61D55C
 0005:0061D9DC       def_61D62C
 0005:0061DCCC       jpt_61DCC4
 0005:0061DD04       def_61DCC4
 0005:00620338       nullsub_1111
 0005:0062033C       nn__socket__detail__Free
 0005:0062039C       nn__fnd__ExpHeapTemplate_nn__os__LockPolicy__Object_nn__os__CriticalSection____Allocator__Allocate
 0005:006204B4       nullsub_311
 0005:006206D4       nw__ut__MoveArray_nn__math__MTX34____MoveArray
 0005:0062074C       nw__ut__MoveArray_nw__gfx__CalculatedTransform___Resize
 0005:006209F8       nw__ut__MoveArray_adsl__gfx__Light____push_back
 0005:00620B1C       nw__ut__MoveArray_adsl__gfx__SceneNode____push_back
 0005:00621B94       j_operator_delete__320
 0005:00621B98       nullsub_1109
 0005:00621E44       j_operator_delete__321
 0005:00621E48       nullsub_1110
 0005:00623208       nullsub_1112
 0005:00623268       nullsub_1113
 0005:00628AF8       j_operator_delete__322
 0005:00628AFC       nullsub_312
 0005:00628B1C       j_operator_delete__323
 0005:00628B20       nullsub_780
 0005:00628B40       j_operator_delete__324
 0005:00628B44       nullsub_313
 0005:00628BD4       j_operator_delete__325
 0005:00628BD8       nullsub_1059
 0005:00628CA4       j_operator_delete__326
 0005:00628CA8       nullsub_478
 0005:00628CC8       j_operator_delete__327
 0005:00628CCC       nullsub_314
 0005:00628D5C       j_operator_delete__328
 0005:00628D60       nullsub_1066
 0005:00628D84       j_operator_delete__329
 0005:00628D88       nullsub_315
 0005:00628DA8       j_operator_delete__330
 0005:00628DAC       nullsub_316
 0005:00628DCC       j_operator_delete__331
 0005:00628DD0       nullsub_317
 0005:00628DF0       j_operator_delete__332
 0005:00628DF4       nullsub_318
 0005:00628E14       j_operator_delete__333
 0005:00628E18       nullsub_319
 0005:00628E38       j_operator_delete__334
 0005:00628E3C       nullsub_320
 0005:00628E5C       j_operator_delete__335
 0005:00628E60       nullsub_321
 0005:00628E78       j_operator_delete__336
 0005:00628E7C       nullsub_771
 0005:006290F0       nullsub_1114
 0005:0062920C       nullsub_1115
 0005:00629520       nullsub_1116
 0005:0062956C       nullsub_1117
 0005:00629570       nullsub_1118
 0005:00629574       nullsub_324
 0005:006295C0       nullsub_1119
 0005:006295C4       nullsub_1120
 0005:006295C8       nullsub_787
 0005:006296B0       nullsub_1121
 0005:006296B4       nullsub_1122
 0005:006296B8       nullsub_758
 0005:00629728       nullsub_1123
 0005:00629788       nullsub_1124
 0005:0062978C       nullsub_1125
 0005:006297F4       nullsub_1126
 0005:006297F8       nullsub_1127
 0005:006297FC       nullsub_1128
 0005:00629864       nullsub_1129
 0005:00629868       nullsub_1130
 0005:006298C8       nullsub_1131
 0005:006298CC       nullsub_1132
 0005:0062A83C       adsl__gfx__internal__SetupVertexAttributeCommand
 0005:0062ECA8       nullsub_1133
 0005:0062EF20       nullsub_479
 0005:0063C628       __aeabi_l2d
 0005:0063C7F4       __fpl_fnaninf
 0005:0063C894       _frem
 0005:0063C9BC       __aeabi_d2lz
 0005:0063CAEC       __ARM_scalbn
 0006:0063D058       `vtable for'CtrFileBase
 0006:0063D0B8       `vtable for'nn::fs::FileInputStream
 0006:0063D118       `vtable for'nn::fs::IInputStream
 0006:0063D178       `vtable for'CtrArcFile
 0006:0063D1E0       `vtable for'CtrFileBase
 0006:0063D240       `vtable for'nn::fs::FileInputStream
 0006:0063D2A0       `vtable for'nn::fs::IInputStream
 0006:0063E31C       aD_1
 0006:0063E378       `vtable for'hoBtlUtil::`anonymous namespace'::BtlMonDmgPose
 0006:0063E38C       `typeinfo for'hoBtlUtil::`anonymous namespace'::BtlMonDmgPose
 0006:0063E398       `typeinfo name for'hoBtlUtil::`anonymous namespace'::BtlMonDmgPose
 0006:0063E7FC       `vtable for'hoBtlUtil::`anonymous namespace'::BtlMonDmgPose
 0006:0063E810       `typeinfo for'hoBtlUtil::`anonymous namespace'::BtlMonDmgPose
 0006:0063E81C       `typeinfo name for'hoBtlUtil::`anonymous namespace'::BtlMonDmgPose
 0006:0063E99C       a12
 0006:0063E9A2       aW
 0006:0063E9A4       aXyz
 0006:0063ED40       a1389457
 0006:0063ED5C       a2tu
 0006:0063EF84       aQst
 0006:0063EF8C       aUvwxyzRrs
 0006:0063F020       aRomBattleAtkmi
 0006:0063F0C0       aRomBattleAtkmi_0
 0006:0063F1CC       `typeinfo for'`anonymous namespace'::BtlObjMasAnis
 0006:0063F1D8       `typeinfo name for'`anonymous namespace'::BtlObjMasAnis
 0006:0063F220       `typeinfo for'`anonymous namespace'::BtlObjMasAnisParent
 0006:0063F22C       `typeinfo name for'`anonymous namespace'::BtlObjMasAnisParent
 0006:0063F278       `typeinfo for'`anonymous namespace'::BtlObjMasAnisMassufu
 0006:0063F284       `typeinfo name for'`anonymous namespace'::BtlObjMasAnisMassufu
 0006:0063F2D0       `typeinfo for'`anonymous namespace'::BtlObjMasAnisAnies
 0006:0063F2DC       `typeinfo name for'`anonymous namespace'::BtlObjMasAnisAnies
 0006:0063F328       `typeinfo for'`anonymous namespace'::MasAnisCameraInitMoveTask
 0006:0063F330       `typeinfo name for'`anonymous namespace'::MasAnisCameraInitMoveTask
 0006:0063F384       `typeinfo for'`anonymous namespace'::MasAnisCameraPcFollowTask
 0006:0063F390       `typeinfo name for'`anonymous namespace'::MasAnisCameraPcFollowTask
 0006:0063F3E4       `typeinfo for'`anonymous namespace'::MasAnisFirstJumpTask
 0006:0063F3EC       `typeinfo name for'`anonymous namespace'::MasAnisFirstJumpTask
 0006:0063F438       `typeinfo for'`anonymous namespace'::MasAnisBuildTurrentTask
 0006:0063F440       `typeinfo name for'`anonymous namespace'::MasAnisBuildTurrentTask
 0006:0063F490       `vtable for'`anonymous namespace'::BtlObjMasAnis
 0006:0063F4FC       `vtable for'`anonymous namespace'::BtlObjMasAnisParent
 0006:0063F568       `vtable for'`anonymous namespace'::BtlObjMasAnisMassufu
 0006:0063F5D4       `vtable for'`anonymous namespace'::BtlObjMasAnisAnies
 0006:0063F640       `vtable for'`anonymous namespace'::MasAnisCameraInitMoveTask
 0006:0063F650       `vtable for'`anonymous namespace'::MasAnisCameraPcFollowTask
 0006:0063F664       `vtable for'`anonymous namespace'::MasAnisFirstJumpTask
 0006:0063F674       `vtable for'`anonymous namespace'::MasAnisBuildTurrentTask
 0006:0063F70C       `typeinfo for'`anonymous namespace'::BtlObjTunogon
 0006:0063F718       `typeinfo name for'`anonymous namespace'::BtlObjTunogon
 0006:0063F760       `typeinfo for'`anonymous namespace'::BtlObjTunogonCoin
 0006:0063F76C       `typeinfo name for'`anonymous namespace'::BtlObjTunogonCoin
 0006:0063F7B8       `typeinfo for'`anonymous namespace'::BtlObjTunogonMakibisi
 0006:0063F7C4       `typeinfo name for'`anonymous namespace'::BtlObjTunogonMakibisi
 0006:0063F814       `typeinfo for'`anonymous namespace'::TunogonCamPcFollowTask
 0006:0063F820       `typeinfo name for'`anonymous namespace'::TunogonCamPcFollowTask
 0006:0063F870       `vtable for'`anonymous namespace'::BtlObjTunogon
 0006:0063F8DC       `vtable for'`anonymous namespace'::BtlObjTunogonCoin
 0006:0063F948       `vtable for'`anonymous namespace'::BtlObjTunogonMakibisi
 0006:0063F9B4       `vtable for'`anonymous namespace'::TunogonCamPcFollowTask
 0006:0063FD18       aDijklompnqv
 0006:0063FD48       `vtable for'`anonymous namespace'::BtlSHExcellentSETask
 0006:0063FD5C       `typeinfo for'`anonymous namespace'::BtlSHExcellentSETask
 0006:0063FD68       `typeinfo name for'`anonymous namespace'::BtlSHExcellentSETask
 0006:0063FEEC       `vtable for'`anonymous namespace'::StompTaskCallback
 0006:0063FF00       `vtable for'`anonymous namespace'::SJPcShrinkTask
 0006:0063FF14       `vtable for'`anonymous namespace'::SJRestoreCamTask
 0006:0063FF28       `vtable for'`anonymous namespace'::BtlPcAtkSJDummy
 0006:0063FF40       `typeinfo for'`anonymous namespace'::StompTaskCallback
 0006:0063FF4C       `typeinfo name for'`anonymous namespace'::StompTaskCallback
 0006:0063FF90       `typeinfo for'`anonymous namespace'::SJPcShrinkTask
 0006:0063FF9C       `typeinfo name for'`anonymous namespace'::SJPcShrinkTask
 0006:0063FFDC       `typeinfo for'`anonymous namespace'::SJRestoreCamTask
 0006:0063FFE8       `typeinfo name for'`anonymous namespace'::SJRestoreCamTask
 0006:0064002C       `typeinfo for'`anonymous namespace'::BtlPcAtkSJDummy
 0006:00640038       `typeinfo name for'`anonymous namespace'::BtlPcAtkSJDummy
 0006:00642F5C       aD_3
 0006:00642F64       `typeinfo for'`anonymous namespace'::BtlObjAbnName
 0006:00642F70       `typeinfo name for'`anonymous namespace'::BtlObjAbnName
 0006:00642FAC       `typeinfo for'`anonymous namespace'::BtlTaskAbnBase
 0006:00642FB8       `typeinfo name for'`anonymous namespace'::BtlTaskAbnBase
 0006:00642FF4       `typeinfo for'`anonymous namespace'::BtlTaskYakedo
 0006:00643000       `typeinfo name for'`anonymous namespace'::BtlTaskYakedo
 0006:0064303C       `typeinfo for'`anonymous namespace'::BtlDmgPcAbnRecoverKorobi
 0006:00643048       `typeinfo name for'`anonymous namespace'::BtlDmgPcAbnRecoverKorobi
 0006:00643090       `typeinfo for'`anonymous namespace'::BtlDmgPcAbnRecoverMemawashi
 0006:0064309C       `typeinfo name for'`anonymous namespace'::BtlDmgPcAbnRecoverMemawashi
 0006:006430E8       `typeinfo for'`anonymous namespace'::BtlTaskPcCarryFall
 0006:006430F4       `typeinfo name for'`anonymous namespace'::BtlTaskPcCarryFall
 0006:0064315C       `vtable for'`anonymous namespace'::BtlObjAbnName
 0006:006431BC       `vtable for'`anonymous namespace'::BtlTaskAbnBase
 0006:006431D0       `vtable for'`anonymous namespace'::BtlTaskYakedo
 0006:006431E4       `vtable for'`anonymous namespace'::BtlDmgPcAbnRecoverKorobi
 0006:006431F8       `vtable for'`anonymous namespace'::BtlDmgPcAbnRecoverMemawashi
 0006:0064320C       `vtable for'`anonymous namespace'::BtlTaskPcCarryFall
 0006:0064B9DC       `typeinfo for'`anonymous namespace'::BtlObjMigawariKinoko
 0006:0064B9E8       `typeinfo name for'`anonymous namespace'::BtlObjMigawariKinoko
 0006:0064BA28       `typeinfo for'`anonymous namespace'::BtlMonDmgPose
 0006:0064BA34       `typeinfo name for'`anonymous namespace'::BtlMonDmgPose
 0006:0064BA6C       `typeinfo for'`anonymous namespace'::BtlMonDmgDown
 0006:0064BA78       `typeinfo name for'`anonymous namespace'::BtlMonDmgDown
 0006:0064BAB0       `typeinfo for'`anonymous namespace'::BtlMonDmgDown::DieFxDfxHandle
 0006:0064BABC       `typeinfo name for'`anonymous namespace'::BtlMonDmgDown::DieFxDfxHandle
 0006:0064BB34       `vtable for'`anonymous namespace'::BtlObjMigawariKinoko
 0006:0064BB94       `vtable for'`anonymous namespace'::BtlMonDmgPose
 0006:0064BBA8       `vtable for'`anonymous namespace'::BtlMonDmgDown
 0006:0064BBBC       `vtable for'`anonymous namespace'::BtlMonDmgDown::DieFxDfxHandle
 0006:0064E834       `vtable for'`anonymous namespace'::BtlMonDmgStomp
 0006:0064E850       `typeinfo for'`anonymous namespace'::BtlMonDmgStomp
 0006:0064E85C       `typeinfo name for'`anonymous namespace'::BtlMonDmgStomp
 0006:0064E978       `vtable for'CtrFileTmp<BinGlu3AcsIdxHdr>
 0006:0064E9E0       `vtable for'CtrArcFile
 0006:0064EA48       `vtable for'CtrFileBase
 0006:0064EAA8       `vtable for'nn::fs::FileInputStream
 0006:0064EB08       `vtable for'nn::fs::IInputStream
 0006:00653F04       `vtable for'`anonymous namespace'::BtlReleaseResAtkTask
 0006:00653F18       `vtable for'`anonymous namespace'::BtlPcCmdSibire
 0006:00653F30       `typeinfo for'`anonymous namespace'::BtlReleaseResAtkTask
 0006:00653F3C       `typeinfo name for'`anonymous namespace'::BtlReleaseResAtkTask
 0006:00653F7C       `typeinfo for'`anonymous namespace'::BtlPcCmdSibire
 0006:00653F88       `typeinfo name for'`anonymous namespace'::BtlPcCmdSibire
 0006:00654460       aRomBattleAtkke
 0006:0065449C       `vtable for'`anonymous namespace'::AbortTask
 0006:006544B0       `vtable for'`anonymous namespace'::BtlPcCmdDeadByTurnLimit
 0006:006544C8       `vtable for'`anonymous namespace'::BtlPcCmdBadgeEff
 0006:006544E0       `vtable for'`anonymous namespace'::BtlPcCmdSpCountDamage
 0006:006544F8       `vtable for'`anonymous namespace'::BtlPcCmdTimeStopDmg
 0006:00654510       `typeinfo for'`anonymous namespace'::AbortTask
 0006:0065451C       `typeinfo name for'`anonymous namespace'::AbortTask
 0006:00654554       `typeinfo for'`anonymous namespace'::BtlPcCmdDeadByTurnLimit
 0006:00654560       `typeinfo name for'`anonymous namespace'::BtlPcCmdDeadByTurnLimit
 0006:006545A8       `typeinfo for'`anonymous namespace'::BtlPcCmdBadgeEff
 0006:006545B4       `typeinfo name for'`anonymous namespace'::BtlPcCmdBadgeEff
 0006:006545F4       `typeinfo for'`anonymous namespace'::BtlPcCmdSpCountDamage
 0006:00654600       `typeinfo name for'`anonymous namespace'::BtlPcCmdSpCountDamage
 0006:00654644       `typeinfo for'`anonymous namespace'::BtlPcCmdTimeStopDmg
 0006:00654650       `typeinfo name for'`anonymous namespace'::BtlPcCmdTimeStopDmg
 0006:00655A74       `typeinfo for'`anonymous namespace'::InvokePostEffTaskBase
 0006:00655A80       `typeinfo name for'`anonymous namespace'::InvokePostEffTaskBase
 0006:00655AC8       `typeinfo for'`anonymous namespace'::InvokePcWaitDfxTask::InvokeBase
 0006:00655AD0       `typeinfo name for'`anonymous namespace'::InvokePcWaitDfxTask::InvokeBase
 0006:00655B20       `typeinfo for'`anonymous namespace'::BtlDmgPcRevive
 0006:00655B2C       `typeinfo name for'`anonymous namespace'::BtlDmgPcRevive
 0006:00655B6C       `typeinfo for'`anonymous namespace'::InvokeTimeBackTask
 0006:00655B78       `typeinfo name for'`anonymous namespace'::InvokeTimeBackTask
 0006:00655BBC       `typeinfo for'`anonymous namespace'::InvokeDamAllTask
 0006:00655BC8       `typeinfo name for'`anonymous namespace'::InvokeDamAllTask
 0006:00655C0C       `typeinfo for'`anonymous namespace'::InvokeChaosTask
 0006:00655C18       `typeinfo name for'`anonymous namespace'::InvokeChaosTask
 0006:00655C58       `typeinfo for'`anonymous namespace'::InvokeDamStTask
 0006:00655C64       `typeinfo name for'`anonymous namespace'::InvokeDamStTask
 0006:00655CA4       `typeinfo for'`anonymous namespace'::InvokeEfCancelTask
 0006:00655CB0       `typeinfo name for'`anonymous namespace'::InvokeEfCancelTask
 0006:00655CF4       `typeinfo for'`anonymous namespace'::InvokeTransKinokoTask
 0006:00655D00       `typeinfo name for'`anonymous namespace'::InvokeTransKinokoTask
 0006:00655D48       `typeinfo for'`anonymous namespace'::InvokeDeadLiveTask
 0006:00655D54       `typeinfo name for'`anonymous namespace'::InvokeDeadLiveTask
 0006:00655D98       `typeinfo for'`anonymous namespace'::InvokePowUpAllTask
 0006:00655DA4       `typeinfo name for'`anonymous namespace'::InvokePowUpAllTask
 0006:00655DE8       `typeinfo for'`anonymous namespace'::InvokeTimeStopTask
 0006:00655DF4       `typeinfo name for'`anonymous namespace'::InvokeTimeStopTask
 0006:00655E38       `typeinfo for'`anonymous namespace'::InvokePcWaitDfxTask
 0006:00655E44       `typeinfo name for'`anonymous namespace'::InvokePcWaitDfxTask
 0006:00655E88       `typeinfo for'`anonymous namespace'::InvokeZeroDamTask
 0006:00655E94       `typeinfo name for'`anonymous namespace'::InvokeZeroDamTask
 0006:00655ED8       `typeinfo for'`anonymous namespace'::InvokeZeroDamTask::Invoke
 0006:00655EE4       `typeinfo name for'`anonymous namespace'::InvokeZeroDamTask::Invoke
 0006:00655F30       `typeinfo for'`anonymous namespace'::InvokeHpLimitTask
 0006:00655F3C       `typeinfo name for'`anonymous namespace'::InvokeHpLimitTask
 0006:00655F80       `typeinfo for'`anonymous namespace'::InvokeHpLimitTask::Invoke
 0006:00655F8C       `typeinfo name for'`anonymous namespace'::InvokeHpLimitTask::Invoke
 0006:00655FD8       `typeinfo for'`anonymous namespace'::InvokeLuckyChanceTask
 0006:00655FE4       `typeinfo name for'`anonymous namespace'::InvokeLuckyChanceTask
 0006:0065602C       `typeinfo for'`anonymous namespace'::InvokeLuckyChanceTask::Invoke
 0006:00656038       `typeinfo name for'`anonymous namespace'::InvokeLuckyChanceTask::Invoke
 0006:00656088       `typeinfo for'`anonymous namespace'::InvokeLuckyTimeTask
 0006:00656094       `typeinfo name for'`anonymous namespace'::InvokeLuckyTimeTask
 0006:006560D8       `typeinfo for'`anonymous namespace'::InvokeLuckyTimeTask::Invoke
 0006:006560E4       `typeinfo name for'`anonymous namespace'::InvokeLuckyTimeTask::Invoke
 0006:00656130       `typeinfo for'`anonymous namespace'::InvokeCoinUpTask
 0006:0065613C       `typeinfo name for'`anonymous namespace'::InvokeCoinUpTask
 0006:00656180       `typeinfo for'`anonymous namespace'::InvokeCoinUpTask::Invoke
 0006:0065618C       `typeinfo name for'`anonymous namespace'::InvokeCoinUpTask::Invoke
 0006:006561D4       `typeinfo for'`anonymous namespace'::InvokeExpUpTask
 0006:006561E0       `typeinfo name for'`anonymous namespace'::InvokeExpUpTask
 0006:00656220       `typeinfo for'`anonymous namespace'::InvokeExpUpTask::Invoke
 0006:0065622C       `typeinfo name for'`anonymous namespace'::InvokeExpUpTask::Invoke
 0006:00656374       `vtable for'`anonymous namespace'::BtlDmgPcRevive
 0006:00656388       `vtable for'`anonymous namespace'::InvokeTimeBackTask
 0006:0065639C       `vtable for'`anonymous namespace'::InvokePostEffTaskBase
 0006:006563B4       `vtable for'`anonymous namespace'::InvokeDamAllTask
 0006:006563CC       `vtable for'`anonymous namespace'::InvokeChaosTask
 0006:006563E4       `vtable for'`anonymous namespace'::InvokeDamStTask
 0006:006563FC       `vtable for'`anonymous namespace'::InvokeEfCancelTask
 0006:00656414       `vtable for'`anonymous namespace'::InvokeTransKinokoTask
 0006:0065642C       `vtable for'`anonymous namespace'::InvokeDeadLiveTask
 0006:00656444       `vtable for'`anonymous namespace'::InvokePowUpAllTask
 0006:0065645C       `vtable for'`anonymous namespace'::InvokeTimeStopTask
 0006:00656474       `vtable for'`anonymous namespace'::InvokePcWaitDfxTask
 0006:00656488       `vtable for'`anonymous namespace'::InvokeZeroDamTask::Invoke
 0006:00656498       `vtable for'`anonymous namespace'::InvokeZeroDamTask
 0006:006564AC       `vtable for'`anonymous namespace'::InvokeHpLimitTask::Invoke
 0006:006564BC       `vtable for'`anonymous namespace'::InvokeHpLimitTask
 0006:006564D0       `vtable for'`anonymous namespace'::InvokeLuckyChanceTask::Invoke
 0006:006564E0       `vtable for'`anonymous namespace'::InvokeLuckyChanceTask
 0006:006564F4       `vtable for'`anonymous namespace'::InvokeLuckyTimeTask::Invoke
 0006:00656504       `vtable for'`anonymous namespace'::InvokeLuckyTimeTask
 0006:00656518       `vtable for'`anonymous namespace'::InvokeCoinUpTask::Invoke
 0006:00656528       `vtable for'`anonymous namespace'::InvokeCoinUpTask
 0006:0065653C       `vtable for'`anonymous namespace'::InvokeExpUpTask::Invoke
 0006:0065654C       `vtable for'`anonymous namespace'::InvokeExpUpTask
 0006:006565D8       `vtable for'CtrFileBase
 0006:00656638       `vtable for'nn::fs::FileInputStream
 0006:00656698       `vtable for'nn::fs::IInputStream
 0006:006567B0       `typeinfo for'`anonymous namespace'::BtlObjECListItem
 0006:006567BC       `typeinfo name for'`anonymous namespace'::BtlObjECListItem
 0006:00656808       `typeinfo for'`anonymous namespace'::BtlObjECAchievedMsg
 0006:00656814       `typeinfo name for'`anonymous namespace'::BtlObjECAchievedMsg
 0006:00656864       `typeinfo for'`anonymous namespace'::BtlTaskNotifyAchievedEC
 0006:00656870       `typeinfo name for'`anonymous namespace'::BtlTaskNotifyAchievedEC
 0006:006568C4       `typeinfo for'`anonymous namespace'::BtlObjECPointPnl
 0006:006568D0       `typeinfo name for'`anonymous namespace'::BtlObjECPointPnl
 0006:0065691C       `typeinfo for'`anonymous namespace'::BtlObjECNextBtn
 0006:00656928       `typeinfo name for'`anonymous namespace'::BtlObjECNextBtn
 0006:00656974       `typeinfo for'`anonymous namespace'::BtlTaskAcquirePointEC
 0006:00656980       `typeinfo name for'`anonymous namespace'::BtlTaskAcquirePointEC
 0006:006569D0       `vtable for'`anonymous namespace'::BtlObjECAchievedMsg
 0006:00656A30       `vtable for'`anonymous namespace'::BtlTaskNotifyAchievedEC
 0006:00656A44       `vtable for'`anonymous namespace'::BtlObjECPointPnl
 0006:00656AA4       `vtable for'`anonymous namespace'::BtlObjECNextBtn
 0006:00656B04       `vtable for'`anonymous namespace'::BtlObjECListItem
 0006:00656B64       `vtable for'`anonymous namespace'::BtlTaskAcquirePointEC
 0006:00656D48       aDataMl4000Sav_0
 0006:00656E44       `vtable for'nn::fs::IInputStream
 0006:006580CB       aP0
 0006:006580D0       aR
 0006:006580D8       aShaderMessageS
 0006:00658106       aR_0
 0006:0065810C       aMessageMeswinC
 0006:006581AC       aUsFrench
 0006:006581C0       aUsSpanish
 0006:006581D8       aUsEnglish
 0006:00672DD0       aRomCommonHomen
 0006:00672EE4       aRomBattleBtlen
 0006:00672F34       aRomBattleBtlen_0
 0006:00672F88       aRomBattleBtlen_1
 0006:00672FD4       aRomBattleBtlen_2
 0006:00673024       aRomBattleBtlen_3
 0006:00673074       aRomBattleBtlen_4
 0006:006730C8       aRomBattleBtlen_5
 0006:0067311C       aRomBattleBtlen_6
 0006:00675FAC       aD_2
 0006:0067EBC8       aYz
 0006:0068A804       a3a
 0006:0068C160       aDBombS_0
 0006:00696BC4       `vtable for'nn::fs::FileInputStream
 0006:00696C24       `vtable for'nn::fs::IInputStream
 0006:00696C80       `vtable for'nn::fs::FileStream
 0006:00696CF8       `vtable for'nn::fs::IStream
 0006:00696D5C       `vtable for'nn::fs::IInputStream
 0006:00696DBC       `vtable for'nn::fs::IOutputStream
 0006:00696F20       aData
 0006:00696F28       aRom_3
 0006:006970A4       `typeinfo for'`anonymous namespace'::ExitHandler
 0006:006970B0       `typeinfo name for'`anonymous namespace'::ExitHandler
 0006:006970F4       `vtable for'`anonymous namespace'::ExitHandler
 0006:00697110       aFsLdr
 0006:00697117       aFsUser
 0006:00698150       aMicU
 0006:00698260       `typeinfo for'nn::ro::detail::IsCodeAddress(uint)::CodeChecker
 0006:0069826C       `typeinfo name for'nn::ro::detail::IsCodeAddress(uint)::CodeChecker
 0006:006982A4       `vtable for'nn::ro::detail::IsCodeAddress(uint)::CodeChecker
 0006:006989A4       aRedspark_1
 0006:0069A368       aDspDsp
 0006:0069A384       `typeinfo for'`anonymous namespace'::ExitHandler
 0006:0069A390       `typeinfo name for'`anonymous namespace'::ExitHandler
 0006:0069A3CC       `vtable for'`anonymous namespace'::ExitHandler
 0006:0069A3D8       `typeinfo for'nn::os::`anonymous namespace'::DefaultAutoStackManager
 0006:0069A3E4       `typeinfo name for'nn::os::`anonymous namespace'::DefaultAutoStackManager
 0006:0069A430       `vtable for'nn::os::`anonymous namespace'::DefaultAutoStackManager
 0006:0069A45C       aSrv
 0006:0069A461       aSrvPm
 0006:0069B140       aNdmU
 0006:0069B1C0       a0123456789abcd
 0006:0069B1D4       a0123456789abcd_0
 0006:0069B643       a0123456789abcd_1
 0006:0069B6EC       `typeinfo for'BigRockAct
 0006:0069B6F8       `typeinfo for'BigWoodAct
 0006:0069B704       `typeinfo for'BtlDfxUnit
 0006:0069B710       `typeinfo for'BtlObjBase
 0006:0069B71C       `typeinfo for'BtlObjBlur
 0006:0069B728       `typeinfo for'BtlObjMove
 0006:0069B734       `typeinfo for'BtlPcAtkEH
 0006:0069B740       `typeinfo for'BtlPcAtkEJ
 0006:0069B74C       `typeinfo for'BtlPcAtkSH
 0006:0069B758       `typeinfo for'BtlPcAtkSJ
 0006:0069B764       `typeinfo for'BtlSndTask
 0006:0069B770       `typeinfo for'BtlVramAlc
 0006:0069B77C       `typeinfo for'CtrArcFile
 0006:0069B788       `typeinfo for'CtrFReadEx
 0006:0069B794       `typeinfo for'CtrFileTmp<BinGlu3AcsIdxHdr>
 0006:0069B7A0       `typeinfo for'DLuigiHige
 0006:0069B7AC       `typeinfo for'DfxPrimMan
 0006:0069B7B8       `typeinfo for'DreamBlock
 0006:0069B7C4       `typeinfo for'DreamEvent
 0006:0069B7D0       `typeinfo for'DreamLuigi
 0006:0069B7DC       `typeinfo for'DreamMainL
 0006:0069B7E8       `typeinfo for'DreamMainU
 0006:0069B7F4       `typeinfo for'DreamMario
 0006:0069B800       `typeinfo for'FieldBlock
 0006:0069B80C       `typeinfo for'FieldBoard
 0006:0069B818       `typeinfo for'FieldChrCA
 0006:0069B838       `typeinfo for'FieldEnemy
 0006:0069B844       `typeinfo for'FieldEvent
 0006:0069B84C       `typeinfo for'FieldLuigi
 0006:0069B858       `typeinfo for'FieldMainL
 0006:0069B864       `typeinfo for'FieldMainU
 0006:0069B870       `typeinfo for'FieldMario
 0006:0069B87C       `typeinfo for'FieldObjCA
 0006:0069B888       `typeinfo for'FieldPCSub
 0006:0069B894       `typeinfo for'FieldTimer
 0006:0069B8A0       `typeinfo for'GimmickIce
 0006:0069B8AC       `typeinfo for'GimmickMan
 0006:0069B8B4       `typeinfo for'HigeTopChr
 0006:0069B8C0       `typeinfo for'LocalEvent
 0006:0069B8CC       `typeinfo for'MABallCtrl
 0006:0069B8D8       `typeinfo for'MAConeCtrl
 0006:0069B8E4       `typeinfo for'MBObjMario
 0006:0069B8F0       `typeinfo for'MBResource
 0006:0069B8FC       `typeinfo for'MemAlcBase
 0006:0069B904       `typeinfo for'MemAlcUnit
 0006:0069B910       `typeinfo for'MiracleChr
 0006:0069B91C       `typeinfo for'RealCAInfo
 0006:0069B928       `typeinfo for'RealPlayer
 0006:0069B934       `typeinfo for'RealSystem
 0006:0069B940       `typeinfo for'ScriptUnit
 0006:0069B948       `typeinfo for'StateIntro
 0006:0069B954       `typeinfo for'SubGimmick
 0006:0069B960       `typeinfo for'yaMarioBox
 0006:0069B96C       `typeinfo for'BtlAtkMJCam
 0006:0069B978       `typeinfo for'BtlDropCoin
 0006:0069B984       `typeinfo for'BtlListBase
 0006:0069B98C       `typeinfo for'BtlListTmpl<BtlObjBase>
 0006:0069B998       `typeinfo for'BtlListTmpl<BtlSndTask>
 0006:0069B9A4       `typeinfo for'BtlListTmpl<BtlDropCoin>
 0006:0069B9B0       `typeinfo for'BtlListTmpl<BtlTaskBase>
 0006:0069B9BC       `typeinfo for'BtlListTmpl<BtlObjDtBase>
 0006:0069B9C8       `typeinfo for'BtlListTmpl<BtlDfxWorkPos>
 0006:0069B9D4       `typeinfo for'BtlListTmpl<BtlAct>
 0006:0069B9E0       `typeinfo for'BtlListTmpl<BtlHit>
 0006:0069B9EC       `typeinfo for'BtlListTmpl<BtlDfxCA>
 0006:0069B9F8       `typeinfo for'BtlListTmpl<BtlDfxMdl>
 0006:0069BA04       `typeinfo for'BtlListTmpl<Badge::ObjBase>
 0006:0069BA10       `typeinfo for'BtlListTmpl<Badge::DfxHandle>
 0006:0069BA1C       `typeinfo for'BtlListTmpl<BtlMon::SpEffActTimeStop>
 0006:0069BA28       `typeinfo for'BtlMainFunc
 0006:0069BA34       `typeinfo for'BtlObjHpPnl
 0006:0069BA40       `typeinfo for'BtlPcCmdBlk
 0006:0069BA4C       `typeinfo for'BtlTaskBase
 0006:0069BA58       `typeinfo for'BtlTaskList
 0006:0069BA64       `typeinfo for'CtrFileBase
 0006:0069BA70       `typeinfo for'CtrSaveFile
 0006:0069BA7C       `typeinfo for'CtrSaveRead
 0006:0069BA88       `typeinfo for'DreamCAInfo
 0006:0069BA94       `typeinfo for'DreamPlayer
 0006:0069BAA0       `typeinfo for'DreamSystem
 0006:0069BAAC       `typeinfo for'FieldCAInfo
 0006:0069BAB4       `typeinfo for'FieldCAList
 0006:0069BAC0       `typeinfo for'FieldCamera
 0006:0069BAC8       `typeinfo for'FieldChrMdl
 0006:0069BAE8       `typeinfo for'FieldColChr
 0006:0069BAF4       `typeinfo for'FieldMapMdl
 0006:0069BB00       `typeinfo for'FieldModule
 0006:0069BB08       `typeinfo for'FieldNumber
 0006:0069BB14       `typeinfo for'FieldObjMdl
 0006:0069BB20       `typeinfo for'FieldPlayer
 0006:0069BB28       `typeinfo for'FieldSystem
 0006:0069BB34       `typeinfo for'GimmickTask
 0006:0069BB3C       `typeinfo for'GlobalEvent
 0006:0069BB48       `typeinfo for'HookShotAct
 0006:0069BB54       `typeinfo for'IDfxPrimMan
 0006:0069BB5C       `typeinfo for'MainGimmick
 0006:0069BB68       `typeinfo for'RenderQueue
 0006:0069BB74       `typeinfo for'RotBoardAct
 0006:0069BB80       `typeinfo for'TaskListMan
 0006:0069BB88       `typeinfo for'TorBlockAct
 0006:0069BB94       `typeinfo for'VramAlcBase
 0006:0069BB9C       `typeinfo for'BomHitBroken
 0006:0069BBA8       `typeinfo for'BtlAISysBase
 0006:0069BBB4       `typeinfo for'BtlDfxHandle
 0006:0069BBC0       `typeinfo for'BtlMainProxy
 0006:0069BBCC       `typeinfo for'BtlObjCancel
 0006:0069BBD8       `typeinfo for'BtlObjCursor
 0006:0069BBE4       `typeinfo for'BtlObjDmgNum
 0006:0069BBF0       `typeinfo for'BtlObjDtBase
 0006:0069BBFC       `typeinfo for'BtlObjString
 0006:0069BC08       `typeinfo for'BtlPcDefJump
 0006:0069BC14       `typeinfo for'BtlPcDmgDown
 0006:0069BC20       `typeinfo for'BtlPcDmgSlip
 0006:0069BC2C       `typeinfo for'BtlPcDmgToge
 0006:0069BC38       `typeinfo for'BtlPcUseItem
 0006:0069BC44       `typeinfo for'ChaseGimmick
 0006:0069BC50       `typeinfo for'CrashRockMan
 0006:0069BC58       `typeinfo for'CtrFReadBase
 0006:0069BC64       `typeinfo for'CtrNullNwAlc
 0006:0069BC70       `typeinfo for'CtrSaveWrite
 0006:0069BC7C       `typeinfo for'DLuigiRotBed
 0006:0069BC88       `typeinfo for'DLuigiSwitch
 0006:0069BC94       `typeinfo for'FieldBoardCA
 0006:0069BCB4       `typeinfo for'FieldChrBase
 0006:0069BCBC       `typeinfo for'FieldChrPrim
 0006:0069BCDC       `typeinfo for'FieldDfxUnit
 0006:0069BCE8       `typeinfo for'FieldEnemyCA
 0006:0069BD08       `typeinfo for'FieldGetItem
 0006:0069BD14       `typeinfo for'FieldObjBase
 0006:0069BD1C       `typeinfo for'FieldShimmer
 0006:0069BD24       `typeinfo for'FieldSrtBase
 0006:0069BD2C       `typeinfo for'GimmickEmpty
 0006:0069BD38       `typeinfo for'HangFloorAct
 0006:0069BD44       `typeinfo for'MAJumbleCtrl
 0006:0069BD50       `typeinfo for'MAPillarCtrl
 0006:0069BD5C       `typeinfo for'MBObjBallMan
 0006:0069BD7C       `typeinfo for'MiracleObjCA
 0006:0069BD88       `typeinfo for'RealGuideMap
 0006:0069BD94       `typeinfo for'ScriptSystem
 0006:0069BD9C       `typeinfo for'SmallRockAct
 0006:0069BDA8       `typeinfo for'SmallWoodAct
 0006:0069BDB4       `typeinfo for'SplMoveObjCA
 0006:0069BDC0       `typeinfo for'TaskMainBase
 0006:0069BDCC       `typeinfo for'UIListWindow
 0006:0069BDD8       `typeinfo for'VramAlcRange
 0006:0069BDE4       `typeinfo for'clRfxSysBase
 0006:0069BDEC       `typeinfo for'BtlAtkMJLuigi
 0006:0069BDF8       `typeinfo for'BtlAtkMJMario
 0006:0069BE04       `typeinfo for'BtlChrCmdBase
 0006:0069BE0C       `typeinfo for'BtlChrDmgBase
 0006:0069BE14       `typeinfo for'BtlDfxWorkPos
 0006:0069BE20       `typeinfo for'BtlLockMemAlc
 0006:0069BE2C       `typeinfo for'BtlObjBlkName
 0006:0069BE38       `typeinfo for'BtlObjCoinPnl
 0006:0069BE44       `typeinfo for'BtlObjDefIcon
 0006:0069BE50       `typeinfo for'BtlObjEstStar
 0006:0069BE5C       `typeinfo for'BtlObjListWnd
 0006:0069BE68       `typeinfo for'BtlObjTrgName
 0006:0069BE74       `typeinfo for'CtrLoadModule
 0006:0069BE80       `typeinfo for'CtrModuleFile
 0006:0069BE8C       `typeinfo for'CtrSaveFormat
 0006:0069BE98       `typeinfo for'DLuigiNoseRot
 0006:0069BEA4       `typeinfo for'DLuigiNoseSnz
 0006:0069BEB0       `typeinfo for'DreamGuideMap
 0006:0069BEBC       `typeinfo for'DreamMarioSub
 0006:0069BEC8       `typeinfo for'FieldBoardMdl
 0006:0069BEE8       `typeinfo for'FieldGuideMap
 0006:0069BEF0       `typeinfo for'FieldMainBase
 0006:0069BEF8       `typeinfo for'FieldSystemCA
 0006:0069BF04       `typeinfo for'FieldTaskList
 0006:0069BF10       `typeinfo for'GimmickRotMap
 0006:0069BF1C       `typeinfo for'GimmickSneeze
 0006:0069BF28       `typeinfo for'MessageSimple
 0006:0069BF34       `typeinfo for'MessageWriter
 0006:0069BF3C       `typeinfo for'TiltSwitchAct
 0006:0069BF48       `typeinfo for'WaterFloorAct
 0006:0069BF54       `typeinfo for'BtlExtListTmpl<BtlDfxUnit>
 0006:0069BF60       `typeinfo for'BtlExtListTmpl<BtlObjBlur>
 0006:0069BF6C       `typeinfo for'BtlExtListTmpl<BtlSndTask>
 0006:0069BF78       `typeinfo for'BtlExtListTmpl<BtlObjDmgNum>
 0006:0069BF84       `typeinfo for'BtlExtListTmpl<BtlObjEstStar>
 0006:0069BF90       `typeinfo for'BtlExtListTmpl<BtlObjIronBall>
 0006:0069BF9C       `typeinfo for'BtlExtListTmpl<BtlObjEffIndicate>
 0006:0069BFA8       `typeinfo for'BtlExtListTmpl<BtlObjDropItemBase>
 0006:0069BFB4       `typeinfo for'BtlExtListTmpl<BtlAI>
 0006:0069BFC0       `typeinfo for'BtlExtListTmpl<BtlPc>
 0006:0069BFCC       `typeinfo for'BtlExtListTmpl<BtlMon>
 0006:0069BFD8       `typeinfo for'BtlExtListTmpl<BtlObj>
 0006:0069BFE4       `typeinfo for'BtlExtListTmpl<`anonymous namespace'::BtlObjMasAnis>
 0006:0069BFF0       `typeinfo for'BtlExtListTmpl<`anonymous namespace'::BtlObjMasAnisAnies>
 0006:0069BFFC       `typeinfo for'BtlExtListTmpl<`anonymous namespace'::BtlObjMasAnisShockwave>
 0006:0069C008       `typeinfo for'BtlExtListTmpl<`anonymous namespace'::BtlObjTunogon>
 0006:0069C014       `typeinfo for'BtlExtListTmpl<`anonymous namespace'::BtlObjTunogonCoin>
 0006:0069C020       `typeinfo for'BtlExtListTmpl<`anonymous namespace'::BtlObjTunogonMakibisi>
 0006:0069C02C       `typeinfo for'BtlObjAlertMsg
 0006:0069C038       `typeinfo for'BtlObjBadgeEff
 0006:0069C044       `typeinfo for'BtlObjBaseBase
 0006:0069C050       `typeinfo for'BtlObjDropItem
 0006:0069C05C       `typeinfo for'BtlObjDropMame
 0006:0069C068       `typeinfo for'BtlObjEstimate
 0006:0069C074       `typeinfo for'BtlObjGameOver
 0006:0069C080       `typeinfo for'BtlObjIronBall
 0006:0069C08C       `typeinfo for'BtlObjRetryMsg
 0006:0069C098       `typeinfo for'BtlObjTurnSkip
 0006:0069C0A4       `typeinfo for'BtlPcDefHammer
 0006:0069C0B0       `typeinfo for'BtlPcDmgYakedo
 0006:0069C0BC       `typeinfo for'CrashObjectAct
 0006:0069C0C8       `typeinfo for'CtrFReadSimple
 0006:0069C0D4       `typeinfo for'CtrFUncompSize
 0006:0069C0E0       `typeinfo for'DLuigiPartTask
 0006:0069C0E8       `typeinfo for'DreamMLMiracle
 0006:0069C0F4       `typeinfo for'FieldBlockItem
 0006:0069C100       `typeinfo for'FieldCAChrBase
 0006:0069C10C       `typeinfo for'FieldChrPrimCA
 0006:0069C12C       `typeinfo for'GimmickGravity
 0006:0069C138       `typeinfo for'IDfxSeCallBack
 0006:0069C140       `typeinfo for'IMiracleChrAct
 0006:0069C148       `typeinfo for'MemAlcLockTmpl<MemAlcH>
 0006:0069C154       `typeinfo for'MiracleGimmick
 0006:0069C160       `typeinfo for'NdlTorBlockAct
 0006:0069C16C       `typeinfo for'RotHookShotAct
 0006:0069C178       `typeinfo for'AfterImageObjCA
 0006:0069C184       `typeinfo for'BtlObjHpPnlDraw
 0006:0069C190       `typeinfo for'BtlObjRetryFade
 0006:0069C19C       `typeinfo for'BtlObjScreenInk
 0006:0069C1A8       `typeinfo for'BtlPcCmdCarryOn
 0006:0069C1B4       `typeinfo for'BtlPcDmgDefault
 0006:0069C1C0       `typeinfo for'BtlSpEffActBase
 0006:0069C1CC       `typeinfo for'CtrLoadModuleEx
 0006:0069C1D8       `typeinfo for'CtrUnloadModule
 0006:0069C1E4       `typeinfo for'FieldActionIcon
 0006:0069C1F0       `typeinfo for'FieldMdlChrBase
 0006:0069C1FC       `typeinfo for'GfxRenderTarget
 0006:0069C208       `typeinfo for'GimmickCylinder
 0006:0069C214       `typeinfo for'GimmickHigeBase
 0006:0069C220       `typeinfo for'GimmickHigeTree
 0006:0069C22C       `typeinfo for'InCoinObjectAct
 0006:0069C238       `typeinfo for'MsgDataAcsrBase
 0006:0069C240       `typeinfo for'RenderDrawSysCA
 0006:0069C24C       `typeinfo for'RenderQueueBase
 0006:0069C254       `typeinfo for'UIScrollMessage
 0006:0069C260       `typeinfo for'yaLuigiBoxLocal
 0006:0069C268       `typeinfo for'BombStrikeMngAct
 0006:0069C274       `typeinfo for'BtlObjTurnRemain
 0006:0069C280       `typeinfo for'BtlPcAtkIronBall
 0006:0069C28C       `typeinfo for'BtlPcAtkSH_Luigi
 0006:0069C298       `typeinfo for'BtlPcAtkSJ_Luigi
 0006:0069C2A4       `typeinfo for'BtlTaskRetryMenu
 0006:0069C2B0       `typeinfo for'FieldGlobalEvent
 0006:0069C2BC       `typeinfo for'FieldTaskListMan
 0006:0069C2D4       `typeinfo for'GimmickHaneBlock
 0006:0069C2E0       `typeinfo for'GimmickPropeller
 0006:0069C2EC       `typeinfo for'RealRingKuguriUI
 0006:0069C30C       `typeinfo for'RenderDrawSysDFX
 0006:0069C318       `typeinfo for'RenderDrawSysGfx
 0006:0069C324       `typeinfo for'RenderDrawSysMsg
 0006:0069C330       `typeinfo for'UIListWindowPlus
 0006:0069C33C       `typeinfo for'BtlMapDfxWrapBase
 0006:0069C344       `typeinfo for'BtlMonAtkBTuraAtk
 0006:0069C350       `typeinfo for'BtlMonDmgAvoidHam
 0006:0069C35C       `typeinfo for'BtlMoveAttachBase
 0006:0069C364       `typeinfo for'BtlObjDtSimpleArc
 0006:0069C370       `typeinfo for'BtlObjEffIndicate
 0006:0069C37C       `typeinfo for'BtlObjLuckyChance
 0006:0069C388       `typeinfo for'BtlObjLuigiBoxMan
 0006:0069C3A8       `typeinfo for'BtlPcAtkEntrySlip
 0006:0069C3B4       `typeinfo for'BtlTaskPcCarryOff
 0006:0069C3C0       `typeinfo for'DreamMarioMiracle
 0006:0069C3CC       `typeinfo for'FieldCameraStereo
 0006:0069C3D8       `typeinfo for'GimmickTimeChange
 0006:0069C3E4       `typeinfo for'RealBallRingEvent
 0006:0069C3F0       `typeinfo for'RenderDrawSysBase
 0006:0069C3F8       `typeinfo for'RenderDrawSysPrim
 0006:0069C404       `typeinfo for'BtlBrosAtkFlCopter
 0006:0069C410       `typeinfo for'BtlExtListCoreTmpl<BtlDfxUnit,392u>
 0006:0069C41C       `typeinfo for'BtlExtListCoreTmpl<BtlObjBase,20u>
 0006:0069C428       `typeinfo for'BtlExtListCoreTmpl<BtlObjBlur,316u>
 0006:0069C434       `typeinfo for'BtlExtListCoreTmpl<BtlSndTask,84u>
 0006:0069C440       `typeinfo for'BtlExtListCoreTmpl<BtlObjDmgNum,256u>
 0006:0069C44C       `typeinfo for'BtlExtListCoreTmpl<BtlObjEstStar,256u>
 0006:0069C458       `typeinfo for'BtlExtListCoreTmpl<BtlObjIronBall,1012u>
 0006:0069C464       `typeinfo for'BtlExtListCoreTmpl<BtlObjEffIndicate,452u>
 0006:0069C470       `typeinfo for'BtlExtListCoreTmpl<BtlObjDropItemBase,256u>
 0006:0069C47C       `typeinfo for'BtlExtListCoreTmpl<BtlAI,116u>
 0006:0069C488       `typeinfo for'BtlExtListCoreTmpl<BtlPc,428u>
 0006:0069C494       `typeinfo for'BtlExtListCoreTmpl<BtlMon,428u>
 0006:0069C4A0       `typeinfo for'BtlExtListCoreTmpl<BtlObj,1012u>
 0006:0069C4AC       `typeinfo for'BtlExtListCoreTmpl<`anonymous namespace'::BtlObjMasAnis,1020u>
 0006:0069C4B8       `typeinfo for'BtlExtListCoreTmpl<`anonymous namespace'::BtlObjMasAnisAnies,1076u>
 0006:0069C4C4       `typeinfo for'BtlExtListCoreTmpl<`anonymous namespace'::BtlObjMasAnisShockwave,1048u>
 0006:0069C4D0       `typeinfo for'BtlExtListCoreTmpl<`anonymous namespace'::BtlObjTunogon,1016u>
 0006:0069C4DC       `typeinfo for'BtlExtListCoreTmpl<`anonymous namespace'::BtlObjTunogonCoin,1036u>
 0006:0069C4E8       `typeinfo for'BtlExtListCoreTmpl<`anonymous namespace'::BtlObjTunogonMakibisi,1036u>
 0006:0069C4F4       `typeinfo for'BtlExtListCoreTmpl<Badge::ObjBase,72u>
 0006:0069C500       `typeinfo for'BtlObjDropItemBase
 0006:0069C50C       `typeinfo for'BtlTaskEndCallback
 0006:0069C518       `typeinfo for'GimmickExchangeMap
 0006:0069C524       `typeinfo for'GimmickZeroGravity
 0006:0069C530       `typeinfo for'RealMuyuPanelEvent
 0006:0069C550       `typeinfo for'RealPropellerEvent
 0006:0069C570       `typeinfo for'RenderDrawSysDummy
 0006:0069C57C       `typeinfo for'BtlObjAbnNameCmdBlk
 0006:0069C588       `typeinfo for'BtlObjChargeCounter
 0006:0069C594       `typeinfo for'BtlPcAtkMidoriKoura
 0006:0069C5A0       `typeinfo for'BtlPcAtkMiracleBall
 0006:0069C5AC       `typeinfo for'BtlPcAtkMiracleJump
 0006:0069C5B8       `typeinfo for'BtlPcAtkSH_PcDfxObj
 0006:0069C5C4       `typeinfo for'BtlPcAtkSJ_PcDfxObj
 0006:0069C5D0       `typeinfo for'FieldGuideMapButton
 0006:0069C5DC       `typeinfo for'RealEventProgramAct
 0006:0069C5E4       `typeinfo for'RealRingKuguriEvent
 0006:0069C604       `typeinfo for'RealShiohigariEvent
 0006:0069C624       `typeinfo for'yaLuigiBoxLocal_TOP
 0006:0069C630       `typeinfo for'BtlAtkMJCamState_End
 0006:0069C63C       `typeinfo for'BtlDfxUnitSeCallback
 0006:0069C648       `typeinfo for'BtlMonAtkMasAnisAtk3
 0006:0069C654       `typeinfo for'BtlMonAtkTunogonAtk1
 0006:0069C660       `typeinfo for'BtlObjDropItemMsgWnd
 0006:0069C66C       `typeinfo for'MsgDataAcsrTmplFixed<(uchar)4>
 0006:0069C678       `typeinfo for'RealEventProgramTask
 0006:0069C680       `typeinfo for'RealMoguriPanelEvent
 0006:0069C68C       `typeinfo for'RealNobiruDokanEvent
 0006:0069C698       `typeinfo for'BtlAtkMJBoxState_Jump
 0006:0069C6A4       `typeinfo for'BtlAtkMJBoxState_Main
 0006:0069C6B0       `typeinfo for'BtlAtkMJCamState_Main
 0006:0069C6BC       `typeinfo for'BtlMoveAttachSpline3d
 0006:0069C6C8       `typeinfo for'MBPlayBuildWallEffect
 0006:0069C6D4       `typeinfo for'BtlAtkMJBoxState_Intro
 0006:0069C6E0       `typeinfo for'BtlAtkMJCamState_Intro
 0006:0069C6EC       `typeinfo for'BtlPcAtkMiracleTornado
 0006:0069C6F8       `typeinfo for'BtlTaskMonDmgStompBase
 0006:0069C704       `typeinfo for'FieldDfxUnitSeCallback
 0006:0069C710       `typeinfo for'RealKuruKuruDokanEvent
 0006:0069C71C       `typeinfo for'BtlAtkMJBoxState_Attach
 0006:0069C728       `typeinfo for'BtlAtkMJBoxState_Detach
 0006:0069C734       `typeinfo for'BtlAtkMJCamState_GoHome
 0006:0069C740       `typeinfo for'BtlAtkMJLuigiState_Init
 0006:0069C74C       `typeinfo for'BtlAtkMJLuigiState_Jump
 0006:0069C758       `typeinfo for'FieldSaveExDataAcsrBase
 0006:0069C760       `typeinfo for'FieldSaveExDataAcsrRead
 0006:0069C76C       `typeinfo for'BtlDmgPcAbnRecoverYakedo
 0006:0069C778       `typeinfo for'FieldSaveExDataAcsrWrite
 0006:0069C784       `typeinfo for'RealCharinkoGondolaEvent
 0006:0069C7A4       `typeinfo for'BtlAtkMJLuigiState_Attach
 0006:0069C7B0       `typeinfo for'BtlAtkMJMarioState_Attach
 0006:0069C7BC       `typeinfo for'BtlAtkMJMarioState_Detach
 0006:0069C7C8       `typeinfo for'BtlAtkMJBoxState_FinalJump
 0006:0069C7D4       `typeinfo for'BtlAtkMJBoxState_SmallJump
 0006:0069C7E0       `typeinfo for'BtlAtkMJCamState_FinalStomp
 0006:0069C7EC       `typeinfo for'BtlAtkMJLuigiState_FinalJump
 0006:0069C7F8       `typeinfo for'BtlAtkMJLuigiState_SmallJump
 0006:0069C804       `typeinfo for'BtlAtkMJMarioState_FinalJump
 0006:0069C810       `typeinfo for'BtlAtkMJMarioState_SmallJump
 0006:0069C81C       `typeinfo for'BtlAtkMJMarioState_StompToge
 0006:0069C828       `typeinfo for'BtlAtkMJCamState_FinalStompNG
 0006:0069C834       `typeinfo for'BtlAtkMJCamState_FinalStompOK
 0006:0069C840       `typeinfo for'BtlAtkMJLuigiState_BaraAttack
 0006:0069C84C       `typeinfo for'BtlAtkMJMarioState_BaraAttack
 0006:0069C858       `typeinfo for'FieldCompulsiveMessageColorAnm
 0006:0069C864       `typeinfo for'BtlAtkMJMarioState_FinalJump_NG
 0006:0069C870       `typeinfo for'BtlAtkMJMarioState_FinalJump_OK
 0006:0069C87C       `typeinfo for'BtlAtkMJBoxState_FinalJumpFailed
 0006:0069C888       `typeinfo for'BtlAtkMJBoxState_FinalJumpSuccess
 0006:0069C894       `typeinfo for'BtlAtkMJLuigiState_FinalLandOnDestroy
 0006:0069C8A0       `typeinfo for'BtlAtkMJMarioState_FinalLandOnDestroy
 0006:0069C8AC       `typeinfo for'Dfx
 0006:0069C8B8       `typeinfo for'Job
 0006:0069C8C0       `typeinfo for'Boot
 0006:0069C8CC       `typeinfo for'Task
 0006:0069C8D4       `typeinfo for'BtlAI
 0006:0069C8EC       `typeinfo for'BtlPc
 0006:0069C8F8       `typeinfo for'CtrFS
 0006:0069C900       `typeinfo for'MoveF<1u>
 0006:0069C90C       `typeinfo for'MoveV<1u>
 0006:0069C918       `typeinfo for'MoveV<2u>
 0006:0069C924       `typeinfo for'MoveV<3u>
 0006:0069C930       `typeinfo for'clRfx
 0006:0069C938       `typeinfo for'BtlAct
 0006:0069C944       `typeinfo for'BtlChr
 0006:0069C950       `typeinfo for'BtlHit
 0006:0069C95C       `typeinfo for'BtlMon
 0006:0069C968       `typeinfo for'BtlObj
 0006:0069C974       `typeinfo for'DLuigi
 0006:0069C97C       `typeinfo for'DfxSys
 0006:0069C988       `typeinfo for'JobMan
 0006:0069C990       `typeinfo for'MemAlc
 0006:0069C99C       `typeinfo for'NutAct
 0006:0069C9A8       `typeinfo for'RealFS
 0006:0069C9B4       `typeinfo for'RealML
 0006:0069C9C0       `typeinfo for'BtlAIDt
 0006:0069C9CC       `typeinfo for'BtlLink
 0006:0069C9D4       `typeinfo for'BtlMain
 0006:0069C9DC       `typeinfo for'BtlNode
 0006:0069C9E8       `typeinfo for'CtrFEnd
 0006:0069C9F4       `typeinfo for'CtrFSEx
 0006:0069CA00       `typeinfo for'DfxUnit
 0006:0069CA08       `typeinfo for'DreamFS
 0006:0069CA14       `typeinfo for'DreamML
 0006:0069CA20       `typeinfo for'FieldCA
 0006:0069CA40       `typeinfo for'FieldFS
 0006:0069CA4C       `typeinfo for'FieldML
 0006:0069CA54       `typeinfo for'FieldPC
 0006:0069CA60       `typeinfo for'FireAct
 0006:0069CA6C       `typeinfo for'GustAct
 0006:0069CA78       `typeinfo for'IMACtrl
 0006:0069CA80       `typeinfo for'MemAlcB
 0006:0069CA8C       `typeinfo for'MemAlcF
 0006:0069CA98       `typeinfo for'MemAlcH
 0006:0069CAA4       `typeinfo for'Message
 0006:0069CAB0       `typeinfo for'SnowAct
 0006:0069CABC       `typeinfo for'TestAct
 0006:0069CAC8       `typeinfo for'BtlDfxCA
 0006:0069CAD4       `typeinfo for'BtlLuigi
 0006:0069CAE0       `typeinfo for'BtlMario
 0006:0069CAEC       `typeinfo for'BtlMonDt
 0006:0069CAF8       `typeinfo for'BtlMsgDt
 0006:0069CB04       `typeinfo for'BtlObjDt
 0006:0069CB10       `typeinfo for'CtrFRead
 0006:0069CB1C       `typeinfo for'CtrNwAlc
 0006:0069CB28       `typeinfo for'FieldChr
 0006:0069CB34       `typeinfo for'GXResCmd
 0006:0069CB40       `typeinfo for'GXResCmn
 0006:0069CB48       `typeinfo for'GXResTex
 0006:0069CB54       `typeinfo for'GXResVtx
 0006:0069CB60       `typeinfo for'GameMain
 0006:0069CB6C       `typeinfo for'MBObjCam
 0006:0069CB78       `typeinfo for'MBObjMon
 0006:0069CB98       `typeinfo for'MarioObj
 0006:0069CBA4       `typeinfo for'RealMuyu
 0006:0069CBC4       `typeinfo for'RealRing
 0006:0069CBE4       `typeinfo for'StateEnd
 0006:0069CBF0       `typeinfo for'TaskList
 0006:0069CBF8       `typeinfo for'UICommon
 0006:0069CC00       `typeinfo for'clRfxSys
 0006:0069CC0C       `typeinfo for'BtlActMan
 0006:0069CC18       `typeinfo for'BtlCamera
 0006:0069CC24       `typeinfo for'BtlDfxMdl
 0006:0069CC30       `typeinfo for'BtlObjBlk
 0006:0069CC3C       `typeinfo for'CellAnime
 0006:0069CC44       `typeinfo for'CrashRock
 0006:0069CC50       `typeinfo for'CtrJobMan
 0006:0069CC5C       `typeinfo for'CtrModule
 0006:0069CC64       `typeinfo for'CtrThread
 0006:0069CC7C       `typeinfo for'DLuigiCam
 0006:0069CC84       `typeinfo for'DLuigiEtc
 0006:0069CC90       `typeinfo for'DreamGate
 0006:0069CC98       `typeinfo for'DummyRock
 0006:0069CCA4       `typeinfo for'FieldCoin
 0006:0069CCB0       `typeinfo for'FieldIcon
 0006:0069CCBC       `typeinfo for'GfxScnSys
 0006:0069CCC4       `typeinfo for'MBObjBase
 0006:0069CCD0       `typeinfo for'MoveFBase
 0006:0069CCD8       `typeinfo for'MoveVBase
 0006:0069CCE0       `typeinfo for'MoveWorkF
 0006:0069CCE8       `typeinfo for'MoveWorkV
 0006:0069CCF4       `typeinfo for'NeedleAct
 0006:0069CD00       `typeinfo for'RealCrack
 0006:0069CD20       `typeinfo for'RealEvent
 0006:0069CD2C       `typeinfo for'RealLuigi
 0006:0069CD38       `typeinfo for'RealMainL
 0006:0069CD44       `typeinfo for'RealMainU
 0006:0069CD50       `typeinfo for'RealMario
 0006:0069CD5C       `typeinfo for'RealPCSub
 0006:0069CD68       `typeinfo for'ShadowSys
 0006:0069CD70       `typeinfo for'StateMain
 0006:0069CD7C       `typeinfo for'StdRender
 0006:0069CD84       `typeinfo for'BtlEndTask::BtlEndTaskBase
 0006:0069CD8C       `typeinfo for'BtlEndTask::BtlEndTaskPcWin
 0006:0069CD98       `typeinfo for'BtlPcAtkSH::MissHammerDfxHandle
 0006:0069CDA4       `typeinfo for'KameckAtk4::yaUt::ProcessBase
 0006:0069CDB0       `typeinfo for'KameckAtk4::yaUt::SphereCollider
 0006:0069CDBC       `typeinfo for'KameckAtk4::yaUt::State<KameckAtk4::Broom>
 0006:0069CDC4       `typeinfo for'KameckAtk4::yaUt::State<KameckAtk4::Mario>
 0006:0069CDCC       `typeinfo for'KameckAtk4::yaUt::State<KameckAtk4::AtkCmd>
 0006:0069CDD4       `typeinfo for'KameckAtk4::yaUt::State<KameckAtk4::Camera>
 0006:0069CDDC       `typeinfo for'KameckAtk4::yaUt::State<KameckAtk4::Kameck>
 0006:0069CDE4       `typeinfo for'KameckAtk4::yaUt::LinkNode
 0006:0069CDEC       `typeinfo for'KameckAtk4::yaUt::ICollider
 0006:0069CDF8       `typeinfo for'KameckAtk4::Broom::StateAttack
 0006:0069CE04       `typeinfo for'KameckAtk4::Broom::StateMixing
 0006:0069CE10       `typeinfo for'KameckAtk4::Broom::StateFinalSweep
 0006:0069CE1C       `typeinfo for'KameckAtk4::Broom::StateIntroSummon
 0006:0069CE28       `typeinfo for'KameckAtk4::Broom::StateMoveToKameck_Fly
 0006:0069CE34       `typeinfo for'KameckAtk4::Broom::StateMoveToKameck_Land
 0006:0069CE40       `typeinfo for'KameckAtk4::Mario::StateMixing
 0006:0069CE4C       `typeinfo for'KameckAtk4::Mario::StateComeBack
 0006:0069CE58       `typeinfo for'KameckAtk4::Mario::StateGoToHome
 0006:0069CE64       `typeinfo for'KameckAtk4::Mario::StateComeBackDead
 0006:0069CE70       `typeinfo for'KameckAtk4::Mario::StateEscapeDigital
 0006:0069CE7C       `typeinfo for'KameckAtk4::Mario::StateHitBroomFinal
 0006:0069CE88       `typeinfo for'KameckAtk4::Mario::StateHitBroomMixing
 0006:0069CE94       `typeinfo for'KameckAtk4::AtkCmd::StateIntro
 0006:0069CEA0       `typeinfo for'KameckAtk4::AtkCmd
 0006:0069CEAC       `typeinfo for'KameckAtk4::Camera::StateGoToHome
 0006:0069CEB8       `typeinfo for'KameckAtk4::Camera::StateIntroSummon
 0006:0069CEC4       `typeinfo for'KameckAtk4::Camera::StateMarioFollow
 0006:0069CED0       `typeinfo for'KameckAtk4::Kameck::StateSweep
 0006:0069CEDC       `typeinfo for'KameckAtk4::Kameck::StateBroomOut
 0006:0069CEE8       `typeinfo for'KameckAtk4::Kameck::StateControlAnm
 0006:0069CEF4       `typeinfo for'KameckAtk4::Kameck::StateMoveHome_Fly
 0006:0069CF00       `typeinfo for'KameckAtk4::Kameck::StateMoveHome_Land
 0006:0069CF0C       `typeinfo for'KameckAtk4::Resource::Loader
 0006:0069CF18       `typeinfo for'__cxxabiv1::__class_type_info
 0006:0069CF24       `typeinfo for'__cxxabiv1::__si_class_type_info
 0006:0069CF30       `typeinfo for'__cxxabiv1::__vmi_class_type_info
 0006:0069CF3C       `typeinfo for'BtlAbnormal::TaskAbnDfxTimeStop
 0006:0069CF48       `typeinfo for'BtlAbnormal::Act
 0006:0069CF54       `typeinfo for'BtlDropCoin::Coin
 0006:0069CF60       `typeinfo for'BtlMainFunc::JobInitDfxMsg
 0006:0069CF6C       `typeinfo for'BtlMainFunc::AbortTaskEndCallback
 0006:0069CF78       `typeinfo for'BtlPcCmdBlk::ChgScrCallback
 0006:0069CF84       `typeinfo for'BtlPcCmdBlk::ExecBadgeEffCallback
 0006:0069CF90       `typeinfo for'BtlPcCmdBlk::SelectBadgeEffCallback
 0006:0069CF9C       `typeinfo for'BtlTaskBase::CallbackBase
 0006:0069CFA4       `typeinfo for'MDCHALLENGE::BossTarget
 0006:0069CFB0       `typeinfo for'MDCHALLENGE::ZakoTarget
 0006:0069CFBC       `typeinfo for'MDCHALLENGE::yaUt::ProcessBase
 0006:0069CFC8       `typeinfo for'MDCHALLENGE::yaUt::LinkNode
 0006:0069CFD0       `typeinfo for'MDCHALLENGE::AtkCmd::StateIntro
 0006:0069CFDC       `typeinfo for'MDCHALLENGE::AtkCmd::StateFinalize
 0006:0069CFE8       `typeinfo for'MDCHALLENGE::AtkCmd::StateGame
 0006:0069CFF4       `typeinfo for'MDCHALLENGE::AtkCmd
 0006:0069D000       `typeinfo for'MDCHALLENGE::ITarget
 0006:0069D008       `typeinfo for'MDCHALLENGE::Resource
 0006:0069D014       `typeinfo for'FLCCHALLENGE::StateIntro
 0006:0069D020       `typeinfo for'FLCCHALLENGE::StateFinalize
 0006:0069D02C       `typeinfo for'FLCCHALLENGE::IObjStompTarget
 0006:0069D034       `typeinfo for'FLCCHALLENGE::ItemDamageBalloon
 0006:0069D040       `typeinfo for'FLCCHALLENGE::ObjStompTarget_Mon
 0006:0069D04C       `typeinfo for'FLCCHALLENGE::ObjStompTarget_Dummy
 0006:0069D058       `typeinfo for'FLCCHALLENGE::yaUt::ProcessBase
 0006:0069D064       `typeinfo for'FLCCHALLENGE::yaUt::MinigameObjEstimate
 0006:0069D070       `typeinfo for'FLCCHALLENGE::yaUt::LinkNode
 0006:0069D078       `typeinfo for'FLCCHALLENGE::IItem
 0006:0069D080       `typeinfo for'FLCCHALLENGE::ObjML
 0006:0069D088       `typeinfo for'FLCCHALLENGE::AtkCmd
 0006:0069D094       `typeinfo for'FLCCHALLENGE::ObjLuigi
 0006:0069D0A0       `typeinfo for'FLCCHALLENGE::ObjMario
 0006:0069D0AC       `typeinfo for'FLCCHALLENGE::Resource
 0006:0069D0B8       `typeinfo for'FLCCHALLENGE::ItemTimer
 0006:0069D0C4       `typeinfo for'FLCCHALLENGE::StateMain
 0006:0069D0D0       `typeinfo for'MRBCHALLENGE::ItemNeedle
 0006:0069D0DC       `typeinfo for'MRBCHALLENGE::ObjBigRose::Behavior_Idle
 0006:0069D0E8       `typeinfo for'MRBCHALLENGE::ObjBigRose::Behavior_MoveRandom
 0006:0069D0F4       `typeinfo for'MRBCHALLENGE::ObjBigRose::Behavior_MoveSimple
 0006:0069D100       `typeinfo for'MRBCHALLENGE::ObjBigRose::Behavior_MoveAndStop
 0006:0069D10C       `typeinfo for'MRBCHALLENGE::ObjBigRose
 0006:0069D118       `typeinfo for'MRBCHALLENGE::StateIntro
 0006:0069D124       `typeinfo for'MRBCHALLENGE::ObjNormalRose
 0006:0069D130       `typeinfo for'MRBCHALLENGE::StateFinalize
 0006:0069D13C       `typeinfo for'MRBCHALLENGE::LuigiBallRenderer
 0006:0069D148       `typeinfo for'MRBCHALLENGE::yaUt::BtlColRead
 0006:0069D154       `typeinfo for'MRBCHALLENGE::yaUt::ProcessBase
 0006:0069D160       `typeinfo for'MRBCHALLENGE::yaUt::SphereCollider
 0006:0069D16C       `typeinfo for'MRBCHALLENGE::yaUt::MinigameObjEstimate
 0006:0069D178       `typeinfo for'MRBCHALLENGE::yaUt::MiracleAtkIntro_MarioJump
 0006:0069D184       `typeinfo for'MRBCHALLENGE::yaUt::MiracleAtkIntro_HoistLuigi
 0006:0069D190       `typeinfo for'MRBCHALLENGE::yaUt::MiracleAtkIntro_ThrowLuigi
 0006:0069D19C       `typeinfo for'MRBCHALLENGE::yaUt::State<MRBCHALLENGE::ObjBigRose>
 0006:0069D1A4       `typeinfo for'MRBCHALLENGE::yaUt::LinkNode
 0006:0069D1AC       `typeinfo for'MRBCHALLENGE::yaUt::ICollider
 0006:0069D1B8       `typeinfo for'MRBCHALLENGE::AtkCmd
 0006:0069D1C4       `typeinfo for'MRBCHALLENGE::ItemBase
 0006:0069D1CC       `typeinfo for'MRBCHALLENGE::ItemBomb
 0006:0069D1D8       `typeinfo for'MRBCHALLENGE::Resource
 0006:0069D1E4       `typeinfo for'MRBCHALLENGE::LuigiBall::Effect
 0006:0069D1F0       `typeinfo for'MRBCHALLENGE::StateMain
 0006:0069D1FC       `typeinfo for'MRFCHALLENGE::yaUt::ProcessBase
 0006:0069D208       `typeinfo for'MRFCHALLENGE::yaUt::MinigameObjEstimate
 0006:0069D214       `typeinfo for'MRFCHALLENGE::yaUt::MiracleAtkIntro_HoistLuigi
 0006:0069D220       `typeinfo for'MRFCHALLENGE::yaUt::MiracleAtkIntro_ThrowLuigi
 0006:0069D22C       `typeinfo for'MRFCHALLENGE::yaUt::State<MRFCHALLENGE::AtkCmd>
 0006:0069D234       `typeinfo for'MRFCHALLENGE::yaUt::LinkNode
 0006:0069D23C       `typeinfo for'MRFCHALLENGE::AtkCmd::StateIntro
 0006:0069D248       `typeinfo for'MRFCHALLENGE::AtkCmd::StateToss
 0006:0069D254       `typeinfo for'MRFCHALLENGE::AtkCmd
 0006:0069D260       `typeinfo for'MRFCHALLENGE::Resource::LoadProcess
 0006:0069D26C       `typeinfo for'MRJCHALLENGE::ItemNeedle
 0006:0069D278       `typeinfo for'MRJCHALLENGE::LuigiGroup
 0006:0069D284       `typeinfo for'MRJCHALLENGE::LuigiBoxWorld::StateAttach
 0006:0069D290       `typeinfo for'MRJCHALLENGE::LuigiBoxWorld::StateDetach
 0006:0069D29C       `typeinfo for'MRJCHALLENGE::LuigiBoxWorld::StateRestart
 0006:0069D2A8       `typeinfo for'MRJCHALLENGE::LuigiBoxWorld::StateIntroFall
 0006:0069D2B4       `typeinfo for'MRJCHALLENGE::LuigiBoxWorld::StateSmallJump
 0006:0069D2C0       `typeinfo for'MRJCHALLENGE::LuigiBoxWorld::StateAttackJump
 0006:0069D2CC       `typeinfo for'MRJCHALLENGE::LuigiBoxWorld::StateDestroyAll
 0006:0069D2D8       `typeinfo for'MRJCHALLENGE::LuigiBoxWorld::StateAttackFailure
 0006:0069D2E4       `typeinfo for'MRJCHALLENGE::LuigiBoxWorld::StateAttackSuccess
 0006:0069D2F0       `typeinfo for'MRJCHALLENGE::LuigiBoxWorld::AttachResultCallBack
 0006:0069D2F8       `typeinfo for'MRJCHALLENGE::LuigiBoxWorld::StateJump
 0006:0069D304       `typeinfo for'MRJCHALLENGE::LuigiBoxWorld::StateMain
 0006:0069D310       `typeinfo for'MRJCHALLENGE::yaUt::ProcessBase
 0006:0069D31C       `typeinfo for'MRJCHALLENGE::yaUt::AABBCollider
 0006:0069D328       `typeinfo for'MRJCHALLENGE::yaUt::CollisionFunc
 0006:0069D330       `typeinfo for'MRJCHALLENGE::yaUt::SphereCollider
 0006:0069D33C       `typeinfo for'MRJCHALLENGE::yaUt::MinigameObjEstimate
 0006:0069D348       `typeinfo for'MRJCHALLENGE::yaUt::MiracleAtkIntro_MarioJump
 0006:0069D354       `typeinfo for'MRJCHALLENGE::yaUt::MiracleAtkIntro_HoistLuigi
 0006:0069D360       `typeinfo for'MRJCHALLENGE::yaUt::MiracleAtkIntro_ThrowLuigi
 0006:0069D36C       `typeinfo for'MRJCHALLENGE::yaUt::State<MRJCHALLENGE::LuigiBoxWorld>
 0006:0069D374       `typeinfo for'MRJCHALLENGE::yaUt::State<MRJCHALLENGE::AtkCmd>
 0006:0069D37C       `typeinfo for'MRJCHALLENGE::yaUt::State<MRJCHALLENGE::ObjCamera>
 0006:0069D384       `typeinfo for'MRJCHALLENGE::yaUt::LinkNode
 0006:0069D38C       `typeinfo for'MRJCHALLENGE::yaUt::ICollider
 0006:0069D398       `typeinfo for'MRJCHALLENGE::AtkCmd::StateIntro
 0006:0069D3A4       `typeinfo for'MRJCHALLENGE::AtkCmd::StateFinalize
 0006:0069D3B0       `typeinfo for'MRJCHALLENGE::AtkCmd::StateMain::AttachComboManager
 0006:0069D3BC       `typeinfo for'MRJCHALLENGE::AtkCmd::StateMain
 0006:0069D3C8       `typeinfo for'MRJCHALLENGE::AtkCmd
 0006:0069D3D4       `typeinfo for'MRJCHALLENGE::BoxLocal::EventHandle
 0006:0069D3DC       `typeinfo for'MRJCHALLENGE::BoxLocal
 0006:0069D3E4       `typeinfo for'MRJCHALLENGE::ItemBase
 0006:0069D3EC       `typeinfo for'MRJCHALLENGE::ItemBomb
 0006:0069D3F8       `typeinfo for'MRJCHALLENGE::ObjMario
 0006:0069D404       `typeinfo for'MRJCHALLENGE::Resource
 0006:0069D410       `typeinfo for'MRJCHALLENGE::ObjCamera::StateRestart
 0006:0069D41C       `typeinfo for'MRJCHALLENGE::ObjCamera::StateAttackJump
 0006:0069D428       `typeinfo for'MRJCHALLENGE::ObjCamera::StateMain
 0006:0069D434       `typeinfo for'MRWCHALLENGE::EnemyGroup::IEnemyDeadCallBack
 0006:0069D43C       `typeinfo for'MRWCHALLENGE::ItemManager::IItemEffectTask
 0006:0069D444       `typeinfo for'MRWCHALLENGE::ItemManager::IApplyItemEffectCallBack
 0006:0069D44C       `typeinfo for'MRWCHALLENGE::yaUt::BtlColRead
 0006:0069D458       `typeinfo for'MRWCHALLENGE::yaUt::OBBCollider
 0006:0069D464       `typeinfo for'MRWCHALLENGE::yaUt::ProcessBase
 0006:0069D470       `typeinfo for'MRWCHALLENGE::yaUt::AABBCollider
 0006:0069D47C       `typeinfo for'MRWCHALLENGE::yaUt::CollisionFunc
 0006:0069D484       `typeinfo for'MRWCHALLENGE::yaUt::SphereCollider
 0006:0069D490       `typeinfo for'MRWCHALLENGE::yaUt::MiracleAtkIntro_HoistLuigi
 0006:0069D49C       `typeinfo for'MRWCHALLENGE::yaUt::MiracleAtkIntro_ThrowLuigi
 0006:0069D4A8       `typeinfo for'MRWCHALLENGE::yaUt::State<MRWCHALLENGE::AtkCmd::StateRally>
 0006:0069D4B0       `typeinfo for'MRWCHALLENGE::yaUt::State<MRWCHALLENGE::AtkCmd>
 0006:0069D4B8       `typeinfo for'MRWCHALLENGE::yaUt::LinkNode
 0006:0069D4C0       `typeinfo for'MRWCHALLENGE::yaUt::ICollider
 0006:0069D4CC       `typeinfo for'MRWCHALLENGE::AtkCmd::StateIntro
 0006:0069D4D8       `typeinfo for'MRWCHALLENGE::AtkCmd::StateRally::StateLuigiReEntry
 0006:0069D4E4       `typeinfo for'MRWCHALLENGE::AtkCmd::StateRally::StateMain
 0006:0069D4F0       `typeinfo for'MRWCHALLENGE::AtkCmd::StateRally
 0006:0069D4FC       `typeinfo for'MRWCHALLENGE::AtkCmd::StateRestart
 0006:0069D508       `typeinfo for'MRWCHALLENGE::AtkCmd::StateFinalize
 0006:0069D514       `typeinfo for'MRWCHALLENGE::AtkCmd::EnemyDeadCallBack
 0006:0069D520       `typeinfo for'MRWCHALLENGE::AtkCmd::ItemEffect_SpdChange
 0006:0069D52C       `typeinfo for'MRWCHALLENGE::AtkCmd::ItemEffect_SplitStar::StarAppearEffect
 0006:0069D538       `typeinfo for'MRWCHALLENGE::AtkCmd::ItemEffect_SplitStar
 0006:0069D544       `typeinfo for'MRWCHALLENGE::AtkCmd::ItemEffect_DoubleScore
 0006:0069D550       `typeinfo for'MRWCHALLENGE::AtkCmd::ApplyItemEffectCallBack
 0006:0069D55C       `typeinfo for'MRWCHALLENGE::AtkCmd::StateWall
 0006:0069D568       `typeinfo for'MRWCHALLENGE::AtkCmd
 0006:0069D574       `typeinfo for'MRWCHALLENGE::Resource::LoadProcess
 0006:0069D580       `typeinfo for'BtlObjListWnd::ListWnd
 0006:0069D58C       `typeinfo for'BtlObjAlertMsg::ScrollMsg
 0006:0069D598       `typeinfo for'BtlObjIronBall::StompTaskCallback
 0006:0069D5A4       `typeinfo for'BtlPcDefHammer::ObjDispHam
 0006:0069D5B0       `typeinfo for'AkmAtk4Relocate::CmdStateIntro
 0006:0069D5BC       `typeinfo for'AkmAtk4Relocate::IntroInternal::Resource
 0006:0069D5C8       `typeinfo for'AkmAtk4Relocate::CmdStateEscape::StateHitHole
 0006:0069D5D4       `typeinfo for'AkmAtk4Relocate::CmdStateEscape::StateGameOver
 0006:0069D5E0       `typeinfo for'AkmAtk4Relocate::CmdStateEscape::StateMove
 0006:0069D5EC       `typeinfo for'AkmAtk4Relocate::CmdStateEscape
 0006:0069D5F8       `typeinfo for'AkmAtk4Relocate::EscapeInternal::MarioObj::StateEscape
 0006:0069D604       `typeinfo for'AkmAtk4Relocate::EscapeInternal::MarioObj::StateHitHole
 0006:0069D610       `typeinfo for'AkmAtk4Relocate::EscapeInternal::MarioObj::StateHitBullet
 0006:0069D61C       `typeinfo for'AkmAtk4Relocate::EscapeInternal::AkkumuObj::StateIdle
 0006:0069D628       `typeinfo for'AkmAtk4Relocate::EscapeInternal::AkkumuObj::StateShot
 0006:0069D634       `typeinfo for'AkmAtk4Relocate::CmdStateExitEnd
 0006:0069D640       `typeinfo for'AkmAtk4Relocate::CmdStateLoopEnd
 0006:0069D64C       `typeinfo for'AkmAtk4Relocate::CmdStateMinigame::StateGame
 0006:0069D658       `typeinfo for'AkmAtk4Relocate::CmdStateMinigame
 0006:0069D664       `typeinfo for'AkmAtk4Relocate::CmdStateGameOverEnd
 0006:0069D670       `typeinfo for'AkmAtk4Relocate::AkmAtk4RelocateInternal::AkmFall
 0006:0069D67C       `typeinfo for'AkmAtk4Relocate::yaUt::ProcessBase
 0006:0069D688       `typeinfo for'AkmAtk4Relocate::yaUt::State<AkmAtk4Relocate::CmdStateEscape>
 0006:0069D690       `typeinfo for'AkmAtk4Relocate::yaUt::State<AkmAtk4Relocate::EscapeInternal::MarioObj>
 0006:0069D698       `typeinfo for'AkmAtk4Relocate::yaUt::State<AkmAtk4Relocate::EscapeInternal::AkkumuObj>
 0006:0069D6A0       `typeinfo for'AkmAtk4Relocate::yaUt::State<AkmAtk4Relocate::CmdStateMinigame>
 0006:0069D6A8       `typeinfo for'AkmAtk4Relocate::yaUt::State<AkmAtk4Relocate::AtkCmd>
 0006:0069D6B0       `typeinfo for'AkmAtk4Relocate::yaUt::LinkNode
 0006:0069D6B8       `typeinfo for'AkmAtk4Relocate::AtkCmd
 0006:0069D6C4       `typeinfo for'AkmAtk4Relocate::HoleObj
 0006:0069D6D0       `typeinfo for'AkmAtk4Relocate::IHoleObj
 0006:0069D6D8       `typeinfo for'Btl_AtkDreamEgg::AtkPartMain
 0006:0069D6E4       `typeinfo for'Btl_AtkDreamEgg::AtkPartFinal
 0006:0069D6F0       `typeinfo for'Btl_AtkDreamEgg::AtkPartIntro::UpdaterWaitReadyAtkComp
 0006:0069D6FC       `typeinfo for'Btl_AtkDreamEgg::AtkPartIntro::UpdaterWaitLoadCompIntro
 0006:0069D708       `typeinfo for'Btl_AtkDreamEgg::AtkPartIntro
 0006:0069D714       `typeinfo for'Btl_AtkDreamEgg::AtkPartTotal
 0006:0069D720       `typeinfo for'Btl_AtkDreamEgg::BASceneUpdAtkReady
 0006:0069D72C       `typeinfo for'Btl_AtkDreamEgg::BASceneUpdWhiteFade
 0006:0069D738       `typeinfo for'Btl_AtkDreamEgg::BASceneUpdFollowBall
 0006:0069D744       `typeinfo for'Btl_AtkDreamEgg::BASceneUpdL2MoveOmzball
 0006:0069D750       `typeinfo for'Btl_AtkDreamEgg::BASceneUpdExplodeOmzball
 0006:0069D75C       `typeinfo for'Btl_AtkDreamEgg::BASceneUpdL2TryPairHammer
 0006:0069D768       `typeinfo for'Btl_AtkDreamEgg::BASceneUpdL2TrySoloHammer
 0006:0069D774       `typeinfo for'Btl_AtkDreamEgg::BASceneUpdPcLandingFromSky
 0006:0069D780       `typeinfo for'Btl_AtkDreamEgg::BASceneUpdL2ReturnSmashedPc
 0006:0069D78C       `typeinfo for'Btl_AtkDreamEgg::BASceneUpdL2TryJumpSequence
 0006:0069D798       `typeinfo for'Btl_AtkDreamEgg::BASceneUpdL2TrySoloHamRecov
 0006:0069D7A4       `typeinfo for'Btl_AtkDreamEgg::BASceneUpdL2ScreenOutOmzball
 0006:0069D7B0       `typeinfo for'Btl_AtkDreamEgg::ChrCmd
 0006:0069D7BC       `typeinfo for'Btl_AtkDreamEgg::BAScene
 0006:0069D7C8       `typeinfo for'Btl_AtkDreamEgg::BAPcTeam
 0006:0069D7D4       `typeinfo for'Btl_AtkHaneruMet::ExplDrawer
 0006:0069D7E0       `typeinfo for'Btl_AtkHaneruMet::ObjectBase
 0006:0069D7EC       `typeinfo for'Btl_AtkHaneruMet::AtkPartMain
 0006:0069D7F8       `typeinfo for'Btl_AtkHaneruMet::AtkPartFinal
 0006:0069D804       `typeinfo for'Btl_AtkHaneruMet::AtkPartIntro::UpdaterWaitReadyAtkComp
 0006:0069D810       `typeinfo for'Btl_AtkHaneruMet::AtkPartIntro::UpdaterWaitLoadCompIntro
 0006:0069D81C       `typeinfo for'Btl_AtkHaneruMet::AtkPartIntro
 0006:0069D828       `typeinfo for'Btl_AtkHaneruMet::AtkPartTotal
 0006:0069D834       `typeinfo for'Btl_AtkHaneruMet::ChrCmdEndless
 0006:0069D840       `typeinfo for'Btl_AtkHaneruMet::BASceneEndless
 0006:0069D84C       `typeinfo for'Btl_AtkHaneruMet::PcTeamUpdAtkReady
 0006:0069D858       `typeinfo for'Btl_AtkHaneruMet::AtkPartMainEndless
 0006:0069D864       `typeinfo for'Btl_AtkHaneruMet::AtkPartFinalEndless::UpdaterExplDrawerDeleter
 0006:0069D870       `typeinfo for'Btl_AtkHaneruMet::AtkPartFinalEndless
 0006:0069D87C       `typeinfo for'Btl_AtkHaneruMet::AtkPartIntroEndless::UpdaterWaitBootOrCancel
 0006:0069D888       `typeinfo for'Btl_AtkHaneruMet::AtkPartIntroEndless::UpdaterWaitReadyAtkComp
 0006:0069D894       `typeinfo for'Btl_AtkHaneruMet::AtkPartIntroEndless::UpdaterWaitLoadCompIntro
 0006:0069D8A0       `typeinfo for'Btl_AtkHaneruMet::AtkPartIntroEndless
 0006:0069D8AC       `typeinfo for'Btl_AtkHaneruMet::AtkPartTotalEndless
 0006:0069D8B8       `typeinfo for'Btl_AtkHaneruMet::PcTeamUpdAtkLastJump
 0006:0069D8C4       `typeinfo for'Btl_AtkHaneruMet::RefCounterSlowAtkMode
 0006:0069D8D0       `typeinfo for'Btl_AtkHaneruMet::PcTeamUpdAtkFailOutside
 0006:0069D8DC       `typeinfo for'Btl_AtkHaneruMet::PcTeamUpdAtkIntervalJump
 0006:0069D8E8       `typeinfo for'Btl_AtkHaneruMet::ObjCA
 0006:0069D8F4       `typeinfo for'Btl_AtkHaneruMet::ChrCmd
 0006:0069D900       `typeinfo for'Btl_AtkHaneruMet::BAScene
 0006:0069D90C       `typeinfo for'Btl_AtkHaneruMet::BAMonSolo
 0006:0069D914       `typeinfo for'Btl_AtkStarRocket::BAPcBooter
 0006:0069D920       `typeinfo for'Btl_AtkStarRocket::AtkPartMain
 0006:0069D92C       `typeinfo for'Btl_AtkStarRocket::BAPcPartner
 0006:0069D938       `typeinfo for'Btl_AtkStarRocket::AtkPartFinal
 0006:0069D944       `typeinfo for'Btl_AtkStarRocket::AtkPartIntro::UpdaterWaitReadyAtkComp
 0006:0069D950       `typeinfo for'Btl_AtkStarRocket::AtkPartIntro::UpdaterWaitLoadCompIntro
 0006:0069D95C       `typeinfo for'Btl_AtkStarRocket::AtkPartIntro
 0006:0069D968       `typeinfo for'Btl_AtkStarRocket::AtkPartTotal
 0006:0069D974       `typeinfo for'Btl_AtkStarRocket::BASceneUpdAtkReady
 0006:0069D980       `typeinfo for'Btl_AtkStarRocket::BASceneUpdAtkMonStomp
 0006:0069D98C       `typeinfo for'Btl_AtkStarRocket::BASceneUpdAtkClashFloor
 0006:0069D998       `typeinfo for'Btl_AtkStarRocket::BASceneUpdAtkCtrlRocket
 0006:0069D9A4       `typeinfo for'Btl_AtkStarRocket::BASceneUpdAtkRocketRise
 0006:0069D9B0       `typeinfo for'Btl_AtkStarRocket::BASceneUpdL2MonStompPerPc
 0006:0069D9BC       `typeinfo for'Btl_AtkStarRocket::ChrCmd
 0006:0069D9C8       `typeinfo for'Btl_AtkStarRocket::BAScene
 0006:0069D9D4       `typeinfo for'Btl_AtkStarRocket::BAPcSolo
 0006:0069D9DC       `typeinfo for'Btl_AtkStarRocket::BAPcTeam
 0006:0069D9E8       `typeinfo for'Btl_AtkStarRocket::BAMonSolo
 0006:0069D9F0       `typeinfo for'Btl_AtkStarRocket::BAMonTeam
 0006:0069D9F8       `typeinfo for'Btl_AtkTaruTaihou::BAPcBooter
 0006:0069DA04       `typeinfo for'Btl_AtkTaruTaihou::AtkPartMain
 0006:0069DA10       `typeinfo for'Btl_AtkTaruTaihou::BAPcPartner
 0006:0069DA1C       `typeinfo for'Btl_AtkTaruTaihou::AtkPartFinal
 0006:0069DA28       `typeinfo for'Btl_AtkTaruTaihou::AtkPartIntro::UpdaterWaitReadyAtkComp
 0006:0069DA34       `typeinfo for'Btl_AtkTaruTaihou::AtkPartIntro::UpdaterWaitLoadCompIntro
 0006:0069DA40       `typeinfo for'Btl_AtkTaruTaihou::AtkPartIntro
 0006:0069DA4C       `typeinfo for'Btl_AtkTaruTaihou::AtkPartTotal
 0006:0069DA58       `typeinfo for'Btl_AtkTaruTaihou::BASceneUpdAtkReady
 0006:0069DA64       `typeinfo for'Btl_AtkTaruTaihou::RefCounterSlowAtkMode
 0006:0069DA70       `typeinfo for'Btl_AtkTaruTaihou::BASceneUpdDiveInBarrel
 0006:0069DA7C       `typeinfo for'Btl_AtkTaruTaihou::BASceneUpdSelectBarrel
 0006:0069DA88       `typeinfo for'Btl_AtkTaruTaihou::BASceneUpdShuffleBarrel
 0006:0069DA94       `typeinfo for'Btl_AtkTaruTaihou::BABarrelSingleUpdAtkItem
 0006:0069DAA0       `typeinfo for'Btl_AtkTaruTaihou::BASceneUpdFallLandBarrel
 0006:0069DAAC       `typeinfo for'Btl_AtkTaruTaihou::BASceneUpdInvisibleBarrel
 0006:0069DAB8       `typeinfo for'Btl_AtkTaruTaihou::BABarrelSingleUpdSelectShake
 0006:0069DAC4       `typeinfo for'Btl_AtkTaruTaihou::BABarrelSingleUpdJumpTargeting
 0006:0069DAD0       `typeinfo for'Btl_AtkTaruTaihou::BABarrelSingleUpdAtkShootPcFail
 0006:0069DADC       `typeinfo for'Btl_AtkTaruTaihou::BABarrelSingleUpdAtkShootPcSucc
 0006:0069DAE8       `typeinfo for'Btl_AtkTaruTaihou::ChrCmd
 0006:0069DAF4       `typeinfo for'Btl_AtkTaruTaihou::BAPcObj
 0006:0069DAFC       `typeinfo for'Btl_AtkTaruTaihou::BAScene
 0006:0069DB08       `typeinfo for'Btl_AtkTaruTaihou::BAPcTeam
 0006:0069DB14       `typeinfo for'Btl_AtkTaruTaihou::BAMonSolo
 0006:0069DB1C       `typeinfo for'Btl_AtkTaruTaihou::BAMonTeam
 0006:0069DB28       `typeinfo for'Btl_OtameshiIntro::AtkPartIMF
 0006:0069DB34       `typeinfo for'Btl_OtameshiIntro::BtlTask
 0006:0069DB40       `typeinfo for'Btl_AtkFuechauBall::AtkPartIMF
 0006:0069DB4C       `typeinfo for'Btl_AtkFuechauBall::CommonData
 0006:0069DB54       `typeinfo for'Btl_AtkFuechauBall::AtkPartMain
 0006:0069DB60       `typeinfo for'Btl_AtkFuechauBall::BAColObject
 0006:0069DB6C       `typeinfo for'Btl_AtkFuechauBall::AtkPartFinal
 0006:0069DB78       `typeinfo for'Btl_AtkFuechauBall::AtkPartIntro::UpdaterWaitReadyAtkComp
 0006:0069DB84       `typeinfo for'Btl_AtkFuechauBall::AtkPartIntro::UpdaterWaitLoadCompIntro
 0006:0069DB90       `typeinfo for'Btl_AtkFuechauBall::AtkPartIntro
 0006:0069DB9C       `typeinfo for'Btl_AtkFuechauBall::BABallSingle
 0006:0069DBA8       `typeinfo for'Btl_AtkFuechauBall::BASceneUpdReady
 0006:0069DBB4       `typeinfo for'Btl_AtkFuechauBall::BASceneUpdMainAtk
 0006:0069DBC0       `typeinfo for'Btl_AtkFuechauBall::BABallSingleUpdater
 0006:0069DBCC       `typeinfo for'Btl_AtkFuechauBall::BASceneUpdWaitActive
 0006:0069DBD8       `typeinfo for'Btl_AtkFuechauBall::BABallSingleUpdAtkReady
 0006:0069DBE4       `typeinfo for'Btl_AtkFuechauBall::BABallSingleUpdBallLiner
 0006:0069DBF0       `typeinfo for'Btl_AtkFuechauBall::BABallSingleUpdStepQueue
 0006:0069DBFC       `typeinfo for'Btl_AtkFuechauBall::BABallSingleUpdBallVanish
 0006:0069DC08       `typeinfo for'Btl_AtkFuechauBall::BABallSingleUpdAppearQueue
 0006:0069DC14       `typeinfo for'Btl_AtkFuechauBall::BABallSingleUpdBallThrowed
 0006:0069DC20       `typeinfo for'Btl_AtkFuechauBall::ChrCmd
 0006:0069DC2C       `typeinfo for'Btl_AtkFuechauBall::BAPcSolo
 0006:0069DC34       `typeinfo for'Btl_AtkFuechauBall::BAPcTeam
 0006:0069DC3C       `typeinfo for'Btl_AtkFuechauBall::BABallSet
 0006:0069DC44       `typeinfo for'Btl_AtkFuechauBall::BAMonSolo
 0006:0069DC50       `typeinfo for'Btl_AtkFuechauBall::BAMonTeam
 0006:0069DC58       `typeinfo for'Btl_AtkRocketBoard::AtkPartIMF
 0006:0069DC64       `typeinfo for'Btl_AtkRocketBoard::AtkPartMain
 0006:0069DC70       `typeinfo for'Btl_AtkRocketBoard::AtkPartFinal
 0006:0069DC7C       `typeinfo for'Btl_AtkRocketBoard::AtkPartIntro::UpdaterWaitReadyAtkComp
 0006:0069DC88       `typeinfo for'Btl_AtkRocketBoard::AtkPartIntro::UpdaterWaitLoadCompIntro
 0006:0069DC94       `typeinfo for'Btl_AtkRocketBoard::AtkPartIntro
 0006:0069DCA0       `typeinfo for'Btl_AtkRocketBoard::ChrCmd
 0006:0069DCAC       `typeinfo for'Btl_AtkRocketBoard::BAPcTeam::UpdaterAtkMain
 0006:0069DCB8       `typeinfo for'Btl_AtkRocketBoard::BAPcTeam::UpdaterAtkReady
 0006:0069DCC4       `typeinfo for'Btl_AtkRocketBoard::BAPcTeam::UpdaterSubAccel
 0006:0069DCD0       `typeinfo for'Btl_AtkRocketBoard::BAPcTeam::UpdaterAtkMainSub
 0006:0069DCDC       `typeinfo for'Btl_AtkRocketBoard::BAPcTeam::UpdaterSubNeutral
 0006:0069DCE8       `typeinfo for'Btl_AtkRocketBoard::BAPcTeam::UpdaterSubSpdLimit
 0006:0069DCF4       `typeinfo for'Btl_AtkRocketBoard::BAPcTeam::UpdaterAtkEndCrashed
 0006:0069DD00       `typeinfo for'Btl_AtkRocketBoard::BAPcTeam::UpdaterSubSpinHammer
 0006:0069DD0C       `typeinfo for'Btl_AtkRocketBoard::BAPcTeam::UpdaterSubSpinHammerMiss
 0006:0069DD18       `typeinfo for'Btl_AtkRocketBoard::BAPcTeam::UpdaterSubSpinReadyNeutral
 0006:0069DD24       `typeinfo for'Btl_AtkRocketBoard::BAMonSolo::UpdaterFlyDodge
 0006:0069DD30       `typeinfo for'Btl_AtkRocketBoard::BAMonSolo::UpdaterAtkScUchiage
 0006:0069DD3C       `typeinfo for'Btl_AtkRocketBoard::BAMonSolo::Updater
 0006:0069DD44       `typeinfo for'Btl_AtkRocketBoard::BAMonSolo
 0006:0069DD4C       `typeinfo for'Btl_AtkBaibaiFlower::UpdaterMain
 0006:0069DD58       `typeinfo for'Btl_AtkBaibaiFlower::AtkPartFinal
 0006:0069DD64       `typeinfo for'Btl_AtkBaibaiFlower::AtkPartIntro::UpdaterWaitReadyAtkComp
 0006:0069DD70       `typeinfo for'Btl_AtkBaibaiFlower::AtkPartIntro::UpdaterWaitLoadCompIntro
 0006:0069DD7C       `typeinfo for'Btl_AtkBaibaiFlower::AtkPartIntro
 0006:0069DD88       `typeinfo for'Btl_AtkBaibaiFlower::BAPcTeamUpdAtkReady
 0006:0069DD94       `typeinfo for'Btl_AtkBaibaiFlower::PcSoloUpdJumpAtkAbort
 0006:0069DDA0       `typeinfo for'Btl_AtkBaibaiFlower::PcSoloUpdJumpAtkToMon
 0006:0069DDAC       `typeinfo for'Btl_AtkBaibaiFlower::PcSoloUpdLineMovePart
 0006:0069DDB8       `typeinfo for'Btl_AtkBaibaiFlower::PcSoloUpdPcBranchPart
 0006:0069DDC4       `typeinfo for'Btl_AtkBaibaiFlower::PcTeamUpdPcBranchPart
 0006:0069DDD0       `typeinfo for'Btl_AtkBaibaiFlower::RefCounterSlowAtkMode
 0006:0069DDDC       `typeinfo for'Btl_AtkBaibaiFlower::PcSoloUpdJumpAtkSuccess
 0006:0069DDE8       `typeinfo for'Btl_AtkBaibaiFlower::PcSoloUpdJumpAtkThrough
 0006:0069DDF4       `typeinfo for'Btl_AtkBaibaiFlower::PcTeamUpdJumpAtkToMonPart
 0006:0069DE00       `typeinfo for'Btl_AtkBaibaiFlower::PcSoloUpdJumpAtkFailBadTiming
 0006:0069DE0C       `typeinfo for'Btl_AtkBaibaiFlower::PcSoloUpdMoveToBackCirclePart
 0006:0069DE18       `typeinfo for'Btl_AtkBaibaiFlower::PcSoloUpdJumpAtkFailStompSpike
 0006:0069DE24       `typeinfo for'Btl_AtkBaibaiFlower::PcTeamUpdPcLineMovePartOrdered
 0006:0069DE30       `typeinfo for'Btl_AtkBaibaiFlower::ChrCmd
 0006:0069DE3C       `typeinfo for'Btl_AtkBaibaiFlower::BAPcSolo
 0006:0069DE44       `typeinfo for'Btl_AtkBaibaiFlower::BAMonSolo::UpdaterMonStomp
 0006:0069DE50       `typeinfo for'Btl_AtkBaibaiFlower::BAMonSolo
 0006:0069DE58       `typeinfo for'Btl_AtkBaibaiTaihou::AtkPartMain
 0006:0069DE64       `typeinfo for'Btl_AtkBaibaiTaihou::AtkPartFinal
 0006:0069DE70       `typeinfo for'Btl_AtkBaibaiTaihou::AtkPartIntro::UpdaterWaitReadyAtkComp
 0006:0069DE7C       `typeinfo for'Btl_AtkBaibaiTaihou::AtkPartIntro::UpdaterWaitLoadCompIntro
 0006:0069DE88       `typeinfo for'Btl_AtkBaibaiTaihou::AtkPartIntro
 0006:0069DE94       `typeinfo for'Btl_AtkBaibaiTaihou::PcSoloUpdJump1st
 0006:0069DEA0       `typeinfo for'Btl_AtkBaibaiTaihou::PcSoloUpdJumpAbort
 0006:0069DEAC       `typeinfo for'Btl_AtkBaibaiTaihou::BAPcTeamUpdAtkReady
 0006:0069DEB8       `typeinfo for'Btl_AtkBaibaiTaihou::PcSoloUpdCannonShoot
 0006:0069DEC4       `typeinfo for'Btl_AtkBaibaiTaihou::PcTeamUpdCannonShoot
 0006:0069DED0       `typeinfo for'Btl_AtkBaibaiTaihou::PcTeamUpdJump1stPart
 0006:0069DEDC       `typeinfo for'Btl_AtkBaibaiTaihou::PcTeamUpdJump2ndPart
 0006:0069DEE8       `typeinfo for'Btl_AtkBaibaiTaihou::PcSoloUpdJump2ndFinish
 0006:0069DEF4       `typeinfo for'Btl_AtkBaibaiTaihou::PcSoloUpdJump1stSuccess
 0006:0069DF00       `typeinfo for'Btl_AtkBaibaiTaihou::PcSoloUpdJump1stThrough
 0006:0069DF0C       `typeinfo for'Btl_AtkBaibaiTaihou::PcSoloUpdJump2ndSuccess
 0006:0069DF18       `typeinfo for'Btl_AtkBaibaiTaihou::PcSoloUpdJumpFailBadTiming
 0006:0069DF24       `typeinfo for'Btl_AtkBaibaiTaihou::PcSoloUpdJumpFailStompSpike
 0006:0069DF30       `typeinfo for'Btl_AtkBaibaiTaihou::ChrCmd
 0006:0069DF3C       `typeinfo for'Btl_AtkBaibaiTaihou::BAPcSolo
 0006:0069DF44       `typeinfo for'Btl_AtkBaibaiTaihou::BAMonSolo
 0006:0069DF4C       `typeinfo for'Btl_AtkAchichiFlower::AtkPartIMF
 0006:0069DF58       `typeinfo for'Btl_AtkAchichiFlower::AtkPartMain
 0006:0069DF64       `typeinfo for'Btl_AtkAchichiFlower::AtkPartFinal
 0006:0069DF70       `typeinfo for'Btl_AtkAchichiFlower::AtkPartIntro::UpdaterWaitReadyAtkComp
 0006:0069DF7C       `typeinfo for'Btl_AtkAchichiFlower::AtkPartIntro::UpdaterWaitLoadCompIntro
 0006:0069DF88       `typeinfo for'Btl_AtkAchichiFlower::AtkPartIntro
 0006:0069DF94       `typeinfo for'Btl_AtkAchichiFlower::BASceneNormal
 0006:0069DFA0       `typeinfo for'Btl_AtkAchichiFlower::SceneUpdAtkEnter
 0006:0069DFAC       `typeinfo for'Btl_AtkAchichiFlower::SceneUpdAtkExtend
 0006:0069DFB8       `typeinfo for'Btl_AtkAchichiFlower::SceneUpdAtkFinish
 0006:0069DFC4       `typeinfo for'Btl_AtkAchichiFlower::SceneUpdAtkNormal
 0006:0069DFD0       `typeinfo for'Btl_AtkAchichiFlower::MonSoloUpdFireMove
 0006:0069DFDC       `typeinfo for'Btl_AtkAchichiFlower::MonSoloUpdFireBurst
 0006:0069DFE8       `typeinfo for'Btl_AtkAchichiFlower::MonTeamUpdFireBurst
 0006:0069DFF4       `typeinfo for'Btl_AtkAchichiFlower::PcSoloUpdExtendAppear
 0006:0069E000       `typeinfo for'Btl_AtkAchichiFlower::PcSoloUpdFireballBurst
 0006:0069E00C       `typeinfo for'Btl_AtkAchichiFlower::PcSoloUpdFireballThrow
 0006:0069E018       `typeinfo for'Btl_AtkAchichiFlower::PcSoloUpdFireballGrowth
 0006:0069E024       `typeinfo for'Btl_AtkAchichiFlower::PcSoloUpdChangeToFireCos
 0006:0069E030       `typeinfo for'Btl_AtkAchichiFlower::PcSoloUpdChangeToNormalCos
 0006:0069E03C       `typeinfo for'Btl_AtkAchichiFlower::ChrCmd
 0006:0069E048       `typeinfo for'Btl_AtkAchichiFlower::BAScene
 0006:0069E050       `typeinfo for'Btl_AtkSnipePachinko::AtkPartMain
 0006:0069E05C       `typeinfo for'Btl_AtkSnipePachinko::AtkPartFinal
 0006:0069E068       `typeinfo for'Btl_AtkSnipePachinko::AtkPartIntro::UpdaterWaitReadyAtkComp
 0006:0069E074       `typeinfo for'Btl_AtkSnipePachinko::AtkPartIntro::UpdaterWaitLoadCompIntro
 0006:0069E080       `typeinfo for'Btl_AtkSnipePachinko::AtkPartIntro
 0006:0069E08C       `typeinfo for'Btl_AtkSnipePachinko::AtkPartTotal
 0006:0069E098       `typeinfo for'Btl_AtkSnipePachinko::BASceneUpdAtkReady
 0006:0069E0A4       `typeinfo for'Btl_AtkSnipePachinko::BAMonUpdDamageSmash
 0006:0069E0B0       `typeinfo for'Btl_AtkSnipePachinko::BAMonUpdDamageNormal
 0006:0069E0BC       `typeinfo for'Btl_AtkSnipePachinko::BASceneUpdAtkCharging
 0006:0069E0C8       `typeinfo for'Btl_AtkSnipePachinko::BASceneUpdAtkTargeting
 0006:0069E0D4       `typeinfo for'Btl_AtkSnipePachinko::BASceneUpdAtkClashFloor
 0006:0069E0E0       `typeinfo for'Btl_AtkSnipePachinko::BASceneUpdAtkPostHitMon
 0006:0069E0EC       `typeinfo for'Btl_AtkSnipePachinko::BASceneUpdAtkLostStamina
 0006:0069E0F8       `typeinfo for'Btl_AtkSnipePachinko::BASceneUpdAtkShootHitStop
 0006:0069E104       `typeinfo for'Btl_AtkSnipePachinko::BASceneUpdAtkShootPiercing
 0006:0069E110       `typeinfo for'Btl_AtkSnipePachinko::BASceneUpdAtkPachinkoBeltSpringExp
 0006:0069E11C       `typeinfo for'Btl_AtkSnipePachinko::ChrCmd
 0006:0069E128       `typeinfo for'Btl_AtkSnipePachinko::BAScene
 0006:0069E134       `typeinfo for'Btl_AtkSnipePachinko::BAPcTeam
 0006:0069E140       `typeinfo for'Btl_AtkSnipePachinko::BAMonSolo
 0006:0069E148       `typeinfo for'Btl_AtkSnipePachinko::BAMonTeam
 0006:0069E154       `typeinfo for'Btl_AtkStarRocketChallenge::BAPcBooter
 0006:0069E160       `typeinfo for'Btl_AtkStarRocketChallenge::AtkPartMain
 0006:0069E16C       `typeinfo for'Btl_AtkStarRocketChallenge::BAPcPartner
 0006:0069E178       `typeinfo for'Btl_AtkStarRocketChallenge::AtkPartFinal
 0006:0069E184       `typeinfo for'Btl_AtkStarRocketChallenge::AtkPartIntro::UpdaterWaitReadyAtkComp
 0006:0069E190       `typeinfo for'Btl_AtkStarRocketChallenge::AtkPartIntro
 0006:0069E19C       `typeinfo for'Btl_AtkStarRocketChallenge::AtkPartTotal
 0006:0069E1A8       `typeinfo for'Btl_AtkStarRocketChallenge::BASceneUpdAtkReady
 0006:0069E1B4       `typeinfo for'Btl_AtkStarRocketChallenge::BASceneUpdAtkClashFloor
 0006:0069E1C0       `typeinfo for'Btl_AtkStarRocketChallenge::BASceneUpdAtkCtrlRocket
 0006:0069E1CC       `typeinfo for'Btl_AtkStarRocketChallenge::BASceneUpdAtkEmptyEnergy
 0006:0069E1D8       `typeinfo for'Btl_AtkStarRocketChallenge::BASceneUpdAtkClashDamageBalloon
 0006:0069E1E4       `typeinfo for'Btl_AtkStarRocketChallenge::BASceneUpdAtkFinishCounterStopped
 0006:0069E1F0       `typeinfo for'Btl_AtkStarRocketChallenge::ChrCmd
 0006:0069E1FC       `typeinfo for'Btl_AtkStarRocketChallenge::BAScene
 0006:0069E208       `typeinfo for'Btl_AtkStarRocketChallenge::BAPcSolo
 0006:0069E210       `typeinfo for'Btl_AtkStarRocketChallenge::BAPcTeam
 0006:0069E21C       `typeinfo for'Btl_AtkFuechauBallChallenge::AtkPartIMF
 0006:0069E228       `typeinfo for'Btl_AtkFuechauBallChallenge::CommonData
 0006:0069E230       `typeinfo for'Btl_AtkFuechauBallChallenge::AtkPartMain
 0006:0069E23C       `typeinfo for'Btl_AtkFuechauBallChallenge::BAColObject
 0006:0069E248       `typeinfo for'Btl_AtkFuechauBallChallenge::AtkPartFinal
 0006:0069E254       `typeinfo for'Btl_AtkFuechauBallChallenge::AtkPartIntro::UpdaterWaitReadyAtkComp
 0006:0069E260       `typeinfo for'Btl_AtkFuechauBallChallenge::AtkPartIntro
 0006:0069E26C       `typeinfo for'Btl_AtkFuechauBallChallenge::BABallSingle
 0006:0069E278       `typeinfo for'Btl_AtkFuechauBallChallenge::BASceneUpdReady
 0006:0069E284       `typeinfo for'Btl_AtkFuechauBallChallenge::BASceneUpdMainAtk
 0006:0069E290       `typeinfo for'Btl_AtkFuechauBallChallenge::BABallSingleUpdater
 0006:0069E29C       `typeinfo for'Btl_AtkFuechauBallChallenge::BASceneUpdWaitActive
 0006:0069E2A8       `typeinfo for'Btl_AtkFuechauBallChallenge::BABallSingleUpdAtkReady
 0006:0069E2B4       `typeinfo for'Btl_AtkFuechauBallChallenge::BABallSingleUpdBallLiner
 0006:0069E2C0       `typeinfo for'Btl_AtkFuechauBallChallenge::BABallSingleUpdStepQueue
 0006:0069E2CC       `typeinfo for'Btl_AtkFuechauBallChallenge::BABallSingleUpdBallVanish
 0006:0069E2D8       `typeinfo for'Btl_AtkFuechauBallChallenge::BABallSingleUpdAppearQueue
 0006:0069E2E4       `typeinfo for'Btl_AtkFuechauBallChallenge::BABallSingleUpdBallThrowed
 0006:0069E2F0       `typeinfo for'Btl_AtkFuechauBallChallenge::BABallSingleUpdBallThrowedHidden
 0006:0069E2FC       `typeinfo for'Btl_AtkFuechauBallChallenge::BABallSingleUpdBallThrowedNormal
 0006:0069E308       `typeinfo for'Btl_AtkFuechauBallChallenge::BABallSingleUpdBallThrowedTimeStop
 0006:0069E314       `typeinfo for'Btl_AtkFuechauBallChallenge::ChrCmd
 0006:0069E320       `typeinfo for'Btl_AtkFuechauBallChallenge::BAPcSolo
 0006:0069E328       `typeinfo for'Btl_AtkFuechauBallChallenge::BAPcTeam
 0006:0069E330       `typeinfo for'Btl_AtkFuechauBallChallenge::BABallSet
 0006:0069E338       `typeinfo for'Btl_AtkFuechauBallChallenge::BAMonSolo
 0006:0069E344       `typeinfo for'Btl_AtkFuechauBallChallenge::BAMonTeam
 0006:0069E34C       `typeinfo for'Btl_AtkBaibaiTaihouChallenge::AtkPartMain
 0006:0069E358       `typeinfo for'Btl_AtkBaibaiTaihouChallenge::AtkPartFinal
 0006:0069E364       `typeinfo for'Btl_AtkBaibaiTaihouChallenge::AtkPartIntro::UpdaterWaitReadyAtkComp
 0006:0069E370       `typeinfo for'Btl_AtkBaibaiTaihouChallenge::AtkPartIntro
 0006:0069E37C       `typeinfo for'Btl_AtkBaibaiTaihouChallenge::PcSoloUpdJump1st
 0006:0069E388       `typeinfo for'Btl_AtkBaibaiTaihouChallenge::PcSoloUpdJumpAbort
 0006:0069E394       `typeinfo for'Btl_AtkBaibaiTaihouChallenge::BAPcTeamUpdAtkReady
 0006:0069E3A0       `typeinfo for'Btl_AtkBaibaiTaihouChallenge::PcSoloUpdCannonShoot
 0006:0069E3AC       `typeinfo for'Btl_AtkBaibaiTaihouChallenge::PcTeamUpdCannonShoot
 0006:0069E3B8       `typeinfo for'Btl_AtkBaibaiTaihouChallenge::PcTeamUpdJump1stPart
 0006:0069E3C4       `typeinfo for'Btl_AtkBaibaiTaihouChallenge::PcTeamUpdJump2ndPart
 0006:0069E3D0       `typeinfo for'Btl_AtkBaibaiTaihouChallenge::PcSoloUpdAtkFailRetry
 0006:0069E3DC       `typeinfo for'Btl_AtkBaibaiTaihouChallenge::PcTeamUpdAtkFailRetry
 0006:0069E3E8       `typeinfo for'Btl_AtkBaibaiTaihouChallenge::PcSoloUpdJump2ndFinish
 0006:0069E3F4       `typeinfo for'Btl_AtkBaibaiTaihouChallenge::PcSoloUpdJump1stSuccess
 0006:0069E400       `typeinfo for'Btl_AtkBaibaiTaihouChallenge::PcSoloUpdJump1stThrough
 0006:0069E40C       `typeinfo for'Btl_AtkBaibaiTaihouChallenge::PcSoloUpdJump2ndSuccess
 0006:0069E418       `typeinfo for'Btl_AtkBaibaiTaihouChallenge::PcTeamUpdAtkRetrySeqSkip
 0006:0069E424       `typeinfo for'Btl_AtkBaibaiTaihouChallenge::PcSoloUpdJumpFailBadTiming
 0006:0069E430       `typeinfo for'Btl_AtkBaibaiTaihouChallenge::ChrCmd
 0006:0069E43C       `typeinfo for'Btl_AtkBaibaiTaihouChallenge::BAPcSolo
 0006:0069E444       `typeinfo for'Btl_AtkBaibaiTaihouChallenge::BAMonSolo
 0006:0069E44C       `typeinfo for'Btl_AtkAchichiFlowerChallenge::AtkPartIMF
 0006:0069E458       `typeinfo for'Btl_AtkAchichiFlowerChallenge::AtkPartMain
 0006:0069E464       `typeinfo for'Btl_AtkAchichiFlowerChallenge::AtkPartFinal
 0006:0069E470       `typeinfo for'Btl_AtkAchichiFlowerChallenge::AtkPartIntro::UpdaterWaitReadyAtkComp
 0006:0069E47C       `typeinfo for'Btl_AtkAchichiFlowerChallenge::AtkPartIntro
 0006:0069E488       `typeinfo for'Btl_AtkAchichiFlowerChallenge::SceneUpdAtkEnter
 0006:0069E494       `typeinfo for'Btl_AtkAchichiFlowerChallenge::SceneUpdAtkExtend
 0006:0069E4A0       `typeinfo for'Btl_AtkAchichiFlowerChallenge::SceneUpdAtkFinish
 0006:0069E4AC       `typeinfo for'Btl_AtkAchichiFlowerChallenge::SceneUpdAtkNormal
 0006:0069E4B8       `typeinfo for'Btl_AtkAchichiFlowerChallenge::MonSoloUpdFireMove
 0006:0069E4C4       `typeinfo for'Btl_AtkAchichiFlowerChallenge::MonSoloUpdFireBurst
 0006:0069E4D0       `typeinfo for'Btl_AtkAchichiFlowerChallenge::PcSoloUpdExtendAppear
 0006:0069E4DC       `typeinfo for'Btl_AtkAchichiFlowerChallenge::RefCounterSlowAtkMode
 0006:0069E4E8       `typeinfo for'Btl_AtkAchichiFlowerChallenge::PcSoloUpdFireballBurst
 0006:0069E4F4       `typeinfo for'Btl_AtkAchichiFlowerChallenge::PcSoloUpdFireballThrow
 0006:0069E500       `typeinfo for'Btl_AtkAchichiFlowerChallenge::PcSoloUpdFireballGrowth
 0006:0069E50C       `typeinfo for'Btl_AtkAchichiFlowerChallenge::PcSoloUpdChangeToFireCos
 0006:0069E518       `typeinfo for'Btl_AtkAchichiFlowerChallenge::PcSoloUpdChangeToNormalCos
 0006:0069E524       `typeinfo for'Btl_AtkAchichiFlowerChallenge::ChrCmd
 0006:0069E530       `typeinfo for'Btl_AtkSnipePachinkoChallenge::AtkPartMain
 0006:0069E53C       `typeinfo for'Btl_AtkSnipePachinkoChallenge::AtkPartFinal
 0006:0069E548       `typeinfo for'Btl_AtkSnipePachinkoChallenge::AtkPartIntro::UpdaterWaitReadyAtkComp
 0006:0069E554       `typeinfo for'Btl_AtkSnipePachinkoChallenge::AtkPartIntro
 0006:0069E560       `typeinfo for'Btl_AtkSnipePachinkoChallenge::AtkPartTotal
 0006:0069E56C       `typeinfo for'Btl_AtkSnipePachinkoChallenge::BASceneUpdAtkReady
 0006:0069E578       `typeinfo for'Btl_AtkSnipePachinkoChallenge::BASceneUpdAtkCharging
 0006:0069E584       `typeinfo for'Btl_AtkSnipePachinkoChallenge::BASceneUpdAtkTargeting
 0006:0069E590       `typeinfo for'Btl_AtkSnipePachinkoChallenge::BASceneUpdAtkClashFloor
 0006:0069E59C       `typeinfo for'Btl_AtkSnipePachinkoChallenge::BASceneUpdAtkPostHitMon
 0006:0069E5A8       `typeinfo for'Btl_AtkSnipePachinkoChallenge::BASceneUpdRetrySequence
 0006:0069E5B4       `typeinfo for'Btl_AtkSnipePachinkoChallenge::BASceneUpdAtkLostStamina
 0006:0069E5C0       `typeinfo for'Btl_AtkSnipePachinkoChallenge::BASceneUpdAtkShootHitStop
 0006:0069E5CC       `typeinfo for'Btl_AtkSnipePachinkoChallenge::BtlObjUIRenderKeyOverride
 0006:0069E5D8       `typeinfo for'Btl_AtkSnipePachinkoChallenge::BASceneUpdAtkShootPiercing
 0006:0069E5E4       `typeinfo for'Btl_AtkSnipePachinkoChallenge::BASceneUpdAtkPachinkoBeltSpringExp
 0006:0069E5F0       `typeinfo for'Btl_AtkSnipePachinkoChallenge::ChrCmd
 0006:0069E5FC       `typeinfo for'Btl_AtkSnipePachinkoChallenge::BAScene
 0006:0069E608       `typeinfo for'Btl_AtkSnipePachinkoChallenge::BAPcTeam
 0006:0069E614       `typeinfo for'Btl_AtkSnipePachinkoChallenge::BAMonSolo
 0006:0069E61C       `typeinfo for'Btl_AtkSnipePachinkoChallenge::BAMonTeam
 0006:0069E628       `typeinfo for'MB::StateIntro
 0006:0069E634       `typeinfo for'MB::StateFinalize
 0006:0069E640       `typeinfo for'MB::yaUt::BtlColRead
 0006:0069E64C       `typeinfo for'MB::yaUt::PhysicsObj
 0006:0069E658       `typeinfo for'MB::yaUt::OBBCollider
 0006:0069E664       `typeinfo for'MB::yaUt::ProcessBase
 0006:0069E670       `typeinfo for'MB::yaUt::AABBCollider
 0006:0069E67C       `typeinfo for'MB::yaUt::CollisionFunc
 0006:0069E684       `typeinfo for'MB::yaUt::SphereCollider
 0006:0069E690       `typeinfo for'MB::yaUt::MiracleAtkIntro_Move
 0006:0069E69C       `typeinfo for'MB::yaUt::MiracleAtkIntro_HoistLuigi
 0006:0069E6A8       `typeinfo for'MB::yaUt::MiracleAtkIntro_ThrowLuigi
 0006:0069E6B4       `typeinfo for'MB::yaUt::MiracleAtkIntro_AttachUnitDfx
 0006:0069E6C0       `typeinfo for'MB::yaUt::ObjBase
 0006:0069E6C8       `typeinfo for'MB::yaUt::LinkNode
 0006:0069E6D0       `typeinfo for'MB::yaUt::ICollider
 0006:0069E6DC       `typeinfo for'MB::StateMain
 0006:0069E6E8       `typeinfo for'MF::StateIntro
 0006:0069E6F4       `typeinfo for'MF::StateFinalize
 0006:0069E700       `typeinfo for'MF::BtlPcAtkMiracleFire
 0006:0069E70C       `typeinfo for'MF::yaUt::PhysicsObj
 0006:0069E718       `typeinfo for'MF::yaUt::ProcessBase
 0006:0069E724       `typeinfo for'MF::yaUt::AABBCollider
 0006:0069E730       `typeinfo for'MF::yaUt::SphereCollider
 0006:0069E73C       `typeinfo for'MF::yaUt::MiracleAtkIntro_Fade
 0006:0069E748       `typeinfo for'MF::yaUt::IMiracleAtkIntro_Fade
 0006:0069E754       `typeinfo for'MF::yaUt::MiracleAtkIntro_HoistLuigi
 0006:0069E760       `typeinfo for'MF::yaUt::MiracleAtkIntro_ThrowLuigi
 0006:0069E76C       `typeinfo for'MF::yaUt::MiracleAtkIntro_AttachUnitDfx
 0006:0069E778       `typeinfo for'MF::yaUt::ObjBase
 0006:0069E780       `typeinfo for'MF::yaUt::LinkNode
 0006:0069E788       `typeinfo for'MF::yaUt::ICollider
 0006:0069E794       `typeinfo for'MF::ObjMon
 0006:0069E7A0       `typeinfo for'MF::Resource
 0006:0069E7AC       `typeinfo for'MF::StateMain
 0006:0069E7B8       `typeinfo for'MH::StateIntro
 0006:0069E7C4       `typeinfo for'MH::LuigiHammer::StateBound
 0006:0069E7D0       `typeinfo for'MH::LuigiHammer::StateSwing
 0006:0069E7DC       `typeinfo for'MH::LuigiHammer::StateThrow
 0006:0069E7E8       `typeinfo for'MH::LuigiHammer::StateDelete
 0006:0069E7F4       `typeinfo for'MH::LuigiHammer::StateKuzure
 0006:0069E800       `typeinfo for'MH::LuigiHammer::StateFurikaburi
 0006:0069E80C       `typeinfo for'MH::LuigiHammer::StateMakeHammer
 0006:0069E818       `typeinfo for'MH::StateFinalize
 0006:0069E824       `typeinfo for'MH::yaUt::BtlColRead
 0006:0069E830       `typeinfo for'MH::yaUt::PhysicsObj
 0006:0069E83C       `typeinfo for'MH::yaUt::ProcessBase
 0006:0069E848       `typeinfo for'MH::yaUt::MiracleAtkIntro_Move
 0006:0069E854       `typeinfo for'MH::yaUt::MiracleAtkIntro_HoistLuigi
 0006:0069E860       `typeinfo for'MH::yaUt::MiracleAtkIntro_ThrowLuigi
 0006:0069E86C       `typeinfo for'MH::yaUt::MiracleAtkIntro_AttachUnitDfx
 0006:0069E878       `typeinfo for'MH::yaUt::State<MH::LuigiHammer>
 0006:0069E880       `typeinfo for'MH::yaUt::State<MH::ObjCam>
 0006:0069E888       `typeinfo for'MH::yaUt::State<MH::ObjMario::MarioHammer>
 0006:0069E890       `typeinfo for'MH::yaUt::State<MH::ObjMario::Move>
 0006:0069E898       `typeinfo for'MH::yaUt::ObjBase
 0006:0069E8A0       `typeinfo for'MH::yaUt::LinkNode
 0006:0069E8A8       `typeinfo for'MH::AtkCmd
 0006:0069E8B4       `typeinfo for'MH::ObjCam::StateGoHome
 0006:0069E8C0       `typeinfo for'MH::ObjCam::StateAutoMove
 0006:0069E8CC       `typeinfo for'MH::ObjCam::StateCompress
 0006:0069E8D8       `typeinfo for'MH::ObjCam::StateSwingFall
 0006:0069E8E4       `typeinfo for'MH::ObjCam::StateSwingJump
 0006:0069E8F0       `typeinfo for'MH::ObjCam::StateMakeHammer
 0006:0069E8FC       `typeinfo for'MH::ObjMon
 0006:0069E91C       `typeinfo for'MH::ObjMario::MarioHammer::StateSwing
 0006:0069E928       `typeinfo for'MH::ObjMario::MarioHammer::StateThrow
 0006:0069E934       `typeinfo for'MH::ObjMario::MarioHammer::StateYuragi
 0006:0069E940       `typeinfo for'MH::ObjMario::MarioHammer::StateBalance
 0006:0069E94C       `typeinfo for'MH::ObjMario::MarioHammer::StateAutoMove
 0006:0069E958       `typeinfo for'MH::ObjMario::MarioHammer::StateFurikaburi
 0006:0069E964       `typeinfo for'MH::ObjMario::MarioHammer::StateSwingExcellent
 0006:0069E970       `typeinfo for'MH::ObjMario::MarioHammer::StateHit
 0006:0069E97C       `typeinfo for'MH::ObjMario::MarioHammer::StateJump
 0006:0069E988       `typeinfo for'MH::ObjMario::Move::StateAutoDash
 0006:0069E994       `typeinfo for'MH::ObjMario::Move::StateMakeHammer
 0006:0069E9A0       `typeinfo for'MH::Resource
 0006:0069E9AC       `typeinfo for'MH::ShockWave
 0006:0069E9B8       `typeinfo for'MH::StateMain
 0006:0069E9C4       `typeinfo for'MT::yaUt::ProcessBase
 0006:0069E9D0       `typeinfo for'MT::yaUt::MiracleAtkIntro_Move
 0006:0069E9DC       `typeinfo for'MT::yaUt::MiracleAtkIntro_HoistLuigi
 0006:0069E9E8       `typeinfo for'MT::yaUt::MiracleAtkIntro_ThrowLuigi
 0006:0069E9F4       `typeinfo for'MT::yaUt::MiracleAtkIntro_AttachUnitDfx
 0006:0069EA00       `typeinfo for'MT::yaUt::LinkNode
 0006:0069EA08       `typeinfo for'MV::BtlPcAtkMiracleVolcano
 0006:0069EA14       `typeinfo for'nn::fs::FileStream
 0006:0069EA3C       `typeinfo for'nn::fs::IInputStream
 0006:0069EA54       `typeinfo for'nn::fs::IOutputStream
 0006:0069EA6C       `typeinfo for'nn::fs::IPositionable
 0006:0069EA74       `typeinfo for'nn::fs::FileInputStream
 0006:0069EA9C       `typeinfo for'nn::fs::CTR::MPCore::detail::IDirectory
 0006:0069EAA4       `typeinfo for'nn::fs::CTR::MPCore::detail::RomFsArchive::File
 0006:0069EAB0       `typeinfo for'nn::fs::CTR::MPCore::detail::RomFsArchive::Directory
 0006:0069EABC       `typeinfo for'nn::fs::CTR::MPCore::detail::RomFsArchive
 0006:0069EAC8       `typeinfo for'nn::fs::CTR::MPCore::detail::FileServerArchive::File
 0006:0069EAE8       `typeinfo for'nn::fs::CTR::MPCore::detail::FileServerArchive::Directory
 0006:0069EB08       `typeinfo for'nn::fs::CTR::MPCore::detail::FileServerArchive
 0006:0069EB28       `typeinfo for'nn::fs::CTR::MPCore::detail::ContentRomFsArchive
 0006:0069EB34       `typeinfo for'nn::fs::CTR::MPCore::detail::IFile
 0006:0069EB3C       `typeinfo for'nn::fs::CTR::MPCore::detail::IArchive
 0006:0069EB44       `typeinfo for'nn::fs::detail::FileBaseImpl
 0006:0069EB5C       `typeinfo for'nn::fs::detail::FileBase
 0006:0069EB68       `typeinfo for'nn::fs::IStream
 0006:0069EB88       `typeinfo for'nn::os::LockPolicy::NoLock::LockObject
 0006:0069EB90       `typeinfo for'nn::os::LockPolicy::Object<nn::os::CriticalSection>::LockObject
 0006:0069EB98       `typeinfo for'nn::os::WaitObject
 0006:0069EBA4       `typeinfo for'nn::os::HandleObject
 0006:0069EBBC       `typeinfo for'nn::os::InterruptEvent
 0006:0069EBC8       `typeinfo for'nn::os::AutoStackManager
 0006:0069EBD0       `typeinfo for'nn::os::Thread
 0006:0069EBDC       `typeinfo for'nn::os::EventBase
 0006:0069EBE8       `typeinfo for'nn::ro::Module::EnumerateCallback
 0006:0069EBF0       `typeinfo for'nn::fnd::IAllocator
 0006:0069EBF8       `typeinfo for'nn::fnd::ExpHeapBase
 0006:0069EC04       `typeinfo for'nn::fnd::UnitHeapBase
 0006:0069EC10       `typeinfo for'nn::fnd::FrameHeapBase
 0006:0069EC1C       `typeinfo for'nn::fnd::ExpHeapTemplate<nn::os::LockPolicy::Object<nn::os::CriticalSection>>::Allocator
 0006:0069EC28       `typeinfo for'nn::fnd::ExpHeapTemplate<nn::os::LockPolicy::Object<nn::os::CriticalSection>>
 0006:0069EC48       `typeinfo for'nn::fnd::UnitHeapTemplate<nn::os::LockPolicy::Object<nn::os::CriticalSection>>
 0006:0069EC68       `typeinfo for'nn::fnd::FrameHeapTemplate<nn::os::LockPolicy::NoLock>
 0006:0069EC88       `typeinfo for'nn::fnd::IntrusiveLinkedList<nn::fnd::HeapBase,void>::Item
 0006:0069ECA0       `typeinfo for'nn::fnd::IntrusiveLinkedList<nn::srv::NotificationHandler,void>::Item
 0006:0069ECB8       `typeinfo for'nn::fnd::HeapBase
 0006:0069ECD0       `typeinfo for'nn::hid::CTR::HidBase
 0006:0069ECDC       `typeinfo for'nn::hid::CTR::Gyroscope
 0006:0069ECF4       `typeinfo for'nn::srv::NotificationHandler
 0006:0069ED0C       `typeinfo for'nn::srv::EventNotificationHandlerBase<nn::os::LightEvent>
 0006:0069ED18       `typeinfo for'nn::ssl::detail::LibManager
 0006:0069ED20       `typeinfo for'nn::font::ResFontBase
 0006:0069ED2C       `typeinfo for'nn::font::Font
 0006:0069ED34       `typeinfo for'nn::font::ResFont
 0006:0069ED40       `typeinfo for'nn::util::ADLFireWall::NonCopyable<nn::fs::FileStream>
 0006:0069ED48       `typeinfo for'nn::util::ADLFireWall::NonCopyable<nn::fs::FileInputStream>
 0006:0069ED50       `typeinfo for'nn::util::ADLFireWall::NonCopyable<nn::fs::detail::FileBaseImpl>
 0006:0069ED58       `typeinfo for'nn::util::ADLFireWall::NonCopyable<nn::os::HandleObject>
 0006:0069ED60       `typeinfo for'nn::util::ADLFireWall::NonCopyable<nn::fnd::IntrusiveLinkedList<nn::fnd::HeapBase,void>::Item>
 0006:0069ED68       `typeinfo for'nn::util::ADLFireWall::NonCopyable<nn::fnd::IntrusiveLinkedList<nn::srv::NotificationHandler,void>::Item>
 0006:0069ED70       `typeinfo for'nn::crypto::Sha256Context
 0006:0069ED7C       `typeinfo for'nn::crypto::HashContextBase
 0006:0069ED84       `typeinfo for'nn::crypto::ShaBlock512BitContext
 0006:0069ED90       `typeinfo for'nw::os::IAllocator
 0006:0069ED98       `typeinfo for'nw::lyt::AnimTransform
 0006:0069EDA0       `typeinfo for'nw::lyt::ResourceAccessor
 0006:0069EDA8       `typeinfo for'nw::lyt::AnimTransformBasic
 0006:0069EDB4       `typeinfo for'nw::lyt::ArcResourceAccessor
 0006:0069EDC0       `typeinfo for'nw::lyt::Pane
 0006:0069EDCC       `typeinfo for'nw::lyt::Group
 0006:0069EDD4       `typeinfo for'nw::lyt::Drawer
 0006:0069EDE0       `typeinfo for'nw::lyt::Layout
 0006:0069EDE8       `typeinfo for'nw::lyt::Window
 0006:0069EDF4       `typeinfo for'nw::lyt::Picture
 0006:0069EE00       `typeinfo for'nw::lyt::TextBox
 0006:0069EE0C       `typeinfo for'nw::lyt::Bounding
 0006:0069EE18       `typeinfo for'nw::lyt::DrawInfo
 0006:0069EE20       `typeinfo for'nw::lyt::Material
 0006:0069EE28       `typeinfo for'nw::lyt::internal::PaneBase
 0006:0069EE30       `typeinfo for'nw::font::RectDrawer
 0006:0069EE38       `typeinfo for'nw::font::ResFontBase
 0006:0069EE44       `typeinfo for'nw::font::TagProcessorBase<char>
 0006:0069EE4C       `typeinfo for'nw::font::TagProcessorBase<wchar_t>
 0006:0069EE54       `typeinfo for'nw::font::Font
 0006:0069EE5C       `typeinfo for'nw::font::ResFont
 0006:0069EE68       `typeinfo for'Btl::HandleTmpl<BtlDfxUnit>
 0006:0069EE70       `typeinfo for'Btl::HandleTmpl<BtlSndTask>
 0006:0069EE78       `typeinfo for'MSB::MessageObj
 0006:0069EE84       `typeinfo for'MSB::StateIntro
 0006:0069EE90       `typeinfo for'MSB::CamFollow_0
 0006:0069EE9C       `typeinfo for'MSB::CamFollow_1
 0006:0069EEA8       `typeinfo for'MSB::ObjSnowball
 0006:0069EEC8       `typeinfo for'MSB::ObjLuigiGroup
 0006:0069EEE8       `typeinfo for'MSB::StateFinalize
 0006:0069EEF4       `typeinfo for'MSB::SnowballRenderer
 0006:0069EF00       `typeinfo for'MSB::CamFollowBehavior
 0006:0069EF08       `typeinfo for'MSB::ObjUsefullCollider
 0006:0069EF14       `typeinfo for'MSB::BtlPcAtkMiracleSnowball
 0006:0069EF20       `typeinfo for'MSB::yaUt::BtlColRead
 0006:0069EF2C       `typeinfo for'MSB::yaUt::PhysicsObj
 0006:0069EF38       `typeinfo for'MSB::yaUt::ProcessBase
 0006:0069EF44       `typeinfo for'MSB::yaUt::AABBCollider
 0006:0069EF50       `typeinfo for'MSB::yaUt::CollisionFunc
 0006:0069EF58       `typeinfo for'MSB::yaUt::SphereCollider
 0006:0069EF64       `typeinfo for'MSB::yaUt::MiracleAtkIntro_Fade
 0006:0069EF70       `typeinfo for'MSB::yaUt::IMiracleAtkIntro_Fade
 0006:0069EF7C       `typeinfo for'MSB::yaUt::MiracleAtkIntro_MarioJump
 0006:0069EF88       `typeinfo for'MSB::yaUt::MiracleAtkIntro_HoistLuigi
 0006:0069EF94       `typeinfo for'MSB::yaUt::MiracleAtkIntro_ThrowLuigi
 0006:0069EFA0       `typeinfo for'MSB::yaUt::MiracleAtkIntro_AttachUnitDfx
 0006:0069EFAC       `typeinfo for'MSB::yaUt::ObjBase
 0006:0069EFB4       `typeinfo for'MSB::yaUt::LinkNode
 0006:0069EFBC       `typeinfo for'MSB::yaUt::ICollider
 0006:0069EFC8       `typeinfo for'MSB::ObjCam
 0006:0069EFD4       `typeinfo for'MSB::ObjMon
 0006:0069EFFC       `typeinfo for'MSB::ObjLuigi
 0006:0069F01C       `typeinfo for'MSB::ObjMario::SECallBack
 0006:0069F028       `typeinfo for'MSB::ObjMario
 0006:0069F034       `typeinfo for'MSB::Resource
 0006:0069F040       `typeinfo for'MSB::StateMain
 0006:0069F04C       `typeinfo for'Adsl::Internal::SharedCountP<BtlObjMove>
 0006:0069F058       `typeinfo for'Adsl::Internal::SharedCountP<Btl_AtkStarRocket::BAMonSolo>
 0006:0069F064       `typeinfo for'Adsl::Internal::SharedCountP<Btl_AtkFuechauBall::BAMonSolo>
 0006:0069F070       `typeinfo for'Adsl::Internal::SharedCountP<Btl_AtkAchichiFlower::BAFireball>
 0006:0069F07C       `typeinfo for'Adsl::Internal::SharedCountP<Btl_AtkAchichiFlower::BAMonSolo>
 0006:0069F088       `typeinfo for'Adsl::Internal::SharedCountP<Btl_AtkFuechauBallChallenge::BAMonSolo>
 0006:0069F094       `typeinfo for'Adsl::Internal::SharedCountP<Btl_AtkAchichiFlowerChallenge::BAFireball>
 0006:0069F0A0       `typeinfo for'Adsl::Internal::SharedCountP<Btl_AtkAchichiFlowerChallenge::BAMonSolo>
 0006:0069F0AC       `typeinfo for'Adsl::Internal::SharedCountP<Btl_AtkSnipePachinkoChallenge::BAMonSolo>
 0006:0069F0B8       `typeinfo for'Adsl::Internal::SharedCountP<BETPcWin::UIParamDispU>
 0006:0069F0C4       `typeinfo for'Adsl::Internal::SharedCountP<BETPcWin::UIObjectsDispL>
 0006:0069F0D0       `typeinfo for'Adsl::Internal::SharedCountP<BETPcWin::UIBtlResultDispU>
 0006:0069F0DC       `typeinfo for'Adsl::Internal::SharedCountP<BETPcWin::UISharedObjectsTuple>
 0006:0069F0E8       `typeinfo for'Adsl::Internal::SharedCountP<BETPcWin::ObjCA>
 0006:0069F0F4       `typeinfo for'Adsl::Internal::SharedCountPD<BtlDfxUnit,hoBtlUtil::hoDfxUnitKillFunctor>
 0006:0069F100       `typeinfo for'Adsl::Internal::SharedCountBase
 0006:0069F108       `typeinfo for'Bomb::Hit
 0006:0069F114       `typeinfo for'Bomb::Drop
 0006:0069F120       `typeinfo for'Bomb::Fall
 0006:0069F12C       `typeinfo for'Bomb::IState
 0006:0069F134       `typeinfo for'Bomb::Disable
 0006:0069F140       `typeinfo for'Bomb::Expl_Hit
 0006:0069F14C       `typeinfo for'Bomb::Expl_Miss
 0006:0069F158       `typeinfo for'UITM::MainProcess
 0006:0069F164       `typeinfo for'UITM::AttackMLTask
 0006:0069F170       `typeinfo for'UITM::AttackBallTask
 0006:0069F17C       `typeinfo for'UITM::MainProcess_Resurrect
 0006:0069F188       `typeinfo for'UITM::MainProcess_ChokkaiBall
 0006:0069F194       `typeinfo for'UITM::MainProcess_BombBoxCommon::Process_ThrowAnm
 0006:0069F1A0       `typeinfo for'UITM::MainProcess_BombBoxCommon::Process_SecretBox
 0006:0069F1AC       `typeinfo for'UITM::MainProcess_BombBoxCommon::Process_BikkuriBomb
 0006:0069F1B8       `typeinfo for'UITM::MainProcess_BombBoxCommon
 0006:0069F1C4       `typeinfo for'UITM::MainProcess_ResurrectMame
 0006:0069F1D0       `typeinfo for'UITM::yaUt::ProcessBase
 0006:0069F1DC       `typeinfo for'UITM::yaUt::LinkNode
 0006:0069F1E4       `typeinfo for'UITM::EatML
 0006:0069F1F0       `typeinfo for'UITM::MoveItem
 0006:0069F1FC       `typeinfo for'UITM::Resource
 0006:0069F208       `typeinfo for'__rw::__rw_facet_base
 0006:0069F214       `typeinfo for'__rw::__rw_punct_data<char>
 0006:0069F21C       `typeinfo for'__rw::__rw_collate_data<char>
 0006:0069F224       `typeinfo for'__rw::__rw_collate_impl<char>
 0006:0069F230       `typeinfo for'__rw::__rw_ctype_helper<char>
 0006:0069F238       `typeinfo for'__rw::__rw_synchronized
 0006:0069F240       `typeinfo for'__rw::__rw_numpunct_impl<char>
 0006:0069F24C       `typeinfo for'__rw::__rw_numpunct_impl_base
 0006:0069F254       `typeinfo for'__rw::__rw_numpunct_impl_data<char>
 0006:0069F274       `typeinfo for'adsl::gfx::AnimObject
 0006:0069F280       `typeinfo for'adsl::gfx::AnimBinding
 0006:0069F28C       `typeinfo for'adsl::gfx::SceneObject
 0006:0069F298       `typeinfo for'adsl::gfx::VertexLight
 0006:0069F2A4       `typeinfo for'adsl::gfx::AmbientLight
 0006:0069F2B0       `typeinfo for'adsl::gfx::MeshRenderer
 0006:0069F2BC       `typeinfo for'adsl::gfx::SceneContext
 0006:0069F2C8       `typeinfo for'adsl::gfx::SceneUpdater
 0006:0069F2D4       `typeinfo for'adsl::gfx::AnimEvaluator
 0006:0069F2E0       `typeinfo for'adsl::gfx::FragmentLight
 0006:0069F2EC       `typeinfo for'adsl::gfx::IRenderTarget
 0006:0069F2F8       `typeinfo for'adsl::gfx::ISceneUpdater
 0006:0069F304       `typeinfo for'adsl::gfx::ISceneVisitor
 0006:0069F310       `typeinfo for'adsl::gfx::RenderContext
 0006:0069F31C       `typeinfo for'adsl::gfx::ShaderProgram
 0006:0069F328       `typeinfo for'adsl::gfx::SkeletalModel
 0006:0069F334       `typeinfo for'adsl::gfx::TransformNode
 0006:0069F340       `typeinfo for'adsl::gfx::SceneTraverser
 0006:0069F34C       `typeinfo for'adsl::gfx::OffScreenBuffer
 0006:0069F358       `typeinfo for'adsl::gfx::SceneInitializer
 0006:0069F364       `typeinfo for'adsl::gfx::StandardSkeleton
 0006:0069F370       `typeinfo for'adsl::gfx::BaseAnimEvaluator
 0006:0069F37C       `typeinfo for'adsl::gfx::CameraViewUpdater
 0006:0069F388       `typeinfo for'adsl::gfx::MaterialActivator
 0006:0069F394       `typeinfo for'adsl::gfx::RotateViewUpdater
 0006:0069F3A0       `typeinfo for'adsl::gfx::IMaterialActivator
 0006:0069F3AC       `typeinfo for'adsl::gfx::AimTargetViewUpdater
 0006:0069F3B8       `typeinfo for'adsl::gfx::AnimBlendOpTransform
 0006:0069F3C4       `typeinfo for'adsl::gfx::IMaterialIdGenerator
 0006:0069F3D0       `typeinfo for'adsl::gfx::TransformAnimBlendOp
 0006:0069F3DC       `typeinfo for'adsl::gfx::OrthoProjectionUpdater
 0006:0069F3E8       `typeinfo for'adsl::gfx::TransformAnimEvaluator
 0006:0069F3F4       `typeinfo for'adsl::gfx::CameraProjectionUpdater
 0006:0069F400       `typeinfo for'adsl::gfx::LookAtTargetViewUpdater
 0006:0069F40C       `typeinfo for'adsl::gfx::SceneEnvironmentSetting
 0006:0069F418       `typeinfo for'adsl::gfx::SimpleMaterialActivator
 0006:0069F424       `typeinfo for'adsl::gfx::FrustumProjectionUpdater
 0006:0069F430       `typeinfo for'adsl::gfx::TransformAnimBlendOpQuat
 0006:0069F43C       `typeinfo for'adsl::gfx::SortingMaterialIdGenerator
 0006:0069F448       `typeinfo for'adsl::gfx::PerspectiveProjectionUpdater
 0006:0069F454       `typeinfo for'adsl::gfx::TransformAnimBlendOpAccScale
 0006:0069F460       `typeinfo for'adsl::gfx::TransformAnimBlendOpStandard
 0006:0069F46C       `typeinfo for'adsl::gfx::TransformAnimBlendOpAccScaleQuat
 0006:0069F478       `typeinfo for'adsl::gfx::Fog
 0006:0069F484       `typeinfo for'adsl::gfx::Light
 0006:0069F490       `typeinfo for'adsl::gfx::Model
 0006:0069F49C       `typeinfo for'adsl::gfx::Camera
 0006:0069F4A8       `typeinfo for'adsl::gfx::LightSet
 0006:0069F4B4       `typeinfo for'adsl::gfx::Material
 0006:0069F4C0       `typeinfo for'adsl::gfx::Skeleton
 0006:0069F4CC       `typeinfo for'adsl::gfx::AnimGroup
 0006:0069F4D8       `typeinfo for'adsl::gfx::GfxObject
 0006:0069F4E0       `typeinfo for'adsl::gfx::SceneNode
 0006:0069F4EC       `typeinfo for'adsl::anim::AnimResult
 0006:0069F4F4       `typeinfo for'adsl::anim::AnimBlendOp
 0006:0069F4FC       `typeinfo for'adsl::anim::AnimBlendOpInt
 0006:0069F508       `typeinfo for'adsl::anim::AnimBlendOpBool
 0006:0069F514       `typeinfo for'adsl::anim::AnimBlendOpFloat
 0006:0069F520       `typeinfo for'adsl::anim::AnimBlendOpTexture
 0006:0069F52C       `typeinfo for'adsl::anim::AnimBlendOpVector2
 0006:0069F538       `typeinfo for'adsl::anim::AnimBlendOpVector3
 0006:0069F544       `typeinfo for'adsl::anim::AnimFrameController
 0006:0069F54C       `typeinfo for'adsl::anim::AnimBlendOpRgbaColor
 0006:0069F558       `typeinfo for'adsl::anim::AnimFrame
 0006:0069F560       `typeinfo for'yaUt::IMsgReceivable
 0006:0069F568       `typeinfo for'yaUt::MsgReciverProxy
 0006:0069F574       `typeinfo for'yaUt::IBtlAtkStateTmpl<BtlAtkMJLuigi>
 0006:0069F57C       `typeinfo for'yaUt::IBtlAtkStateTmpl<BtlAtkMJMario>
 0006:0069F584       `typeinfo for'yaUt::IBtlAtkStateTmpl<yaLuigiBoxWorld>
 0006:0069F58C       `typeinfo for'yaUt::IBtlAtkStateTmpl<BtlPcAtkMidoriKoura>
 0006:0069F594       `typeinfo for'yaUt::IBtlAtkStateTmpl<BtlPcAtkMiracleBall>
 0006:0069F59C       `typeinfo for'yaUt::IBtlAtkStateTmpl<BtlPcAtkMiracleTornado>
 0006:0069F5A4       `typeinfo for'yaUt::IBtlAtkStateTmpl<BtlMDPC>
 0006:0069F5AC       `typeinfo for'yaUt::IBtlAtkStateTmpl<MDCHALLENGE::AtkCmd>
 0006:0069F5B4       `typeinfo for'yaUt::IBtlAtkStateTmpl<FLCCHALLENGE::AtkCmd>
 0006:0069F5BC       `typeinfo for'yaUt::IBtlAtkStateTmpl<MRBCHALLENGE::AtkCmd>
 0006:0069F5C4       `typeinfo for'yaUt::IBtlAtkStateTmpl<MF::BtlPcAtkMiracleFire>
 0006:0069F5CC       `typeinfo for'yaUt::IBtlAtkStateTmpl<MH::AtkCmd>
 0006:0069F5D4       `typeinfo for'yaUt::IBtlAtkStateTmpl<MSB::BtlPcAtkMiracleSnowball>
 0006:0069F5DC       `typeinfo for'yaUt::IBtlAtkStateTmplMsg<BtlAtkMJCam>
 0006:0069F5E8       `typeinfo for'yaUt::IBtlAtkStateTmplMsg<BTLFLC::Task_GameManager>
 0006:0069F5F4       `typeinfo for'yaUt::IBtlStateAccessorTmpl<BtlChr>
 0006:0069F5FC       `typeinfo for'yaUt::IBtlStateAccessorTmpl<BtlMDPC>
 0006:0069F604       `typeinfo for'yaUt::ITask
 0006:0069F60C       `typeinfo for'BTLMJ::StompTaskCallback
 0006:0069F618       `typeinfo for'BTLMJ::yaUt::ProcessBase
 0006:0069F624       `typeinfo for'BTLMJ::yaUt::AABBCollider
 0006:0069F630       `typeinfo for'BTLMJ::yaUt::MiracleAtkIntro_Fade
 0006:0069F63C       `typeinfo for'BTLMJ::yaUt::IMiracleAtkIntro_Fade
 0006:0069F648       `typeinfo for'BTLMJ::yaUt::MiracleAtkIntro_MarioJump
 0006:0069F654       `typeinfo for'BTLMJ::yaUt::MiracleAtkIntro_HoistLuigi
 0006:0069F660       `typeinfo for'BTLMJ::yaUt::MiracleAtkIntro_ThrowLuigi
 0006:0069F66C       `typeinfo for'BTLMJ::yaUt::MiracleAtkIntro_AttachUnitDfx
 0006:0069F678       `typeinfo for'BTLMJ::yaUt::LinkNode
 0006:0069F680       `typeinfo for'BTLMJ::yaUt::ICollider
 0006:0069F68C       `typeinfo for'Badge::ObjBtnBase
 0006:0069F698       `typeinfo for'Badge::ObjConfirm
 0006:0069F6A4       `typeinfo for'Badge::ObjECSumPt
 0006:0069F6B0       `typeinfo for'Badge::ObjMsgBase
 0006:0069F6BC       `typeinfo for'Badge::DfxWrapBase
 0006:0069F6C4       `typeinfo for'Badge::ObjActMeter
 0006:0069F6D0       `typeinfo for'Badge::ObjECPlusPt
 0006:0069F6DC       `typeinfo for'Badge::ObjPrimBase
 0006:0069F6E8       `typeinfo for'Badge::ObjSelBadge
 0006:0069F6F4       `typeinfo for'Badge::ObjAtkExpImg
 0006:0069F700       `typeinfo for'Badge::ObjAtkExpMsg
 0006:0069F70C       `typeinfo for'Badge::ObjStockBase
 0006:0069F718       `typeinfo for'Badge::ObjBtnOverlay
 0006:0069F724       `typeinfo for'Badge::ObjNumPnlBase
 0006:0069F730       `typeinfo for'Badge::ObjStockPanel
 0006:0069F73C       `typeinfo for'Badge::ObjBadgeEffMsg
 0006:0069F748       `typeinfo for'Badge::ObjBadgeEffPopup
 0006:0069F754       `typeinfo for'Badge::ObjECDetailWindow
 0006:0069F760       `typeinfo for'Badge::ChgScrCallbackBase
 0006:0069F768       `typeinfo for'Badge::ExecBadgeEffCallbackBase
 0006:0069F770       `typeinfo for'Badge::ObjBg
 0006:0069F77C       `typeinfo for'Badge::ObjBase
 0006:0069F788       `typeinfo for'Badge::ObjList
 0006:0069F794       `typeinfo for'Badge::ObjStock
 0006:0069F7A0       `typeinfo for'Badge::DfxHandle
 0006:0069F7AC       `typeinfo for'Badge::ObjECList::ListWnd
 0006:0069F7B8       `typeinfo for'Badge::ObjECList
 0006:0069F7C4       `typeinfo for'BtlFS::FileUnit
 0006:0069F7D0       `typeinfo for'BtlFS::FReadUnit
 0006:0069F7DC       `typeinfo for'BtlPc::SpEffActHpLimit
 0006:0069F7E8       `typeinfo for'BtlPc::SpEffActLuckyTime
 0006:0069F7F4       `typeinfo for'BtlPc::SpEffActGhostCookie
 0006:0069F800       `typeinfo for'BtlPc::SpEffActLuckyChance
 0006:0069F80C       `typeinfo for'BTLFLC::FlcResource
 0006:0069F818       `typeinfo for'BTLFLC::SyncObjTask
 0006:0069F824       `typeinfo for'BTLFLC::SyncPosTask
 0006:0069F830       `typeinfo for'BTLFLC::Task_Target::DmgStompEnd
 0006:0069F83C       `typeinfo for'BTLFLC::Task_Target
 0006:0069F85C       `typeinfo for'BTLFLC::Task_ShockWave
 0006:0069F868       `typeinfo for'BTLFLC::Task_GameManager
 0006:0069F888       `typeinfo for'BTLFLC::GameManager_Intro
 0006:0069F894       `typeinfo for'BTLFLC::MLControllTask_Spin
 0006:0069F8A0       `typeinfo for'BTLFLC::GameManager_Game_LV1
 0006:0069F8AC       `typeinfo for'BTLFLC::GameManager_Game_LV2
 0006:0069F8B8       `typeinfo for'BTLFLC::MLControllTask_GoHome
 0006:0069F8C4       `typeinfo for'BTLFLC::Task_AttackTerminater
 0006:0069F8E4       `typeinfo for'BTLFLC::MLControllTask_Futtobi
 0006:0069F8F0       `typeinfo for'BTLFLC::MLControllTask_GameLV1
 0006:0069F8FC       `typeinfo for'BTLFLC::MLControllTask_GameLV2
 0006:0069F908       `typeinfo for'BTLFLC::FlcControllTask_Destroy
 0006:0069F914       `typeinfo for'BTLFLC::FlcControllTask_GameLV1
 0006:0069F920       `typeinfo for'BTLFLC::FlcControllTask_GameLV2
 0006:0069F92C       `typeinfo for'BTLFLC::MLControllTask_Fukkatsu
 0006:0069F938       `typeinfo for'BTLFLC::FlcControllTask_SpinAfter
 0006:0069F944       `typeinfo for'BTLFLC::FlcControllTask_AutoAttack
 0006:0069F950       `typeinfo for'BTLFLC::MLControllTask_StompEffect
 0006:0069F95C       `typeinfo for'BTLFLC::yaUt::ProcessBase
 0006:0069F968       `typeinfo for'BTLFLC::yaUt::LinkNode
 0006:0069F970       `typeinfo for'BTLFLC::Task_ML
 0006:0069F990       `typeinfo for'BTLFLC::FadeTask
 0006:0069F99C       `typeinfo for'BTLFLC::Task_Cam
 0006:0069F9BC       `typeinfo for'BTLFLC::Task_Flc
 0006:0069F9DC       `typeinfo for'BTLFLC::WaitTask
 0006:0069F9E8       `typeinfo for'BtlEnc::TaskBattleEncount
 0006:0069F9F4       `typeinfo for'BtlMon::SpEffActTimeStop
 0006:0069FA00       `typeinfo for'hoUtil::hoRefCounter
 0006:0069FA08       `typeinfo for'hoUtil::hoPrimRenderer
 0006:0069FA10       `typeinfo for'hoUtil::hoShapeRenderer
 0006:0069FA1C       `typeinfo for'hoUtil::hoQuadTreeObject
 0006:0069FA24       `typeinfo for'hoUtil::hoListableObjectBase
 0006:0069FA2C       `typeinfo for'AkmAtk4::CmdStateIntro
 0006:0069FA38       `typeinfo for'AkmAtk4::IntroInternal::Resource
 0006:0069FA44       `typeinfo for'AkmAtk4::CmdStateEscape::StateHitHole
 0006:0069FA50       `typeinfo for'AkmAtk4::CmdStateEscape::StateGameOver
 0006:0069FA5C       `typeinfo for'AkmAtk4::CmdStateEscape::StateMove
 0006:0069FA68       `typeinfo for'AkmAtk4::CmdStateEscape
 0006:0069FA74       `typeinfo for'AkmAtk4::EscapeInternal::MarioObj::StateEscape
 0006:0069FA80       `typeinfo for'AkmAtk4::EscapeInternal::MarioObj::StateHitHole
 0006:0069FA8C       `typeinfo for'AkmAtk4::EscapeInternal::MarioObj::StateHitBullet
 0006:0069FA98       `typeinfo for'AkmAtk4::EscapeInternal::AkkumuObj::StateIdle
 0006:0069FAA4       `typeinfo for'AkmAtk4::EscapeInternal::AkkumuObj::StateShot
 0006:0069FAB0       `typeinfo for'AkmAtk4::AkmAtk4Internal::AkmFall
 0006:0069FABC       `typeinfo for'AkmAtk4::CmdStateExitEnd
 0006:0069FAC8       `typeinfo for'AkmAtk4::CmdStateLoopEnd
 0006:0069FAD4       `typeinfo for'AkmAtk4::CmdStateMinigame::StateGame
 0006:0069FAE0       `typeinfo for'AkmAtk4::CmdStateMinigame
 0006:0069FAEC       `typeinfo for'AkmAtk4::CmdStateGameOverEnd
 0006:0069FAF8       `typeinfo for'AkmAtk4::yaUt::ProcessBase
 0006:0069FB04       `typeinfo for'AkmAtk4::yaUt::State<AkmAtk4::CmdStateEscape>
 0006:0069FB0C       `typeinfo for'AkmAtk4::yaUt::State<AkmAtk4::EscapeInternal::MarioObj>
 0006:0069FB14       `typeinfo for'AkmAtk4::yaUt::State<AkmAtk4::EscapeInternal::AkkumuObj>
 0006:0069FB1C       `typeinfo for'AkmAtk4::yaUt::State<AkmAtk4::CmdStateMinigame>
 0006:0069FB24       `typeinfo for'AkmAtk4::yaUt::State<AkmAtk4::AtkCmd>
 0006:0069FB2C       `typeinfo for'AkmAtk4::yaUt::LinkNode
 0006:0069FB34       `typeinfo for'AkmAtk4::AtkCmd
 0006:0069FB40       `typeinfo for'AkmAtk4::HoleObj
 0006:0069FB4C       `typeinfo for'AkmAtk4::IHoleObj
 0006:0069FB54       `typeinfo for'BtlMain::VSyncThread
 0006:0069FB60       `typeinfo for'BtlMain::BadgeDfxWrap
 0006:0069FB6C       `typeinfo for'BtlMain::BtlMapDfxWrap
 0006:0069FB78       `typeinfo for'FieldPC::FieldPCColChr
 0006:0069FB84       `typeinfo for'BETPcWin::ObjectBase
 0006:0069FB90       `typeinfo for'BETPcWin::UIObjLevel
 0006:0069FB9C       `typeinfo for'BETPcWin::ObjMsgDrawer
 0006:0069FBA8       `typeinfo for'BETPcWin::ObjMsgSimple
 0006:0069FBB4       `typeinfo for'BETPcWin::UIParamDispU
 0006:0069FBC0       `typeinfo for'BETPcWin::MsgWriterBase
 0006:0069FBCC       `typeinfo for'BETPcWin::ObjSlotDigits
 0006:0069FBD8       `typeinfo for'BETPcWin::SceneUpdL2LvUp
 0006:0069FBE4       `typeinfo for'BETPcWin::UIObjectsDispL
 0006:0069FBF0       `typeinfo for'BETPcWin::UIRankBonusList
 0006:0069FBFC       `typeinfo for'BETPcWin::MsgWriterPtrWrap
 0006:0069FC08       `typeinfo for'BETPcWin::SceneUpdL2RankUp
 0006:0069FC14       `typeinfo for'BETPcWin::UIBtlResultDispU
 0006:0069FC20       `typeinfo for'BETPcWin::UIObjectListBase
 0006:0069FC2C       `typeinfo for'BETPcWin::ObjBonusParamSlot
 0006:0069FC38       `typeinfo for'BETPcWin::SceneUpdL2ParamUp
 0006:0069FC44       `typeinfo for'BETPcWin::SceneUpdBtlEndExit
 0006:0069FC50       `typeinfo for'BETPcWin::SceneUpdL3RankBonus
 0006:0069FC5C       `typeinfo for'BETPcWin::UIObjectsPerDisplay
 0006:0069FC68       `typeinfo for'BETPcWin::SceneUpdBtlEndResult
 0006:0069FC74       `typeinfo for'BETPcWin::SceneUpdL3ParamBonus
 0006:0069FC80       `typeinfo for'BETPcWin::SceneUpdL3ParamUpEnd
 0006:0069FC8C       `typeinfo for'BETPcWin::SceneUpdL3RankUpExit
 0006:0069FC98       `typeinfo for'BETPcWin::UISharedObjectsTuple
 0006:0069FCA4       `typeinfo for'BETPcWin::ObjPrimRendererStable
 0006:0069FCB0       `typeinfo for'BETPcWin::ObjectListBObjAdapter
 0006:0069FCBC       `typeinfo for'BETPcWin::SceneUpdL2ReLvUpEnter
 0006:0069FCC8       `typeinfo for'BETPcWin::SceneUpdL3ParamUpView
 0006:0069FCD4       `typeinfo for'BETPcWin::SceneUpdL3RankUpEnter
 0006:0069FCE0       `typeinfo for'BETPcWin::SceneUpdL4ParamViewAdd
 0006:0069FCEC       `typeinfo for'BETPcWin::SceneUpdPcGrowthRepeat
 0006:0069FCF8       `typeinfo for'BETPcWin::SceneUpdL2PcGrowthEnter
 0006:0069FD04       `typeinfo for'BETPcWin::SceneUpdL2TutorialBtlResult
 0006:0069FD10       `typeinfo for'BETPcWin::SceneUpdL4ParamViewCounting
 0006:0069FD1C       `typeinfo for'BETPcWin::SceneUpdL2PcGrowthEndChangePc
 0006:0069FD28       `typeinfo for'BETPcWin::SceneUpdL4ParamViewScreenEnter
 0006:0069FD34       `typeinfo for'BETPcWin::SceneUpdBtlResultEndPrePcGrowth
 0006:0069FD40       `typeinfo for'BETPcWin::ObjCA
 0006:0069FD4C       `typeinfo for'BETPcWin::Scene
 0006:0069FD54       `typeinfo for'BETPcWin::ObjMdl
 0006:0069FD60       `typeinfo for'BtlAtkMD::StateIntro
 0006:0069FD6C       `typeinfo for'BtlAtkMD::StateGoHome
 0006:0069FD78       `typeinfo for'BtlAtkMD::StateDribble
 0006:0069FD98       `typeinfo for'BtlAtkMD::CharStateKick
 0006:0069FDA4       `typeinfo for'BtlAtkMD::BtlMDAnimState
 0006:0069FDB0       `typeinfo for'BtlAtkMD::StatePassShoot
 0006:0069FDD0       `typeinfo for'BtlAtkMD::CharStateYoroke
 0006:0069FDDC       `typeinfo for'BtlAtkMD::CharStateFuttobi
 0006:0069FDE8       `typeinfo for'BtlAtkMD::CharStateShootEx
 0006:0069FDF4       `typeinfo for'BtlAtkMD::CharStateSuccess
 0006:0069FE00       `typeinfo for'BtlAtkMD::CharStateWaiting
 0006:0069FE0C       `typeinfo for'BtlAtkMD::CharStateAccessor
 0006:0069FE18       `typeinfo for'BtlAtkMD::CharStateKickReady
 0006:0069FE24       `typeinfo for'BtlAtkMD::CharStatePartnerNGReaction
 0006:0069FE30       `typeinfo for'REDSPARK::Sd::RSTrackMan
 0006:0069FE38       `typeinfo for'REDSPARK::Sd::RSVoiceMan
 0006:0069FE40       `typeinfo for'REDSPARK::Sd::RSSound
 0006:0069FE48       `typeinfo for'REDSPARK::Sd::RSMemory
 0006:0069FE50       `typeinfo for'REDSPARK::Sd::RSDataMan
 0006:0069FE58       `typeinfo for'BtlMdlAlc::NwAlc
 0006:0069FE64       `typeinfo for'hoBtlUtil::hoBtlTimer<float>::Impl
 0006:0069FE70       `typeinfo for'hoBtlUtil::BtlMeterObj
 0006:0069FE7C       `typeinfo for'hoBtlUtil::BtlSlotTimer
 0006:0069FE84       `typeinfo for'hoBtlUtil::hoGyroStatus
 0006:0069FE8C       `typeinfo for'hoBtlUtil::BtlOtehonUIObj
 0006:0069FE98       `typeinfo for'hoBtlUtil::BtlPriorityObj
 0006:0069FEA4       `typeinfo for'hoBtlUtil::BtlLifeCountObj
 0006:0069FEB0       `typeinfo for'hoBtlUtil::BtlObjMesSimple
 0006:0069FEBC       `typeinfo for'hoBtlUtil::BtlSlotTimerObj
 0006:0069FEC8       `typeinfo for'hoBtlUtil::hoBtlSlotDigits
 0006:0069FED0       `typeinfo for'hoBtlUtil::BtlScoreCountObj::UpdaterScorePopup
 0006:0069FED8       `typeinfo for'hoBtlUtil::BtlScoreCountObj
 0006:0069FEE4       `typeinfo for'hoBtlUtil::BtlSlotDigitsObj
 0006:0069FEF0       `typeinfo for'hoBtlUtil::hoBtlObjHijacker
 0006:0069FEFC       `typeinfo for'hoBtlUtil::hoBtlTaskWeakPtr::BtlTaskCallback
 0006:0069FF08       `typeinfo for'hoBtlUtil::hoLazyKillUpdater
 0006:0069FF14       `typeinfo for'hoBtlUtil::BtlStereoSwitchObj
 0006:0069FF20       `typeinfo for'hoBtlUtil::hoBtlObjUIGuideBtn
 0006:0069FF2C       `typeinfo for'hoBtlUtil::BtlMinigameDispLObj
 0006:0069FF38       `typeinfo for'hoBtlUtil::BtlMinigameStartObj
 0006:0069FF44       `typeinfo for'hoBtlUtil::hoParallelUpdaterFS<Adsl::LinkedPtr<hoBtlUtil::hoUpdater,Adsl::PtrDeleteFunctor<hoBtlUtil::hoUpdater>>,16u>
 0006:0069FF50       `typeinfo for'hoBtlUtil::hoParallelUpdaterFS<Adsl::LinkedPtr<hoBtlUtil::hoUpdater,Adsl::PtrDeleteFunctor<hoBtlUtil::hoUpdater>>,4u>
 0006:0069FF5C       `typeinfo for'hoBtlUtil::hoParallelUpdaterFS<hoBtlUtil::BtlScoreCountObj::UpdaterScorePopup *,32u>
 0006:0069FF68       `typeinfo for'hoBtlUtil::hoParallelUpdaterFS<hoBtlUtil::BtlSlotTimerObjForMinigame::UpdaterTimerPopup *,32u>
 0006:0069FF74       `typeinfo for'hoBtlUtil::hoParallelUpdaterFS<hoBtlUtil::UpdaterAtkCommon_PcSoloMove *,2u>
 0006:0069FF80       `typeinfo for'hoBtlUtil::hoParallelUpdaterFS<hoBtlUtil::hoUpdater *,16u>
 0006:0069FF8C       `typeinfo for'hoBtlUtil::hoParallelUpdaterFS<hoBtlUtil::hoUpdater *,2u>
 0006:0069FF98       `typeinfo for'hoBtlUtil::hoSequenceUpdaterFS<Adsl::LinkedPtr<hoBtlUtil::hoUpdater,Adsl::PtrDeleteFunctor<hoBtlUtil::hoUpdater>>,16u>
 0006:0069FFA4       `typeinfo for'hoBtlUtil::hoSequenceUpdaterFS<Adsl::LinkedPtr<hoBtlUtil::hoUpdater,Adsl::PtrDeleteFunctor<hoBtlUtil::hoUpdater>>,4u>
 0006:0069FFB0       `typeinfo for'hoBtlUtil::hoSequenceUpdaterFS<Adsl::LinkedPtr<hoBtlUtil::hoUpdater,Adsl::PtrDeleteFunctor<hoBtlUtil::hoUpdater>>,8u>
 0006:0069FFBC       `typeinfo for'hoBtlUtil::hoSequenceUpdaterFS<Btl_AtkRocketBoard::BAPcTeam::UpdaterAtkMainSub *,4u>
 0006:0069FFC8       `typeinfo for'hoBtlUtil::hoSequenceUpdaterFS<hoBtlUtil::hoUpdater *,16u>
 0006:0069FFD4       `typeinfo for'hoBtlUtil::BtlMinigameFinishObj
 0006:0069FFE0       `typeinfo for'hoBtlUtil::hoBtlObjTutorialUIBtnA
 0006:0069FFEC       `typeinfo for'hoBtlUtil::hoBtlObjTutorialUIBtnB
 0006:0069FFF8       `typeinfo for'hoBtlUtil::hoBtlObjTutorialUISPad
 0006:006A0004       `typeinfo for'hoBtlUtil::hoBtlRefCntSlowAtkMode::BtlObjSlowFx
 0006:006A0010       `typeinfo for'hoBtlUtil::hoBtlRefCntSlowAtkMode
 0006:006A001C       `typeinfo for'hoBtlUtil::hoShapeRendererAdapter::Impl
 0006:006A0028       `typeinfo for'hoBtlUtil::UpdaterAtkCommon_CamMove
 0006:006A0034       `typeinfo for'hoBtlUtil::UpdaterAtkCommon_WaitTime
 0006:006A0040       `typeinfo for'hoBtlUtil::hoBtlObjTutorialUIBtnBase
 0006:006A004C       `typeinfo for'hoBtlUtil::BtlSlotTimerObjForMinigame::UpdaterTimerPopup
 0006:006A0054       `typeinfo for'hoBtlUtil::BtlSlotTimerObjForMinigame
 0006:006A0060       `typeinfo for'hoBtlUtil::UpdaterAtkCommon_PcCamMove
 0006:006A006C       `typeinfo for'hoBtlUtil::UpdaterAtkCommon_PcPairMove
 0006:006A0078       `typeinfo for'hoBtlUtil::UpdaterAtkCommon_PcSoloMove
 0006:006A0084       `typeinfo for'hoBtlUtil::UpdaterAtkCommon_ScreenFade
 0006:006A0090       `typeinfo for'hoBtlUtil::UpdaterAtkCommon_ObjPosSetter<8u>
 0006:006A009C       `typeinfo for'hoBtlUtil::UpdaterAtkCommon_PcAppearItem
 0006:006A00A8       `typeinfo for'hoBtlUtil::UpdaterAtkCommon_MiniGameStart
 0006:006A00B4       `typeinfo for'hoBtlUtil::UpdaterAtkCommon_WaitTrgBootBtn
 0006:006A00C0       `typeinfo for'hoBtlUtil::UpdaterAtkCommon_PcCamMoveAtkEnd
 0006:006A00CC       `typeinfo for'hoBtlUtil::UpdaterAtkCommon_MiniGameTimerPopup
 0006:006A00D8       `typeinfo for'hoBtlUtil::hoUpdater
 0006:006A00E0       `typeinfo for'std::locale::facet
 0006:006A00EC       `typeinfo for'std::ctype_base
 0006:006A00F4       `typeinfo for'std::codecvt_base
 0006:006A00FC       `typeinfo for'std::ctype_byname<char>
 0006:006A0108       `typeinfo for'std::messages_base
 0006:006A0110       `typeinfo for'std::__rw_exception
 0006:006A011C       `typeinfo for'std::codecvt_byname<wchar_t,char,std::__mbstate_t>
 0006:006A0128       `typeinfo for'std::collate_byname<char>
 0006:006A0134       `typeinfo for'std::__rw_messages_base
 0006:006A0140       `typeinfo for'std::ctype<char>
 0006:006A0168       `typeinfo for'std::codecvt<wchar_t,char,std::__mbstate_t>
 0006:006A0188       `typeinfo for'std::collate<char>
 0006:006A01A8       `typeinfo for'std::messages<char>
 0006:006A01C8       `typeinfo for'std::numpunct<char>
 0006:006A01E8       `typeinfo for'std::exception
 0006:006A01F0       `typeinfo for'std::type_info
 0006:006A01F8       `typeinfo name for'BigRockAct
 0006:006A0205       `typeinfo name for'BigWoodAct
 0006:006A0212       `typeinfo name for'BtlDfxUnit
 0006:006A021F       `typeinfo name for'BtlObjBase
 0006:006A022C       `typeinfo name for'BtlObjBlur
 0006:006A0239       `typeinfo name for'BtlObjMove
 0006:006A0246       `typeinfo name for'BtlPcAtkEH
 0006:006A0253       `typeinfo name for'BtlPcAtkEJ
 0006:006A0260       `typeinfo name for'BtlPcAtkSH
 0006:006A026D       `typeinfo name for'BtlPcAtkSJ
 0006:006A027A       `typeinfo name for'BtlSndTask
 0006:006A0287       `typeinfo name for'BtlVramAlc
 0006:006A0294       `typeinfo name for'CtrArcFile
 0006:006A02A1       `typeinfo name for'CtrFReadEx
 0006:006A02AE       `typeinfo name for'CtrFileTmp<BinGlu3AcsIdxHdr>
 0006:006A02CF       `typeinfo name for'DLuigiHige
 0006:006A02DC       `typeinfo name for'DfxPrimMan
 0006:006A02E9       `typeinfo name for'DreamBlock
 0006:006A02F6       `typeinfo name for'DreamEvent
 0006:006A0303       `typeinfo name for'DreamLuigi
 0006:006A0310       `typeinfo name for'DreamMainL
 0006:006A031D       `typeinfo name for'DreamMainU
 0006:006A032A       `typeinfo name for'DreamMario
 0006:006A0337       `typeinfo name for'FieldBlock
 0006:006A0344       `typeinfo name for'FieldBoard
 0006:006A0351       `typeinfo name for'FieldChrCA
 0006:006A035E       `typeinfo name for'FieldEnemy
 0006:006A036B       `typeinfo name for'FieldEvent
 0006:006A0378       `typeinfo name for'FieldLuigi
 0006:006A0385       `typeinfo name for'FieldMainL
 0006:006A0392       `typeinfo name for'FieldMainU
 0006:006A039F       `typeinfo name for'FieldMario
 0006:006A03AC       `typeinfo name for'FieldObjCA
 0006:006A03B9       `typeinfo name for'FieldPCSub
 0006:006A03C6       `typeinfo name for'FieldTimer
 0006:006A03D3       `typeinfo name for'GimmickIce
 0006:006A03E0       `typeinfo name for'GimmickMan
 0006:006A03ED       `typeinfo name for'HigeTopChr
 0006:006A03FA       `typeinfo name for'LocalEvent
 0006:006A0407       `typeinfo name for'MABallCtrl
 0006:006A0414       `typeinfo name for'MAConeCtrl
 0006:006A0421       `typeinfo name for'MBObjMario
 0006:006A042E       `typeinfo name for'MBResource
 0006:006A043B       `typeinfo name for'MemAlcBase
 0006:006A0448       `typeinfo name for'MemAlcUnit
 0006:006A0455       `typeinfo name for'MiracleChr
 0006:006A0462       `typeinfo name for'RealCAInfo
 0006:006A046F       `typeinfo name for'RealPlayer
 0006:006A047C       `typeinfo name for'RealSystem
 0006:006A0489       `typeinfo name for'ScriptUnit
 0006:006A0496       `typeinfo name for'StateIntro
 0006:006A04A3       `typeinfo name for'SubGimmick
 0006:006A04B0       `typeinfo name for'yaMarioBox
 0006:006A04BD       `typeinfo name for'BtlAtkMJCam
 0006:006A04CB       `typeinfo name for'BtlDropCoin
 0006:006A04D9       `typeinfo name for'BtlListBase
 0006:006A04E7       `typeinfo name for'BtlListTmpl<BtlObjBase>
 0006:006A0503       `typeinfo name for'BtlListTmpl<BtlSndTask>
 0006:006A051F       `typeinfo name for'BtlListTmpl<BtlDropCoin>
 0006:006A053C       `typeinfo name for'BtlListTmpl<BtlTaskBase>
 0006:006A0559       `typeinfo name for'BtlListTmpl<BtlObjDtBase>
 0006:006A0577       `typeinfo name for'BtlListTmpl<BtlDfxWorkPos>
 0006:006A0596       `typeinfo name for'BtlListTmpl<BtlAct>
 0006:006A05AD       `typeinfo name for'BtlListTmpl<BtlHit>
 0006:006A05C4       `typeinfo name for'BtlListTmpl<BtlDfxCA>
 0006:006A05DD       `typeinfo name for'BtlListTmpl<BtlDfxMdl>
 0006:006A05F7       `typeinfo name for'BtlListTmpl<Badge::ObjBase>
 0006:006A0617       `typeinfo name for'BtlListTmpl<Badge::DfxHandle>
 0006:006A0639       `typeinfo name for'BtlListTmpl<BtlMon::SpEffActTimeStop>
 0006:006A0664       `typeinfo name for'BtlMainFunc
 0006:006A0672       `typeinfo name for'BtlObjHpPnl
 0006:006A0680       `typeinfo name for'BtlPcCmdBlk
 0006:006A068E       `typeinfo name for'BtlTaskBase
 0006:006A069C       `typeinfo name for'BtlTaskList
 0006:006A06AA       `typeinfo name for'CtrFileBase
 0006:006A06B8       `typeinfo name for'CtrSaveFile
 0006:006A06C6       `typeinfo name for'CtrSaveRead
 0006:006A06D4       `typeinfo name for'DreamCAInfo
 0006:006A06E2       `typeinfo name for'DreamPlayer
 0006:006A06F0       `typeinfo name for'DreamSystem
 0006:006A06FE       `typeinfo name for'FieldCAInfo
 0006:006A070C       `typeinfo name for'FieldCAList
 0006:006A071A       `typeinfo name for'FieldCamera
 0006:006A0728       `typeinfo name for'FieldChrMdl
 0006:006A0736       `typeinfo name for'FieldColChr
 0006:006A0744       `typeinfo name for'FieldMapMdl
 0006:006A0752       `typeinfo name for'FieldModule
 0006:006A0760       `typeinfo name for'FieldNumber
 0006:006A076E       `typeinfo name for'FieldObjMdl
 0006:006A077C       `typeinfo name for'FieldPlayer
 0006:006A078A       `typeinfo name for'FieldSystem
 0006:006A0798       `typeinfo name for'GimmickTask
 0006:006A07A6       `typeinfo name for'GlobalEvent
 0006:006A07B4       `typeinfo name for'HookShotAct
 0006:006A07C2       `typeinfo name for'IDfxPrimMan
 0006:006A07D0       `typeinfo name for'MainGimmick
 0006:006A07DE       `typeinfo name for'RenderQueue
 0006:006A07EC       `typeinfo name for'RotBoardAct
 0006:006A07FA       `typeinfo name for'TaskListMan
 0006:006A0808       `typeinfo name for'TorBlockAct
 0006:006A0816       `typeinfo name for'VramAlcBase
 0006:006A0824       `typeinfo name for'BomHitBroken
 0006:006A0833       `typeinfo name for'BtlAISysBase
 0006:006A0842       `typeinfo name for'BtlDfxHandle
 0006:006A0851       `typeinfo name for'BtlMainProxy
 0006:006A0860       `typeinfo name for'BtlObjCancel
 0006:006A086F       `typeinfo name for'BtlObjCursor
 0006:006A087E       `typeinfo name for'BtlObjDmgNum
 0006:006A088D       `typeinfo name for'BtlObjDtBase
 0006:006A089C       `typeinfo name for'BtlObjString
 0006:006A08AB       `typeinfo name for'BtlPcDefJump
 0006:006A08BA       `typeinfo name for'BtlPcDmgDown
 0006:006A08C9       `typeinfo name for'BtlPcDmgSlip
 0006:006A08D8       `typeinfo name for'BtlPcDmgToge
 0006:006A08E7       `typeinfo name for'BtlPcUseItem
 0006:006A08F6       `typeinfo name for'ChaseGimmick
 0006:006A0905       `typeinfo name for'CrashRockMan
 0006:006A0914       `typeinfo name for'CtrFReadBase
 0006:006A0923       `typeinfo name for'CtrNullNwAlc
 0006:006A0932       `typeinfo name for'CtrSaveWrite
 0006:006A0941       `typeinfo name for'DLuigiRotBed
 0006:006A0950       `typeinfo name for'DLuigiSwitch
 0006:006A095F       `typeinfo name for'FieldBoardCA
 0006:006A096E       `typeinfo name for'FieldChrBase
 0006:006A097D       `typeinfo name for'FieldChrPrim
 0006:006A098C       `typeinfo name for'FieldDfxUnit
 0006:006A099B       `typeinfo name for'FieldEnemyCA
 0006:006A09AA       `typeinfo name for'FieldGetItem
 0006:006A09B9       `typeinfo name for'FieldObjBase
 0006:006A09C8       `typeinfo name for'FieldShimmer
 0006:006A09D7       `typeinfo name for'FieldSrtBase
 0006:006A09E6       `typeinfo name for'GimmickEmpty
 0006:006A09F5       `typeinfo name for'HangFloorAct
 0006:006A0A04       `typeinfo name for'MAJumbleCtrl
 0006:006A0A13       `typeinfo name for'MAPillarCtrl
 0006:006A0A22       `typeinfo name for'MBObjBallMan
 0006:006A0A31       `typeinfo name for'MiracleObjCA
 0006:006A0A40       `typeinfo name for'RealGuideMap
 0006:006A0A4F       `typeinfo name for'ScriptSystem
 0006:006A0A5E       `typeinfo name for'SmallRockAct
 0006:006A0A6D       `typeinfo name for'SmallWoodAct
 0006:006A0A7C       `typeinfo name for'SplMoveObjCA
 0006:006A0A8B       `typeinfo name for'TaskMainBase
 0006:006A0A9A       `typeinfo name for'UIListWindow
 0006:006A0AA9       `typeinfo name for'VramAlcRange
 0006:006A0AB8       `typeinfo name for'clRfxSysBase
 0006:006A0AC7       `typeinfo name for'BtlAtkMJLuigi
 0006:006A0AD7       `typeinfo name for'BtlAtkMJMario
 0006:006A0AE7       `typeinfo name for'BtlChrCmdBase
 0006:006A0AF7       `typeinfo name for'BtlChrDmgBase
 0006:006A0B07       `typeinfo name for'BtlDfxWorkPos
 0006:006A0B17       `typeinfo name for'BtlLockMemAlc
 0006:006A0B27       `typeinfo name for'BtlObjBlkName
 0006:006A0B37       `typeinfo name for'BtlObjCoinPnl
 0006:006A0B47       `typeinfo name for'BtlObjDefIcon
 0006:006A0B57       `typeinfo name for'BtlObjEstStar
 0006:006A0B67       `typeinfo name for'BtlObjListWnd
 0006:006A0B77       `typeinfo name for'BtlObjTrgName
 0006:006A0B87       `typeinfo name for'CtrLoadModule
 0006:006A0B97       `typeinfo name for'CtrModuleFile
 0006:006A0BA7       `typeinfo name for'CtrSaveFormat
 0006:006A0BB7       `typeinfo name for'DLuigiNoseRot
 0006:006A0BC7       `typeinfo name for'DLuigiNoseSnz
 0006:006A0BD7       `typeinfo name for'DreamGuideMap
 0006:006A0BE7       `typeinfo name for'DreamMarioSub
 0006:006A0BF7       `typeinfo name for'FieldBoardMdl
 0006:006A0C07       `typeinfo name for'FieldGuideMap
 0006:006A0C17       `typeinfo name for'FieldMainBase
 0006:006A0C27       `typeinfo name for'FieldSystemCA
 0006:006A0C37       `typeinfo name for'FieldTaskList
 0006:006A0C47       `typeinfo name for'GimmickRotMap
 0006:006A0C57       `typeinfo name for'GimmickSneeze
 0006:006A0C67       `typeinfo name for'MessageSimple
 0006:006A0C77       `typeinfo name for'MessageWriter
 0006:006A0C87       `typeinfo name for'TiltSwitchAct
 0006:006A0C97       `typeinfo name for'WaterFloorAct
 0006:006A0CA7       `typeinfo name for'BtlExtListTmpl<BtlDfxUnit>
 0006:006A0CC6       `typeinfo name for'BtlExtListTmpl<BtlObjBlur>
 0006:006A0CE5       `typeinfo name for'BtlExtListTmpl<BtlSndTask>
 0006:006A0D04       `typeinfo name for'BtlExtListTmpl<BtlObjDmgNum>
 0006:006A0D25       `typeinfo name for'BtlExtListTmpl<BtlObjEstStar>
 0006:006A0D47       `typeinfo name for'BtlExtListTmpl<BtlObjIronBall>
 0006:006A0D6A       `typeinfo name for'BtlExtListTmpl<BtlObjEffIndicate>
 0006:006A0D90       `typeinfo name for'BtlExtListTmpl<BtlObjDropItemBase>
 0006:006A0DB7       `typeinfo name for'BtlExtListTmpl<BtlAI>
 0006:006A0DD0       `typeinfo name for'BtlExtListTmpl<BtlPc>
 0006:006A0DE9       `typeinfo name for'BtlExtListTmpl<BtlMon>
 0006:006A0E03       `typeinfo name for'BtlExtListTmpl<BtlObj>
 0006:006A0E1D       `typeinfo name for'BtlExtListTmpl<`anonymous namespace'::BtlObjMasAnis>
 0006:006A0E74       `typeinfo name for'BtlExtListTmpl<`anonymous namespace'::BtlObjMasAnisAnies>
 0006:006A0ED0       `typeinfo name for'BtlExtListTmpl<`anonymous namespace'::BtlObjMasAnisShockwave>
 0006:006A0F30       `typeinfo name for'BtlExtListTmpl<`anonymous namespace'::BtlObjTunogon>
 0006:006A0F87       `typeinfo name for'BtlExtListTmpl<`anonymous namespace'::BtlObjTunogonCoin>
 0006:006A0FE2       `typeinfo name for'BtlExtListTmpl<`anonymous namespace'::BtlObjTunogonMakibisi>
 0006:006A1041       `typeinfo name for'BtlObjAlertMsg
 0006:006A1052       `typeinfo name for'BtlObjBadgeEff
 0006:006A1063       `typeinfo name for'BtlObjBaseBase
 0006:006A1074       `typeinfo name for'BtlObjDropItem
 0006:006A1085       `typeinfo name for'BtlObjDropMame
 0006:006A1096       `typeinfo name for'BtlObjEstimate
 0006:006A10A7       `typeinfo name for'BtlObjGameOver
 0006:006A10B8       `typeinfo name for'BtlObjIronBall
 0006:006A10C9       `typeinfo name for'BtlObjRetryMsg
 0006:006A10DA       `typeinfo name for'BtlObjTurnSkip
 0006:006A10EB       `typeinfo name for'BtlPcDefHammer
 0006:006A10FC       `typeinfo name for'BtlPcDmgYakedo
 0006:006A110D       `typeinfo name for'CrashObjectAct
 0006:006A111E       `typeinfo name for'CtrFReadSimple
 0006:006A112F       `typeinfo name for'CtrFUncompSize
 0006:006A1140       `typeinfo name for'DLuigiPartTask
 0006:006A1151       `typeinfo name for'DreamMLMiracle
 0006:006A1162       `typeinfo name for'FieldBlockItem
 0006:006A1173       `typeinfo name for'FieldCAChrBase
 0006:006A1184       `typeinfo name for'FieldChrPrimCA
 0006:006A1195       `typeinfo name for'GimmickGravity
 0006:006A11A6       `typeinfo name for'IDfxSeCallBack
 0006:006A11B7       `typeinfo name for'IMiracleChrAct
 0006:006A11C8       `typeinfo name for'MemAlcLockTmpl<MemAlcH>
 0006:006A11E3       `typeinfo name for'MiracleGimmick
 0006:006A11F4       `typeinfo name for'NdlTorBlockAct
 0006:006A1205       `typeinfo name for'RotHookShotAct
 0006:006A1216       `typeinfo name for'AfterImageObjCA
 0006:006A1228       `typeinfo name for'BtlObjHpPnlDraw
 0006:006A123A       `typeinfo name for'BtlObjRetryFade
 0006:006A124C       `typeinfo name for'BtlObjScreenInk
 0006:006A125E       `typeinfo name for'BtlPcCmdCarryOn
 0006:006A1270       `typeinfo name for'BtlPcDmgDefault
 0006:006A1282       `typeinfo name for'BtlSpEffActBase
 0006:006A1294       `typeinfo name for'CtrLoadModuleEx
 0006:006A12A6       `typeinfo name for'CtrUnloadModule
 0006:006A12B8       `typeinfo name for'FieldActionIcon
 0006:006A12CA       `typeinfo name for'FieldMdlChrBase
 0006:006A12DC       `typeinfo name for'GfxRenderTarget
 0006:006A12EE       `typeinfo name for'GimmickCylinder
 0006:006A1300       `typeinfo name for'GimmickHigeBase
 0006:006A1312       `typeinfo name for'GimmickHigeTree
 0006:006A1324       `typeinfo name for'InCoinObjectAct
 0006:006A1336       `typeinfo name for'MsgDataAcsrBase
 0006:006A1348       `typeinfo name for'RenderDrawSysCA
 0006:006A135A       `typeinfo name for'RenderQueueBase
 0006:006A136C       `typeinfo name for'UIScrollMessage
 0006:006A137E       `typeinfo name for'yaLuigiBoxLocal
 0006:006A1390       `typeinfo name for'BombStrikeMngAct
 0006:006A13A3       `typeinfo name for'BtlObjTurnRemain
 0006:006A13B6       `typeinfo name for'BtlPcAtkIronBall
 0006:006A13C9       `typeinfo name for'BtlPcAtkSH_Luigi
 0006:006A13DC       `typeinfo name for'BtlPcAtkSJ_Luigi
 0006:006A13EF       `typeinfo name for'BtlTaskRetryMenu
 0006:006A1402       `typeinfo name for'FieldGlobalEvent
 0006:006A1415       `typeinfo name for'FieldTaskListMan
 0006:006A1428       `typeinfo name for'GimmickHaneBlock
 0006:006A143B       `typeinfo name for'GimmickPropeller
 0006:006A144E       `typeinfo name for'RealRingKuguriUI
 0006:006A1461       `typeinfo name for'RenderDrawSysDFX
 0006:006A1474       `typeinfo name for'RenderDrawSysGfx
 0006:006A1487       `typeinfo name for'RenderDrawSysMsg
 0006:006A149A       `typeinfo name for'UIListWindowPlus
 0006:006A14AD       `typeinfo name for'BtlMapDfxWrapBase
 0006:006A14C1       `typeinfo name for'BtlMonAtkBTuraAtk
 0006:006A14D5       `typeinfo name for'BtlMonDmgAvoidHam
 0006:006A14E9       `typeinfo name for'BtlMoveAttachBase
 0006:006A14FD       `typeinfo name for'BtlObjDtSimpleArc
 0006:006A1511       `typeinfo name for'BtlObjEffIndicate
 0006:006A1525       `typeinfo name for'BtlObjLuckyChance
 0006:006A1539       `typeinfo name for'BtlObjLuigiBoxMan
 0006:006A154D       `typeinfo name for'BtlPcAtkEntrySlip
 0006:006A1561       `typeinfo name for'BtlTaskPcCarryOff
 0006:006A1575       `typeinfo name for'DreamMarioMiracle
 0006:006A1589       `typeinfo name for'FieldCameraStereo
 0006:006A159D       `typeinfo name for'GimmickTimeChange
 0006:006A15B1       `typeinfo name for'RealBallRingEvent
 0006:006A15C5       `typeinfo name for'RenderDrawSysBase
 0006:006A15D9       `typeinfo name for'RenderDrawSysPrim
 0006:006A15ED       `typeinfo name for'BtlBrosAtkFlCopter
 0006:006A1602       `typeinfo name for'BtlExtListCoreTmpl<BtlDfxUnit,392u>
 0006:006A162B       `typeinfo name for'BtlExtListCoreTmpl<BtlObjBase,20u>
 0006:006A1653       `typeinfo name for'BtlExtListCoreTmpl<BtlObjBlur,316u>
 0006:006A167C       `typeinfo name for'BtlExtListCoreTmpl<BtlSndTask,84u>
 0006:006A16A4       `typeinfo name for'BtlExtListCoreTmpl<BtlObjDmgNum,256u>
 0006:006A16CF       `typeinfo name for'BtlExtListCoreTmpl<BtlObjEstStar,256u>
 0006:006A16FB       `typeinfo name for'BtlExtListCoreTmpl<BtlObjIronBall,1012u>
 0006:006A1729       `typeinfo name for'BtlExtListCoreTmpl<BtlObjEffIndicate,452u>
 0006:006A1759       `typeinfo name for'BtlExtListCoreTmpl<BtlObjDropItemBase,256u>
 0006:006A178A       `typeinfo name for'BtlExtListCoreTmpl<BtlAI,116u>
 0006:006A17AD       `typeinfo name for'BtlExtListCoreTmpl<BtlPc,428u>
 0006:006A17D0       `typeinfo name for'BtlExtListCoreTmpl<BtlMon,428u>
 0006:006A17F4       `typeinfo name for'BtlExtListCoreTmpl<BtlObj,1012u>
 0006:006A1819       `typeinfo name for'BtlExtListCoreTmpl<`anonymous namespace'::BtlObjMasAnis,1020u>
 0006:006A187B       `typeinfo name for'BtlExtListCoreTmpl<`anonymous namespace'::BtlObjMasAnisAnies,1076u>
 0006:006A18E2       `typeinfo name for'BtlExtListCoreTmpl<`anonymous namespace'::BtlObjMasAnisShockwave,1048u>
 0006:006A194D       `typeinfo name for'BtlExtListCoreTmpl<`anonymous namespace'::BtlObjTunogon,1016u>
 0006:006A19AF       `typeinfo name for'BtlExtListCoreTmpl<`anonymous namespace'::BtlObjTunogonCoin,1036u>
 0006:006A1A15       `typeinfo name for'BtlExtListCoreTmpl<`anonymous namespace'::BtlObjTunogonMakibisi,1036u>
 0006:006A1A7F       `typeinfo name for'BtlExtListCoreTmpl<Badge::ObjBase,72u>
 0006:006A1AAB       `typeinfo name for'BtlObjDropItemBase
 0006:006A1AC0       `typeinfo name for'BtlTaskEndCallback
 0006:006A1AD5       `typeinfo name for'GimmickExchangeMap
 0006:006A1AEA       `typeinfo name for'GimmickZeroGravity
 0006:006A1AFF       `typeinfo name for'RealMuyuPanelEvent
 0006:006A1B14       `typeinfo name for'RealPropellerEvent
 0006:006A1B29       `typeinfo name for'RenderDrawSysDummy
 0006:006A1B3E       `typeinfo name for'BtlObjAbnNameCmdBlk
 0006:006A1B54       `typeinfo name for'BtlObjChargeCounter
 0006:006A1B6A       `typeinfo name for'BtlPcAtkMidoriKoura
 0006:006A1B80       `typeinfo name for'BtlPcAtkMiracleBall
 0006:006A1B96       `typeinfo name for'BtlPcAtkMiracleJump
 0006:006A1BAC       `typeinfo name for'BtlPcAtkSH_PcDfxObj
 0006:006A1BC2       `typeinfo name for'BtlPcAtkSJ_PcDfxObj
 0006:006A1BD8       `typeinfo name for'FieldGuideMapButton
 0006:006A1BEE       `typeinfo name for'RealEventProgramAct
 0006:006A1C04       `typeinfo name for'RealRingKuguriEvent
 0006:006A1C1A       `typeinfo name for'RealShiohigariEvent
 0006:006A1C30       `typeinfo name for'yaLuigiBoxLocal_TOP
 0006:006A1C46       `typeinfo name for'BtlAtkMJCamState_End
 0006:006A1C5D       `typeinfo name for'BtlDfxUnitSeCallback
 0006:006A1C74       `typeinfo name for'BtlMonAtkMasAnisAtk3
 0006:006A1C8B       `typeinfo name for'BtlMonAtkTunogonAtk1
 0006:006A1CA2       `typeinfo name for'BtlObjDropItemMsgWnd
 0006:006A1CB9       `typeinfo name for'MsgDataAcsrTmplFixed<(uchar)4>
 0006:006A1CD6       `typeinfo name for'RealEventProgramTask
 0006:006A1CED       `typeinfo name for'RealMoguriPanelEvent
 0006:006A1D04       `typeinfo name for'RealNobiruDokanEvent
 0006:006A1D1B       `typeinfo name for'BtlAtkMJBoxState_Jump
 0006:006A1D33       `typeinfo name for'BtlAtkMJBoxState_Main
 0006:006A1D4B       `typeinfo name for'BtlAtkMJCamState_Main
 0006:006A1D63       `typeinfo name for'BtlMoveAttachSpline3d
 0006:006A1D7B       `typeinfo name for'MBPlayBuildWallEffect
 0006:006A1D93       `typeinfo name for'BtlAtkMJBoxState_Intro
 0006:006A1DAC       `typeinfo name for'BtlAtkMJCamState_Intro
 0006:006A1DC5       `typeinfo name for'BtlPcAtkMiracleTornado
 0006:006A1DDE       `typeinfo name for'BtlTaskMonDmgStompBase
 0006:006A1DF7       `typeinfo name for'FieldDfxUnitSeCallback
 0006:006A1E10       `typeinfo name for'RealKuruKuruDokanEvent
 0006:006A1E29       `typeinfo name for'BtlAtkMJBoxState_Attach
 0006:006A1E43       `typeinfo name for'BtlAtkMJBoxState_Detach
 0006:006A1E5D       `typeinfo name for'BtlAtkMJCamState_GoHome
 0006:006A1E77       `typeinfo name for'BtlAtkMJLuigiState_Init
 0006:006A1E91       `typeinfo name for'BtlAtkMJLuigiState_Jump
 0006:006A1EAB       `typeinfo name for'FieldSaveExDataAcsrBase
 0006:006A1EC5       `typeinfo name for'FieldSaveExDataAcsrRead
 0006:006A1EDF       `typeinfo name for'BtlDmgPcAbnRecoverYakedo
 0006:006A1EFA       `typeinfo name for'FieldSaveExDataAcsrWrite
 0006:006A1F15       `typeinfo name for'RealCharinkoGondolaEvent
 0006:006A1F30       `typeinfo name for'BtlAtkMJLuigiState_Attach
 0006:006A1F4C       `typeinfo name for'BtlAtkMJMarioState_Attach
 0006:006A1F68       `typeinfo name for'BtlAtkMJMarioState_Detach
 0006:006A1F84       `typeinfo name for'BtlAtkMJBoxState_FinalJump
 0006:006A1FA1       `typeinfo name for'BtlAtkMJBoxState_SmallJump
 0006:006A1FBE       `typeinfo name for'BtlAtkMJCamState_FinalStomp
 0006:006A1FDC       `typeinfo name for'BtlAtkMJLuigiState_FinalJump
 0006:006A1FFB       `typeinfo name for'BtlAtkMJLuigiState_SmallJump
 0006:006A201A       `typeinfo name for'BtlAtkMJMarioState_FinalJump
 0006:006A2039       `typeinfo name for'BtlAtkMJMarioState_SmallJump
 0006:006A2058       `typeinfo name for'BtlAtkMJMarioState_StompToge
 0006:006A2077       `typeinfo name for'BtlAtkMJCamState_FinalStompNG
 0006:006A2097       `typeinfo name for'BtlAtkMJCamState_FinalStompOK
 0006:006A20B7       `typeinfo name for'BtlAtkMJLuigiState_BaraAttack
 0006:006A20D7       `typeinfo name for'BtlAtkMJMarioState_BaraAttack
 0006:006A20F7       `typeinfo name for'FieldCompulsiveMessageColorAnm
 0006:006A2118       `typeinfo name for'BtlAtkMJMarioState_FinalJump_NG
 0006:006A213A       `typeinfo name for'BtlAtkMJMarioState_FinalJump_OK
 0006:006A215C       `typeinfo name for'BtlAtkMJBoxState_FinalJumpFailed
 0006:006A217F       `typeinfo name for'BtlAtkMJBoxState_FinalJumpSuccess
 0006:006A21A3       `typeinfo name for'BtlAtkMJLuigiState_FinalLandOnDestroy
 0006:006A21CB       `typeinfo name for'BtlAtkMJMarioState_FinalLandOnDestroy
 0006:006A21F3       `typeinfo name for'Dfx
 0006:006A21F8       `typeinfo name for'Job
 0006:006A21FD       `typeinfo name for'Boot
 0006:006A2203       `typeinfo name for'Task
 0006:006A2209       `typeinfo name for'BtlAI
 0006:006A2210       `typeinfo name for'BtlPc
 0006:006A2217       `typeinfo name for'CtrFS
 0006:006A221E       `typeinfo name for'MoveF<1u>
 0006:006A222B       `typeinfo name for'MoveV<1u>
 0006:006A2238       `typeinfo name for'MoveV<2u>
 0006:006A2245       `typeinfo name for'MoveV<3u>
 0006:006A2252       `typeinfo name for'clRfx
 0006:006A2259       `typeinfo name for'BtlAct
 0006:006A2261       `typeinfo name for'BtlChr
 0006:006A2269       `typeinfo name for'BtlHit
 0006:006A2271       `typeinfo name for'BtlMon
 0006:006A2279       `typeinfo name for'BtlObj
 0006:006A2281       `typeinfo name for'DLuigi
 0006:006A2289       `typeinfo name for'DfxSys
 0006:006A2291       `typeinfo name for'JobMan
 0006:006A2299       `typeinfo name for'MemAlc
 0006:006A22A1       `typeinfo name for'NutAct
 0006:006A22A9       `typeinfo name for'RealFS
 0006:006A22B1       `typeinfo name for'RealML
 0006:006A22B9       `typeinfo name for'BtlAIDt
 0006:006A22C2       `typeinfo name for'BtlLink
 0006:006A22CB       `typeinfo name for'BtlMain
 0006:006A22D4       `typeinfo name for'BtlNode
 0006:006A22DD       `typeinfo name for'CtrFEnd
 0006:006A22E6       `typeinfo name for'CtrFSEx
 0006:006A22EF       `typeinfo name for'DfxUnit
 0006:006A22F8       `typeinfo name for'DreamFS
 0006:006A2301       `typeinfo name for'DreamML
 0006:006A230A       `typeinfo name for'FieldCA
 0006:006A2313       `typeinfo name for'FieldFS
 0006:006A231C       `typeinfo name for'FieldML
 0006:006A2325       `typeinfo name for'FieldPC
 0006:006A232E       `typeinfo name for'FireAct
 0006:006A2337       `typeinfo name for'GustAct
 0006:006A2340       `typeinfo name for'IMACtrl
 0006:006A2349       `typeinfo name for'MemAlcB
 0006:006A2352       `typeinfo name for'MemAlcF
 0006:006A235B       `typeinfo name for'MemAlcH
 0006:006A2364       `typeinfo name for'Message
 0006:006A236D       `typeinfo name for'SnowAct
 0006:006A2376       `typeinfo name for'TestAct
 0006:006A237F       `typeinfo name for'BtlDfxCA
 0006:006A2389       `typeinfo name for'BtlLuigi
 0006:006A2393       `typeinfo name for'BtlMario
 0006:006A239D       `typeinfo name for'BtlMonDt
 0006:006A23A7       `typeinfo name for'BtlMsgDt
 0006:006A23B1       `typeinfo name for'BtlObjDt
 0006:006A23BB       `typeinfo name for'CtrFRead
 0006:006A23C5       `typeinfo name for'CtrNwAlc
 0006:006A23CF       `typeinfo name for'FieldChr
 0006:006A23D9       `typeinfo name for'GXResCmd
 0006:006A23E3       `typeinfo name for'GXResCmn
 0006:006A23ED       `typeinfo name for'GXResTex
 0006:006A23F7       `typeinfo name for'GXResVtx
 0006:006A2401       `typeinfo name for'GameMain
 0006:006A240B       `typeinfo name for'MBObjCam
 0006:006A2415       `typeinfo name for'MBObjMon
 0006:006A241F       `typeinfo name for'MarioObj
 0006:006A2429       `typeinfo name for'RealMuyu
 0006:006A2433       `typeinfo name for'RealRing
 0006:006A243D       `typeinfo name for'StateEnd
 0006:006A2447       `typeinfo name for'TaskList
 0006:006A2451       `typeinfo name for'UICommon
 0006:006A245B       `typeinfo name for'clRfxSys
 0006:006A2465       `typeinfo name for'BtlActMan
 0006:006A2470       `typeinfo name for'BtlCamera
 0006:006A247B       `typeinfo name for'BtlDfxMdl
 0006:006A2486       `typeinfo name for'BtlObjBlk
 0006:006A2491       `typeinfo name for'CellAnime
 0006:006A249C       `typeinfo name for'CrashRock
 0006:006A24A7       `typeinfo name for'CtrJobMan
 0006:006A24B2       `typeinfo name for'CtrModule
 0006:006A24BD       `typeinfo name for'CtrThread
 0006:006A24C8       `typeinfo name for'DLuigiCam
 0006:006A24D3       `typeinfo name for'DLuigiEtc
 0006:006A24DE       `typeinfo name for'DreamGate
 0006:006A24E9       `typeinfo name for'DummyRock
 0006:006A24F4       `typeinfo name for'FieldCoin
 0006:006A24FF       `typeinfo name for'FieldIcon
 0006:006A250A       `typeinfo name for'GfxScnSys
 0006:006A2515       `typeinfo name for'MBObjBase
 0006:006A2520       `typeinfo name for'MoveFBase
 0006:006A252B       `typeinfo name for'MoveVBase
 0006:006A2536       `typeinfo name for'MoveWorkF
 0006:006A2541       `typeinfo name for'MoveWorkV
 0006:006A254C       `typeinfo name for'NeedleAct
 0006:006A2557       `typeinfo name for'RealCrack
 0006:006A2562       `typeinfo name for'RealEvent
 0006:006A256D       `typeinfo name for'RealLuigi
 0006:006A2578       `typeinfo name for'RealMainL
 0006:006A2583       `typeinfo name for'RealMainU
 0006:006A258E       `typeinfo name for'RealMario
 0006:006A2599       `typeinfo name for'RealPCSub
 0006:006A25A4       `typeinfo name for'ShadowSys
 0006:006A25AF       `typeinfo name for'StateMain
 0006:006A25BA       `typeinfo name for'StdRender
 0006:006A25C5       `typeinfo name for'BtlEndTask::BtlEndTaskBase
 0006:006A25E4       `typeinfo name for'BtlEndTask::BtlEndTaskPcWin
 0006:006A2604       `typeinfo name for'BtlPcAtkSH::MissHammerDfxHandle
 0006:006A2628       `typeinfo name for'KameckAtk4::yaUt::ProcessBase
 0006:006A2649       `typeinfo name for'KameckAtk4::yaUt::SphereCollider
 0006:006A266D       `typeinfo name for'KameckAtk4::yaUt::State<KameckAtk4::Broom>
 0006:006A2693       `typeinfo name for'KameckAtk4::yaUt::State<KameckAtk4::Mario>
 0006:006A26B9       `typeinfo name for'KameckAtk4::yaUt::State<KameckAtk4::AtkCmd>
 0006:006A26E0       `typeinfo name for'KameckAtk4::yaUt::State<KameckAtk4::Camera>
 0006:006A2707       `typeinfo name for'KameckAtk4::yaUt::State<KameckAtk4::Kameck>
 0006:006A272E       `typeinfo name for'KameckAtk4::yaUt::LinkNode
 0006:006A274B       `typeinfo name for'KameckAtk4::yaUt::ICollider
 0006:006A2769       `typeinfo name for'KameckAtk4::Broom::StateAttack
 0006:006A278B       `typeinfo name for'KameckAtk4::Broom::StateMixing
 0006:006A27AD       `typeinfo name for'KameckAtk4::Broom::StateFinalSweep
 0006:006A27D3       `typeinfo name for'KameckAtk4::Broom::StateIntroSummon
 0006:006A27FA       `typeinfo name for'KameckAtk4::Broom::StateMoveToKameck_Fly
 0006:006A2826       `typeinfo name for'KameckAtk4::Broom::StateMoveToKameck_Land
 0006:006A2853       `typeinfo name for'KameckAtk4::Mario::StateMixing
 0006:006A2875       `typeinfo name for'KameckAtk4::Mario::StateComeBack
 0006:006A2899       `typeinfo name for'KameckAtk4::Mario::StateGoToHome
 0006:006A28BD       `typeinfo name for'KameckAtk4::Mario::StateComeBackDead
 0006:006A28E5       `typeinfo name for'KameckAtk4::Mario::StateEscapeDigital
 0006:006A290E       `typeinfo name for'KameckAtk4::Mario::StateHitBroomFinal
 0006:006A2937       `typeinfo name for'KameckAtk4::Mario::StateHitBroomMixing
 0006:006A2961       `typeinfo name for'KameckAtk4::AtkCmd::StateIntro
 0006:006A2983       `typeinfo name for'KameckAtk4::AtkCmd
 0006:006A2999       `typeinfo name for'KameckAtk4::Camera::StateGoToHome
 0006:006A29BE       `typeinfo name for'KameckAtk4::Camera::StateIntroSummon
 0006:006A29E6       `typeinfo name for'KameckAtk4::Camera::StateMarioFollow
 0006:006A2A0E       `typeinfo name for'KameckAtk4::Kameck::StateSweep
 0006:006A2A30       `typeinfo name for'KameckAtk4::Kameck::StateBroomOut
 0006:006A2A55       `typeinfo name for'KameckAtk4::Kameck::StateControlAnm
 0006:006A2A7C       `typeinfo name for'KameckAtk4::Kameck::StateMoveHome_Fly
 0006:006A2AA5       `typeinfo name for'KameckAtk4::Kameck::StateMoveHome_Land
 0006:006A2ACF       `typeinfo name for'KameckAtk4::Resource::Loader
 0006:006A2AEE       `typeinfo name for'__cxxabiv1::__class_type_info
 0006:006A2B10       `typeinfo name for'__cxxabiv1::__si_class_type_info
 0006:006A2B35       `typeinfo name for'__cxxabiv1::__vmi_class_type_info
 0006:006A2B5B       `typeinfo name for'BtlAbnormal::TaskAbnDfxTimeStop
 0006:006A2B7F       `typeinfo name for'BtlAbnormal::Act
 0006:006A2B93       `typeinfo name for'BtlDropCoin::Coin
 0006:006A2BA8       `typeinfo name for'BtlMainFunc::JobInitDfxMsg
 0006:006A2BC7       `typeinfo name for'BtlMainFunc::AbortTaskEndCallback
 0006:006A2BED       `typeinfo name for'BtlPcCmdBlk::ChgScrCallback
 0006:006A2C0D       `typeinfo name for'BtlPcCmdBlk::ExecBadgeEffCallback
 0006:006A2C33       `typeinfo name for'BtlPcCmdBlk::SelectBadgeEffCallback
 0006:006A2C5B       `typeinfo name for'BtlTaskBase::CallbackBase
 0006:006A2C79       `typeinfo name for'MDCHALLENGE::BossTarget
 0006:006A2C95       `typeinfo name for'MDCHALLENGE::ZakoTarget
 0006:006A2CB1       `typeinfo name for'MDCHALLENGE::yaUt::ProcessBase
 0006:006A2CD3       `typeinfo name for'MDCHALLENGE::yaUt::LinkNode
 0006:006A2CF1       `typeinfo name for'MDCHALLENGE::AtkCmd::StateIntro
 0006:006A2D14       `typeinfo name for'MDCHALLENGE::AtkCmd::StateFinalize
 0006:006A2D3A       `typeinfo name for'MDCHALLENGE::AtkCmd::StateGame
 0006:006A2D5B       `typeinfo name for'MDCHALLENGE::AtkCmd
 0006:006A2D72       `typeinfo name for'MDCHALLENGE::ITarget
 0006:006A2D8A       `typeinfo name for'MDCHALLENGE::Resource
 0006:006A2DA3       `typeinfo name for'FLCCHALLENGE::StateIntro
 0006:006A2DC0       `typeinfo name for'FLCCHALLENGE::StateFinalize
 0006:006A2DE0       `typeinfo name for'FLCCHALLENGE::IObjStompTarget
 0006:006A2E02       `typeinfo name for'FLCCHALLENGE::ItemDamageBalloon
 0006:006A2E26       `typeinfo name for'FLCCHALLENGE::ObjStompTarget_Mon
 0006:006A2E4B       `typeinfo name for'FLCCHALLENGE::ObjStompTarget_Dummy
 0006:006A2E72       `typeinfo name for'FLCCHALLENGE::yaUt::ProcessBase
 0006:006A2E95       `typeinfo name for'FLCCHALLENGE::yaUt::MinigameObjEstimate
 0006:006A2EC0       `typeinfo name for'FLCCHALLENGE::yaUt::LinkNode
 0006:006A2EDF       `typeinfo name for'FLCCHALLENGE::IItem
 0006:006A2EF6       `typeinfo name for'FLCCHALLENGE::ObjML
 0006:006A2F0D       `typeinfo name for'FLCCHALLENGE::AtkCmd
 0006:006A2F25       `typeinfo name for'FLCCHALLENGE::ObjLuigi
 0006:006A2F3F       `typeinfo name for'FLCCHALLENGE::ObjMario
 0006:006A2F59       `typeinfo name for'FLCCHALLENGE::Resource
 0006:006A2F73       `typeinfo name for'FLCCHALLENGE::ItemTimer
 0006:006A2F8E       `typeinfo name for'FLCCHALLENGE::StateMain
 0006:006A2FA9       `typeinfo name for'MRBCHALLENGE::ItemNeedle
 0006:006A2FC6       `typeinfo name for'MRBCHALLENGE::ObjBigRose::Behavior_Idle
 0006:006A2FF2       `typeinfo name for'MRBCHALLENGE::ObjBigRose::Behavior_MoveRandom
 0006:006A3024       `typeinfo name for'MRBCHALLENGE::ObjBigRose::Behavior_MoveSimple
 0006:006A3056       `typeinfo name for'MRBCHALLENGE::ObjBigRose::Behavior_MoveAndStop
 0006:006A3089       `typeinfo name for'MRBCHALLENGE::ObjBigRose
 0006:006A30A6       `typeinfo name for'MRBCHALLENGE::StateIntro
 0006:006A30C3       `typeinfo name for'MRBCHALLENGE::ObjNormalRose
 0006:006A30E3       `typeinfo name for'MRBCHALLENGE::StateFinalize
 0006:006A3103       `typeinfo name for'MRBCHALLENGE::LuigiBallRenderer
 0006:006A3127       `typeinfo name for'MRBCHALLENGE::yaUt::BtlColRead
 0006:006A3149       `typeinfo name for'MRBCHALLENGE::yaUt::ProcessBase
 0006:006A316C       `typeinfo name for'MRBCHALLENGE::yaUt::SphereCollider
 0006:006A3192       `typeinfo name for'MRBCHALLENGE::yaUt::MinigameObjEstimate
 0006:006A31BD       `typeinfo name for'MRBCHALLENGE::yaUt::MiracleAtkIntro_MarioJump
 0006:006A31EE       `typeinfo name for'MRBCHALLENGE::yaUt::MiracleAtkIntro_HoistLuigi
 0006:006A3220       `typeinfo name for'MRBCHALLENGE::yaUt::MiracleAtkIntro_ThrowLuigi
 0006:006A3252       `typeinfo name for'MRBCHALLENGE::yaUt::State<MRBCHALLENGE::ObjBigRose>
 0006:006A3280       `typeinfo name for'MRBCHALLENGE::yaUt::LinkNode
 0006:006A329F       `typeinfo name for'MRBCHALLENGE::yaUt::ICollider
 0006:006A32BF       `typeinfo name for'MRBCHALLENGE::AtkCmd
 0006:006A32D7       `typeinfo name for'MRBCHALLENGE::ItemBase
 0006:006A32F1       `typeinfo name for'MRBCHALLENGE::ItemBomb
 0006:006A330B       `typeinfo name for'MRBCHALLENGE::Resource
 0006:006A3325       `typeinfo name for'MRBCHALLENGE::LuigiBall::Effect
 0006:006A3347       `typeinfo name for'MRBCHALLENGE::StateMain
 0006:006A3362       `typeinfo name for'MRFCHALLENGE::yaUt::ProcessBase
 0006:006A3385       `typeinfo name for'MRFCHALLENGE::yaUt::MinigameObjEstimate
 0006:006A33B0       `typeinfo name for'MRFCHALLENGE::yaUt::MiracleAtkIntro_HoistLuigi
 0006:006A33E2       `typeinfo name for'MRFCHALLENGE::yaUt::MiracleAtkIntro_ThrowLuigi
 0006:006A3414       `typeinfo name for'MRFCHALLENGE::yaUt::State<MRFCHALLENGE::AtkCmd>
 0006:006A343D       `typeinfo name for'MRFCHALLENGE::yaUt::LinkNode
 0006:006A345C       `typeinfo name for'MRFCHALLENGE::AtkCmd::StateIntro
 0006:006A3480       `typeinfo name for'MRFCHALLENGE::AtkCmd::StateToss
 0006:006A34A2       `typeinfo name for'MRFCHALLENGE::AtkCmd
 0006:006A34BA       `typeinfo name for'MRFCHALLENGE::Resource::LoadProcess
 0006:006A34E1       `typeinfo name for'MRJCHALLENGE::ItemNeedle
 0006:006A34FE       `typeinfo name for'MRJCHALLENGE::LuigiGroup
 0006:006A351B       `typeinfo name for'MRJCHALLENGE::LuigiBoxWorld::StateAttach
 0006:006A3548       `typeinfo name for'MRJCHALLENGE::LuigiBoxWorld::StateDetach
 0006:006A3575       `typeinfo name for'MRJCHALLENGE::LuigiBoxWorld::StateRestart
 0006:006A35A3       `typeinfo name for'MRJCHALLENGE::LuigiBoxWorld::StateIntroFall
 0006:006A35D3       `typeinfo name for'MRJCHALLENGE::LuigiBoxWorld::StateSmallJump
 0006:006A3603       `typeinfo name for'MRJCHALLENGE::LuigiBoxWorld::StateAttackJump
 0006:006A3634       `typeinfo name for'MRJCHALLENGE::LuigiBoxWorld::StateDestroyAll
 0006:006A3665       `typeinfo name for'MRJCHALLENGE::LuigiBoxWorld::StateAttackFailure
 0006:006A3699       `typeinfo name for'MRJCHALLENGE::LuigiBoxWorld::StateAttackSuccess
 0006:006A36CD       `typeinfo name for'MRJCHALLENGE::LuigiBoxWorld::AttachResultCallBack
 0006:006A3703       `typeinfo name for'MRJCHALLENGE::LuigiBoxWorld::StateJump
 0006:006A372D       `typeinfo name for'MRJCHALLENGE::LuigiBoxWorld::StateMain
 0006:006A3757       `typeinfo name for'MRJCHALLENGE::yaUt::ProcessBase
 0006:006A377A       `typeinfo name for'MRJCHALLENGE::yaUt::AABBCollider
 0006:006A379E       `typeinfo name for'MRJCHALLENGE::yaUt::CollisionFunc
 0006:006A37C3       `typeinfo name for'MRJCHALLENGE::yaUt::SphereCollider
 0006:006A37E9       `typeinfo name for'MRJCHALLENGE::yaUt::MinigameObjEstimate
 0006:006A3814       `typeinfo name for'MRJCHALLENGE::yaUt::MiracleAtkIntro_MarioJump
 0006:006A3845       `typeinfo name for'MRJCHALLENGE::yaUt::MiracleAtkIntro_HoistLuigi
 0006:006A3877       `typeinfo name for'MRJCHALLENGE::yaUt::MiracleAtkIntro_ThrowLuigi
 0006:006A38A9       `typeinfo name for'MRJCHALLENGE::yaUt::State<MRJCHALLENGE::LuigiBoxWorld>
 0006:006A38DA       `typeinfo name for'MRJCHALLENGE::yaUt::State<MRJCHALLENGE::AtkCmd>
 0006:006A3903       `typeinfo name for'MRJCHALLENGE::yaUt::State<MRJCHALLENGE::ObjCamera>
 0006:006A392F       `typeinfo name for'MRJCHALLENGE::yaUt::LinkNode
 0006:006A394E       `typeinfo name for'MRJCHALLENGE::yaUt::ICollider
 0006:006A396E       `typeinfo name for'MRJCHALLENGE::AtkCmd::StateIntro
 0006:006A3992       `typeinfo name for'MRJCHALLENGE::AtkCmd::StateFinalize
 0006:006A39B9       `typeinfo name for'MRJCHALLENGE::AtkCmd::StateMain::AttachComboManager
 0006:006A39EF       `typeinfo name for'MRJCHALLENGE::AtkCmd::StateMain
 0006:006A3A11       `typeinfo name for'MRJCHALLENGE::AtkCmd
 0006:006A3A29       `typeinfo name for'MRJCHALLENGE::BoxLocal::EventHandle
 0006:006A3A50       `typeinfo name for'MRJCHALLENGE::BoxLocal
 0006:006A3A6A       `typeinfo name for'MRJCHALLENGE::ItemBase
 0006:006A3A84       `typeinfo name for'MRJCHALLENGE::ItemBomb
 0006:006A3A9E       `typeinfo name for'MRJCHALLENGE::ObjMario
 0006:006A3AB8       `typeinfo name for'MRJCHALLENGE::Resource
 0006:006A3AD2       `typeinfo name for'MRJCHALLENGE::ObjCamera::StateRestart
 0006:006A3AFB       `typeinfo name for'MRJCHALLENGE::ObjCamera::StateAttackJump
 0006:006A3B27       `typeinfo name for'MRJCHALLENGE::ObjCamera::StateMain
 0006:006A3B4C       `typeinfo name for'MRWCHALLENGE::EnemyGroup::IEnemyDeadCallBack
 0006:006A3B7D       `typeinfo name for'MRWCHALLENGE::ItemManager::IItemEffectTask
 0006:006A3BAC       `typeinfo name for'MRWCHALLENGE::ItemManager::IApplyItemEffectCallBack
 0006:006A3BE4       `typeinfo name for'MRWCHALLENGE::yaUt::BtlColRead
 0006:006A3C06       `typeinfo name for'MRWCHALLENGE::yaUt::OBBCollider
 0006:006A3C29       `typeinfo name for'MRWCHALLENGE::yaUt::ProcessBase
 0006:006A3C4C       `typeinfo name for'MRWCHALLENGE::yaUt::AABBCollider
 0006:006A3C70       `typeinfo name for'MRWCHALLENGE::yaUt::CollisionFunc
 0006:006A3C95       `typeinfo name for'MRWCHALLENGE::yaUt::SphereCollider
 0006:006A3CBB       `typeinfo name for'MRWCHALLENGE::yaUt::MiracleAtkIntro_HoistLuigi
 0006:006A3CED       `typeinfo name for'MRWCHALLENGE::yaUt::MiracleAtkIntro_ThrowLuigi
 0006:006A3D1F       `typeinfo name for'MRWCHALLENGE::yaUt::State<MRWCHALLENGE::AtkCmd::StateRally>
 0006:006A3D54       `typeinfo name for'MRWCHALLENGE::yaUt::State<MRWCHALLENGE::AtkCmd>
 0006:006A3D7D       `typeinfo name for'MRWCHALLENGE::yaUt::LinkNode
 0006:006A3D9C       `typeinfo name for'MRWCHALLENGE::yaUt::ICollider
 0006:006A3DBC       `typeinfo name for'MRWCHALLENGE::AtkCmd::StateIntro
 0006:006A3DE0       `typeinfo name for'MRWCHALLENGE::AtkCmd::StateRally::StateLuigiReEntry
 0006:006A3E17       `typeinfo name for'MRWCHALLENGE::AtkCmd::StateRally::StateMain
 0006:006A3E45       `typeinfo name for'MRWCHALLENGE::AtkCmd::StateRally
 0006:006A3E69       `typeinfo name for'MRWCHALLENGE::AtkCmd::StateRestart
 0006:006A3E8F       `typeinfo name for'MRWCHALLENGE::AtkCmd::StateFinalize
 0006:006A3EB6       `typeinfo name for'MRWCHALLENGE::AtkCmd::EnemyDeadCallBack
 0006:006A3EE1       `typeinfo name for'MRWCHALLENGE::AtkCmd::ItemEffect_SpdChange
 0006:006A3F0F       `typeinfo name for'MRWCHALLENGE::AtkCmd::ItemEffect_SplitStar::StarAppearEffect
 0006:006A3F4F       `typeinfo name for'MRWCHALLENGE::AtkCmd::ItemEffect_SplitStar
 0006:006A3F7D       `typeinfo name for'MRWCHALLENGE::AtkCmd::ItemEffect_DoubleScore
 0006:006A3FAD       `typeinfo name for'MRWCHALLENGE::AtkCmd::ApplyItemEffectCallBack
 0006:006A3FDE       `typeinfo name for'MRWCHALLENGE::AtkCmd::StateWall
 0006:006A4000       `typeinfo name for'MRWCHALLENGE::AtkCmd
 0006:006A4018       `typeinfo name for'MRWCHALLENGE::Resource::LoadProcess
 0006:006A403F       `typeinfo name for'BtlObjListWnd::ListWnd
 0006:006A4059       `typeinfo name for'BtlObjAlertMsg::ScrollMsg
 0006:006A4076       `typeinfo name for'BtlObjIronBall::StompTaskCallback
 0006:006A409C       `typeinfo name for'BtlPcDefHammer::ObjDispHam
 0006:006A40BB       `typeinfo name for'AkmAtk4Relocate::CmdStateIntro
 0006:006A40DE       `typeinfo name for'AkmAtk4Relocate::IntroInternal::Resource
 0006:006A410A       `typeinfo name for'AkmAtk4Relocate::CmdStateEscape::StateHitHole
 0006:006A413C       `typeinfo name for'AkmAtk4Relocate::CmdStateEscape::StateGameOver
 0006:006A416F       `typeinfo name for'AkmAtk4Relocate::CmdStateEscape::StateMove
 0006:006A419D       `typeinfo name for'AkmAtk4Relocate::CmdStateEscape
 0006:006A41C1       `typeinfo name for'AkmAtk4Relocate::EscapeInternal::MarioObj::StateEscape
 0006:006A41FB       `typeinfo name for'AkmAtk4Relocate::EscapeInternal::MarioObj::StateHitHole
 0006:006A4236       `typeinfo name for'AkmAtk4Relocate::EscapeInternal::MarioObj::StateHitBullet
 0006:006A4273       `typeinfo name for'AkmAtk4Relocate::EscapeInternal::AkkumuObj::StateIdle
 0006:006A42AB       `typeinfo name for'AkmAtk4Relocate::EscapeInternal::AkkumuObj::StateShot
 0006:006A42E3       `typeinfo name for'AkmAtk4Relocate::CmdStateExitEnd
 0006:006A4308       `typeinfo name for'AkmAtk4Relocate::CmdStateLoopEnd
 0006:006A432D       `typeinfo name for'AkmAtk4Relocate::CmdStateMinigame::StateGame
 0006:006A435D       `typeinfo name for'AkmAtk4Relocate::CmdStateMinigame
 0006:006A4383       `typeinfo name for'AkmAtk4Relocate::CmdStateGameOverEnd
 0006:006A43AC       `typeinfo name for'AkmAtk4Relocate::AkmAtk4RelocateInternal::AkmFall
 0006:006A43E1       `typeinfo name for'AkmAtk4Relocate::yaUt::ProcessBase
 0006:006A4407       `typeinfo name for'AkmAtk4Relocate::yaUt::State<AkmAtk4Relocate::CmdStateEscape>
 0006:006A443C       `typeinfo name for'AkmAtk4Relocate::yaUt::State<AkmAtk4Relocate::EscapeInternal::MarioObj>
 0006:006A447A       `typeinfo name for'AkmAtk4Relocate::yaUt::State<AkmAtk4Relocate::EscapeInternal::AkkumuObj>
 0006:006A44B9       `typeinfo name for'AkmAtk4Relocate::yaUt::State<AkmAtk4Relocate::CmdStateMinigame>
 0006:006A44F0       `typeinfo name for'AkmAtk4Relocate::yaUt::State<AkmAtk4Relocate::AtkCmd>
 0006:006A451C       `typeinfo name for'AkmAtk4Relocate::yaUt::LinkNode
 0006:006A453E       `typeinfo name for'AkmAtk4Relocate::AtkCmd
 0006:006A4559       `typeinfo name for'AkmAtk4Relocate::HoleObj
 0006:006A4575       `typeinfo name for'AkmAtk4Relocate::IHoleObj
 0006:006A4592       `typeinfo name for'Btl_AtkDreamEgg::AtkPartMain
 0006:006A45B3       `typeinfo name for'Btl_AtkDreamEgg::AtkPartFinal
 0006:006A45D5       `typeinfo name for'Btl_AtkDreamEgg::AtkPartIntro::UpdaterWaitReadyAtkComp
 0006:006A4610       `typeinfo name for'Btl_AtkDreamEgg::AtkPartIntro::UpdaterWaitLoadCompIntro
 0006:006A464C       `typeinfo name for'Btl_AtkDreamEgg::AtkPartIntro
 0006:006A466E       `typeinfo name for'Btl_AtkDreamEgg::AtkPartTotal
 0006:006A4690       `typeinfo name for'Btl_AtkDreamEgg::BASceneUpdAtkReady
 0006:006A46B8       `typeinfo name for'Btl_AtkDreamEgg::BASceneUpdWhiteFade
 0006:006A46E1       `typeinfo name for'Btl_AtkDreamEgg::BASceneUpdFollowBall
 0006:006A470B       `typeinfo name for'Btl_AtkDreamEgg::BASceneUpdL2MoveOmzball
 0006:006A4738       `typeinfo name for'Btl_AtkDreamEgg::BASceneUpdExplodeOmzball
 0006:006A4766       `typeinfo name for'Btl_AtkDreamEgg::BASceneUpdL2TryPairHammer
 0006:006A4795       `typeinfo name for'Btl_AtkDreamEgg::BASceneUpdL2TrySoloHammer
 0006:006A47C4       `typeinfo name for'Btl_AtkDreamEgg::BASceneUpdPcLandingFromSky
 0006:006A47F4       `typeinfo name for'Btl_AtkDreamEgg::BASceneUpdL2ReturnSmashedPc
 0006:006A4825       `typeinfo name for'Btl_AtkDreamEgg::BASceneUpdL2TryJumpSequence
 0006:006A4856       `typeinfo name for'Btl_AtkDreamEgg::BASceneUpdL2TrySoloHamRecov
 0006:006A4887       `typeinfo name for'Btl_AtkDreamEgg::BASceneUpdL2ScreenOutOmzball
 0006:006A48B9       `typeinfo name for'Btl_AtkDreamEgg::ChrCmd
 0006:006A48D4       `typeinfo name for'Btl_AtkDreamEgg::BAScene
 0006:006A48F0       `typeinfo name for'Btl_AtkDreamEgg::BAPcTeam
 0006:006A490D       `typeinfo name for'Btl_AtkHaneruMet::ExplDrawer
 0006:006A492E       `typeinfo name for'Btl_AtkHaneruMet::ObjectBase
 0006:006A494F       `typeinfo name for'Btl_AtkHaneruMet::AtkPartMain
 0006:006A4971       `typeinfo name for'Btl_AtkHaneruMet::AtkPartFinal
 0006:006A4994       `typeinfo name for'Btl_AtkHaneruMet::AtkPartIntro::UpdaterWaitReadyAtkComp
 0006:006A49D0       `typeinfo name for'Btl_AtkHaneruMet::AtkPartIntro::UpdaterWaitLoadCompIntro
 0006:006A4A0D       `typeinfo name for'Btl_AtkHaneruMet::AtkPartIntro
 0006:006A4A30       `typeinfo name for'Btl_AtkHaneruMet::AtkPartTotal
 0006:006A4A53       `typeinfo name for'Btl_AtkHaneruMet::ChrCmdEndless
 0006:006A4A77       `typeinfo name for'Btl_AtkHaneruMet::BASceneEndless
 0006:006A4A9C       `typeinfo name for'Btl_AtkHaneruMet::PcTeamUpdAtkReady
 0006:006A4AC4       `typeinfo name for'Btl_AtkHaneruMet::AtkPartMainEndless
 0006:006A4AED       `typeinfo name for'Btl_AtkHaneruMet::AtkPartFinalEndless::UpdaterExplDrawerDeleter
 0006:006A4B31       `typeinfo name for'Btl_AtkHaneruMet::AtkPartFinalEndless
 0006:006A4B5B       `typeinfo name for'Btl_AtkHaneruMet::AtkPartIntroEndless::UpdaterWaitBootOrCancel
 0006:006A4B9E       `typeinfo name for'Btl_AtkHaneruMet::AtkPartIntroEndless::UpdaterWaitReadyAtkComp
 0006:006A4BE1       `typeinfo name for'Btl_AtkHaneruMet::AtkPartIntroEndless::UpdaterWaitLoadCompIntro
 0006:006A4C25       `typeinfo name for'Btl_AtkHaneruMet::AtkPartIntroEndless
 0006:006A4C4F       `typeinfo name for'Btl_AtkHaneruMet::AtkPartTotalEndless
 0006:006A4C79       `typeinfo name for'Btl_AtkHaneruMet::PcTeamUpdAtkLastJump
 0006:006A4CA4       `typeinfo name for'Btl_AtkHaneruMet::RefCounterSlowAtkMode
 0006:006A4CD0       `typeinfo name for'Btl_AtkHaneruMet::PcTeamUpdAtkFailOutside
 0006:006A4CFE       `typeinfo name for'Btl_AtkHaneruMet::PcTeamUpdAtkIntervalJump
 0006:006A4D2D       `typeinfo name for'Btl_AtkHaneruMet::ObjCA
 0006:006A4D48       `typeinfo name for'Btl_AtkHaneruMet::ChrCmd
 0006:006A4D64       `typeinfo name for'Btl_AtkHaneruMet::BAScene
 0006:006A4D81       `typeinfo name for'Btl_AtkHaneruMet::BAMonSolo
 0006:006A4DA0       `typeinfo name for'Btl_AtkStarRocket::BAPcBooter
 0006:006A4DC2       `typeinfo name for'Btl_AtkStarRocket::AtkPartMain
 0006:006A4DE5       `typeinfo name for'Btl_AtkStarRocket::BAPcPartner
 0006:006A4E08       `typeinfo name for'Btl_AtkStarRocket::AtkPartFinal
 0006:006A4E2C       `typeinfo name for'Btl_AtkStarRocket::AtkPartIntro::UpdaterWaitReadyAtkComp
 0006:006A4E69       `typeinfo name for'Btl_AtkStarRocket::AtkPartIntro::UpdaterWaitLoadCompIntro
 0006:006A4EA7       `typeinfo name for'Btl_AtkStarRocket::AtkPartIntro
 0006:006A4ECB       `typeinfo name for'Btl_AtkStarRocket::AtkPartTotal
 0006:006A4EEF       `typeinfo name for'Btl_AtkStarRocket::BASceneUpdAtkReady
 0006:006A4F19       `typeinfo name for'Btl_AtkStarRocket::BASceneUpdAtkMonStomp
 0006:006A4F46       `typeinfo name for'Btl_AtkStarRocket::BASceneUpdAtkClashFloor
 0006:006A4F75       `typeinfo name for'Btl_AtkStarRocket::BASceneUpdAtkCtrlRocket
 0006:006A4FA4       `typeinfo name for'Btl_AtkStarRocket::BASceneUpdAtkRocketRise
 0006:006A4FD3       `typeinfo name for'Btl_AtkStarRocket::BASceneUpdL2MonStompPerPc
 0006:006A5004       `typeinfo name for'Btl_AtkStarRocket::ChrCmd
 0006:006A5021       `typeinfo name for'Btl_AtkStarRocket::BAScene
 0006:006A503F       `typeinfo name for'Btl_AtkStarRocket::BAPcSolo
 0006:006A505E       `typeinfo name for'Btl_AtkStarRocket::BAPcTeam
 0006:006A507D       `typeinfo name for'Btl_AtkStarRocket::BAMonSolo
 0006:006A509D       `typeinfo name for'Btl_AtkStarRocket::BAMonTeam
 0006:006A50BD       `typeinfo name for'Btl_AtkTaruTaihou::BAPcBooter
 0006:006A50DF       `typeinfo name for'Btl_AtkTaruTaihou::AtkPartMain
 0006:006A5102       `typeinfo name for'Btl_AtkTaruTaihou::BAPcPartner
 0006:006A5125       `typeinfo name for'Btl_AtkTaruTaihou::AtkPartFinal
 0006:006A5149       `typeinfo name for'Btl_AtkTaruTaihou::AtkPartIntro::UpdaterWaitReadyAtkComp
 0006:006A5186       `typeinfo name for'Btl_AtkTaruTaihou::AtkPartIntro::UpdaterWaitLoadCompIntro
 0006:006A51C4       `typeinfo name for'Btl_AtkTaruTaihou::AtkPartIntro
 0006:006A51E8       `typeinfo name for'Btl_AtkTaruTaihou::AtkPartTotal
 0006:006A520C       `typeinfo name for'Btl_AtkTaruTaihou::BASceneUpdAtkReady
 0006:006A5236       `typeinfo name for'Btl_AtkTaruTaihou::RefCounterSlowAtkMode
 0006:006A5263       `typeinfo name for'Btl_AtkTaruTaihou::BASceneUpdDiveInBarrel
 0006:006A5291       `typeinfo name for'Btl_AtkTaruTaihou::BASceneUpdSelectBarrel
 0006:006A52BF       `typeinfo name for'Btl_AtkTaruTaihou::BASceneUpdShuffleBarrel
 0006:006A52EE       `typeinfo name for'Btl_AtkTaruTaihou::BABarrelSingleUpdAtkItem
 0006:006A531E       `typeinfo name for'Btl_AtkTaruTaihou::BASceneUpdFallLandBarrel
 0006:006A534E       `typeinfo name for'Btl_AtkTaruTaihou::BASceneUpdInvisibleBarrel
 0006:006A537F       `typeinfo name for'Btl_AtkTaruTaihou::BABarrelSingleUpdSelectShake
 0006:006A53B3       `typeinfo name for'Btl_AtkTaruTaihou::BABarrelSingleUpdJumpTargeting
 0006:006A53E9       `typeinfo name for'Btl_AtkTaruTaihou::BABarrelSingleUpdAtkShootPcFail
 0006:006A5420       `typeinfo name for'Btl_AtkTaruTaihou::BABarrelSingleUpdAtkShootPcSucc
 0006:006A5457       `typeinfo name for'Btl_AtkTaruTaihou::ChrCmd
 0006:006A5474       `typeinfo name for'Btl_AtkTaruTaihou::BAPcObj
 0006:006A5492       `typeinfo name for'Btl_AtkTaruTaihou::BAScene
 0006:006A54B0       `typeinfo name for'Btl_AtkTaruTaihou::BAPcTeam
 0006:006A54CF       `typeinfo name for'Btl_AtkTaruTaihou::BAMonSolo
 0006:006A54EF       `typeinfo name for'Btl_AtkTaruTaihou::BAMonTeam
 0006:006A550F       `typeinfo name for'Btl_OtameshiIntro::AtkPartIMF
 0006:006A5531       `typeinfo name for'Btl_OtameshiIntro::BtlTask
 0006:006A554F       `typeinfo name for'Btl_AtkFuechauBall::AtkPartIMF
 0006:006A5572       `typeinfo name for'Btl_AtkFuechauBall::CommonData
 0006:006A5595       `typeinfo name for'Btl_AtkFuechauBall::AtkPartMain
 0006:006A55B9       `typeinfo name for'Btl_AtkFuechauBall::BAColObject
 0006:006A55DD       `typeinfo name for'Btl_AtkFuechauBall::AtkPartFinal
 0006:006A5602       `typeinfo name for'Btl_AtkFuechauBall::AtkPartIntro::UpdaterWaitReadyAtkComp
 0006:006A5640       `typeinfo name for'Btl_AtkFuechauBall::AtkPartIntro::UpdaterWaitLoadCompIntro
 0006:006A567F       `typeinfo name for'Btl_AtkFuechauBall::AtkPartIntro
 0006:006A56A4       `typeinfo name for'Btl_AtkFuechauBall::BABallSingle
 0006:006A56C9       `typeinfo name for'Btl_AtkFuechauBall::BASceneUpdReady
 0006:006A56F1       `typeinfo name for'Btl_AtkFuechauBall::BASceneUpdMainAtk
 0006:006A571B       `typeinfo name for'Btl_AtkFuechauBall::BABallSingleUpdater
 0006:006A5747       `typeinfo name for'Btl_AtkFuechauBall::BASceneUpdWaitActive
 0006:006A5774       `typeinfo name for'Btl_AtkFuechauBall::BABallSingleUpdAtkReady
 0006:006A57A4       `typeinfo name for'Btl_AtkFuechauBall::BABallSingleUpdBallLiner
 0006:006A57D5       `typeinfo name for'Btl_AtkFuechauBall::BABallSingleUpdStepQueue
 0006:006A5806       `typeinfo name for'Btl_AtkFuechauBall::BABallSingleUpdBallVanish
 0006:006A5838       `typeinfo name for'Btl_AtkFuechauBall::BABallSingleUpdAppearQueue
 0006:006A586B       `typeinfo name for'Btl_AtkFuechauBall::BABallSingleUpdBallThrowed
 0006:006A589E       `typeinfo name for'Btl_AtkFuechauBall::ChrCmd
 0006:006A58BC       `typeinfo name for'Btl_AtkFuechauBall::BAPcSolo
 0006:006A58DC       `typeinfo name for'Btl_AtkFuechauBall::BAPcTeam
 0006:006A58FC       `typeinfo name for'Btl_AtkFuechauBall::BABallSet
 0006:006A591D       `typeinfo name for'Btl_AtkFuechauBall::BAMonSolo
 0006:006A593E       `typeinfo name for'Btl_AtkFuechauBall::BAMonTeam
 0006:006A595F       `typeinfo name for'Btl_AtkRocketBoard::AtkPartIMF
 0006:006A5982       `typeinfo name for'Btl_AtkRocketBoard::AtkPartMain
 0006:006A59A6       `typeinfo name for'Btl_AtkRocketBoard::AtkPartFinal
 0006:006A59CB       `typeinfo name for'Btl_AtkRocketBoard::AtkPartIntro::UpdaterWaitReadyAtkComp
 0006:006A5A09       `typeinfo name for'Btl_AtkRocketBoard::AtkPartIntro::UpdaterWaitLoadCompIntro
 0006:006A5A48       `typeinfo name for'Btl_AtkRocketBoard::AtkPartIntro
 0006:006A5A6D       `typeinfo name for'Btl_AtkRocketBoard::ChrCmd
 0006:006A5A8B       `typeinfo name for'Btl_AtkRocketBoard::BAPcTeam::UpdaterAtkMain
 0006:006A5ABB       `typeinfo name for'Btl_AtkRocketBoard::BAPcTeam::UpdaterAtkReady
 0006:006A5AEC       `typeinfo name for'Btl_AtkRocketBoard::BAPcTeam::UpdaterSubAccel
 0006:006A5B1D       `typeinfo name for'Btl_AtkRocketBoard::BAPcTeam::UpdaterAtkMainSub
 0006:006A5B50       `typeinfo name for'Btl_AtkRocketBoard::BAPcTeam::UpdaterSubNeutral
 0006:006A5B83       `typeinfo name for'Btl_AtkRocketBoard::BAPcTeam::UpdaterSubSpdLimit
 0006:006A5BB7       `typeinfo name for'Btl_AtkRocketBoard::BAPcTeam::UpdaterAtkEndCrashed
 0006:006A5BED       `typeinfo name for'Btl_AtkRocketBoard::BAPcTeam::UpdaterSubSpinHammer
 0006:006A5C23       `typeinfo name for'Btl_AtkRocketBoard::BAPcTeam::UpdaterSubSpinHammerMiss
 0006:006A5C5D       `typeinfo name for'Btl_AtkRocketBoard::BAPcTeam::UpdaterSubSpinReadyNeutral
 0006:006A5C99       `typeinfo name for'Btl_AtkRocketBoard::BAMonSolo::UpdaterFlyDodge
 0006:006A5CCB       `typeinfo name for'Btl_AtkRocketBoard::BAMonSolo::UpdaterAtkScUchiage
 0006:006A5D01       `typeinfo name for'Btl_AtkRocketBoard::BAMonSolo::Updater
 0006:006A5D2A       `typeinfo name for'Btl_AtkRocketBoard::BAMonSolo
 0006:006A5D4B       `typeinfo name for'Btl_AtkBaibaiFlower::UpdaterMain
 0006:006A5D70       `typeinfo name for'Btl_AtkBaibaiFlower::AtkPartFinal
 0006:006A5D96       `typeinfo name for'Btl_AtkBaibaiFlower::AtkPartIntro::UpdaterWaitReadyAtkComp
 0006:006A5DD5       `typeinfo name for'Btl_AtkBaibaiFlower::AtkPartIntro::UpdaterWaitLoadCompIntro
 0006:006A5E15       `typeinfo name for'Btl_AtkBaibaiFlower::AtkPartIntro
 0006:006A5E3B       `typeinfo name for'Btl_AtkBaibaiFlower::BAPcTeamUpdAtkReady
 0006:006A5E68       `typeinfo name for'Btl_AtkBaibaiFlower::PcSoloUpdJumpAtkAbort
 0006:006A5E97       `typeinfo name for'Btl_AtkBaibaiFlower::PcSoloUpdJumpAtkToMon
 0006:006A5EC6       `typeinfo name for'Btl_AtkBaibaiFlower::PcSoloUpdLineMovePart
 0006:006A5EF5       `typeinfo name for'Btl_AtkBaibaiFlower::PcSoloUpdPcBranchPart
 0006:006A5F24       `typeinfo name for'Btl_AtkBaibaiFlower::PcTeamUpdPcBranchPart
 0006:006A5F53       `typeinfo name for'Btl_AtkBaibaiFlower::RefCounterSlowAtkMode
 0006:006A5F82       `typeinfo name for'Btl_AtkBaibaiFlower::PcSoloUpdJumpAtkSuccess
 0006:006A5FB3       `typeinfo name for'Btl_AtkBaibaiFlower::PcSoloUpdJumpAtkThrough
 0006:006A5FE4       `typeinfo name for'Btl_AtkBaibaiFlower::PcTeamUpdJumpAtkToMonPart
 0006:006A6017       `typeinfo name for'Btl_AtkBaibaiFlower::PcSoloUpdJumpAtkFailBadTiming
 0006:006A604E       `typeinfo name for'Btl_AtkBaibaiFlower::PcSoloUpdMoveToBackCirclePart
 0006:006A6085       `typeinfo name for'Btl_AtkBaibaiFlower::PcSoloUpdJumpAtkFailStompSpike
 0006:006A60BD       `typeinfo name for'Btl_AtkBaibaiFlower::PcTeamUpdPcLineMovePartOrdered
 0006:006A60F5       `typeinfo name for'Btl_AtkBaibaiFlower::ChrCmd
 0006:006A6114       `typeinfo name for'Btl_AtkBaibaiFlower::BAPcSolo
 0006:006A6135       `typeinfo name for'Btl_AtkBaibaiFlower::BAMonSolo::UpdaterMonStomp
 0006:006A6168       `typeinfo name for'Btl_AtkBaibaiFlower::BAMonSolo
 0006:006A618A       `typeinfo name for'Btl_AtkBaibaiTaihou::AtkPartMain
 0006:006A61AF       `typeinfo name for'Btl_AtkBaibaiTaihou::AtkPartFinal
 0006:006A61D5       `typeinfo name for'Btl_AtkBaibaiTaihou::AtkPartIntro::UpdaterWaitReadyAtkComp
 0006:006A6214       `typeinfo name for'Btl_AtkBaibaiTaihou::AtkPartIntro::UpdaterWaitLoadCompIntro
 0006:006A6254       `typeinfo name for'Btl_AtkBaibaiTaihou::AtkPartIntro
 0006:006A627A       `typeinfo name for'Btl_AtkBaibaiTaihou::PcSoloUpdJump1st
 0006:006A62A4       `typeinfo name for'Btl_AtkBaibaiTaihou::PcSoloUpdJumpAbort
 0006:006A62D0       `typeinfo name for'Btl_AtkBaibaiTaihou::BAPcTeamUpdAtkReady
 0006:006A62FD       `typeinfo name for'Btl_AtkBaibaiTaihou::PcSoloUpdCannonShoot
 0006:006A632B       `typeinfo name for'Btl_AtkBaibaiTaihou::PcTeamUpdCannonShoot
 0006:006A6359       `typeinfo name for'Btl_AtkBaibaiTaihou::PcTeamUpdJump1stPart
 0006:006A6387       `typeinfo name for'Btl_AtkBaibaiTaihou::PcTeamUpdJump2ndPart
 0006:006A63B5       `typeinfo name for'Btl_AtkBaibaiTaihou::PcSoloUpdJump2ndFinish
 0006:006A63E5       `typeinfo name for'Btl_AtkBaibaiTaihou::PcSoloUpdJump1stSuccess
 0006:006A6416       `typeinfo name for'Btl_AtkBaibaiTaihou::PcSoloUpdJump1stThrough
 0006:006A6447       `typeinfo name for'Btl_AtkBaibaiTaihou::PcSoloUpdJump2ndSuccess
 0006:006A6478       `typeinfo name for'Btl_AtkBaibaiTaihou::PcSoloUpdJumpFailBadTiming
 0006:006A64AC       `typeinfo name for'Btl_AtkBaibaiTaihou::PcSoloUpdJumpFailStompSpike
 0006:006A64E1       `typeinfo name for'Btl_AtkBaibaiTaihou::ChrCmd
 0006:006A6500       `typeinfo name for'Btl_AtkBaibaiTaihou::BAPcSolo
 0006:006A6521       `typeinfo name for'Btl_AtkBaibaiTaihou::BAMonSolo
 0006:006A6543       `typeinfo name for'Btl_AtkAchichiFlower::AtkPartIMF
 0006:006A6568       `typeinfo name for'Btl_AtkAchichiFlower::AtkPartMain
 0006:006A658E       `typeinfo name for'Btl_AtkAchichiFlower::AtkPartFinal
 0006:006A65B5       `typeinfo name for'Btl_AtkAchichiFlower::AtkPartIntro::UpdaterWaitReadyAtkComp
 0006:006A65F5       `typeinfo name for'Btl_AtkAchichiFlower::AtkPartIntro::UpdaterWaitLoadCompIntro
 0006:006A6636       `typeinfo name for'Btl_AtkAchichiFlower::AtkPartIntro
 0006:006A665D       `typeinfo name for'Btl_AtkAchichiFlower::BASceneNormal
 0006:006A6685       `typeinfo name for'Btl_AtkAchichiFlower::SceneUpdAtkEnter
 0006:006A66B0       `typeinfo name for'Btl_AtkAchichiFlower::SceneUpdAtkExtend
 0006:006A66DC       `typeinfo name for'Btl_AtkAchichiFlower::SceneUpdAtkFinish
 0006:006A6708       `typeinfo name for'Btl_AtkAchichiFlower::SceneUpdAtkNormal
 0006:006A6734       `typeinfo name for'Btl_AtkAchichiFlower::MonSoloUpdFireMove
 0006:006A6761       `typeinfo name for'Btl_AtkAchichiFlower::MonSoloUpdFireBurst
 0006:006A678F       `typeinfo name for'Btl_AtkAchichiFlower::MonTeamUpdFireBurst
 0006:006A67BD       `typeinfo name for'Btl_AtkAchichiFlower::PcSoloUpdExtendAppear
 0006:006A67ED       `typeinfo name for'Btl_AtkAchichiFlower::PcSoloUpdFireballBurst
 0006:006A681E       `typeinfo name for'Btl_AtkAchichiFlower::PcSoloUpdFireballThrow
 0006:006A684F       `typeinfo name for'Btl_AtkAchichiFlower::PcSoloUpdFireballGrowth
 0006:006A6881       `typeinfo name for'Btl_AtkAchichiFlower::PcSoloUpdChangeToFireCos
 0006:006A68B4       `typeinfo name for'Btl_AtkAchichiFlower::PcSoloUpdChangeToNormalCos
 0006:006A68E9       `typeinfo name for'Btl_AtkAchichiFlower::ChrCmd
 0006:006A6909       `typeinfo name for'Btl_AtkAchichiFlower::BAScene
 0006:006A692A       `typeinfo name for'Btl_AtkSnipePachinko::AtkPartMain
 0006:006A6950       `typeinfo name for'Btl_AtkSnipePachinko::AtkPartFinal
 0006:006A6977       `typeinfo name for'Btl_AtkSnipePachinko::AtkPartIntro::UpdaterWaitReadyAtkComp
 0006:006A69B7       `typeinfo name for'Btl_AtkSnipePachinko::AtkPartIntro::UpdaterWaitLoadCompIntro
 0006:006A69F8       `typeinfo name for'Btl_AtkSnipePachinko::AtkPartIntro
 0006:006A6A1F       `typeinfo name for'Btl_AtkSnipePachinko::AtkPartTotal
 0006:006A6A46       `typeinfo name for'Btl_AtkSnipePachinko::BASceneUpdAtkReady
 0006:006A6A73       `typeinfo name for'Btl_AtkSnipePachinko::BAMonUpdDamageSmash
 0006:006A6AA1       `typeinfo name for'Btl_AtkSnipePachinko::BAMonUpdDamageNormal
 0006:006A6AD0       `typeinfo name for'Btl_AtkSnipePachinko::BASceneUpdAtkCharging
 0006:006A6B00       `typeinfo name for'Btl_AtkSnipePachinko::BASceneUpdAtkTargeting
 0006:006A6B31       `typeinfo name for'Btl_AtkSnipePachinko::BASceneUpdAtkClashFloor
 0006:006A6B63       `typeinfo name for'Btl_AtkSnipePachinko::BASceneUpdAtkPostHitMon
 0006:006A6B95       `typeinfo name for'Btl_AtkSnipePachinko::BASceneUpdAtkLostStamina
 0006:006A6BC8       `typeinfo name for'Btl_AtkSnipePachinko::BASceneUpdAtkShootHitStop
 0006:006A6BFC       `typeinfo name for'Btl_AtkSnipePachinko::BASceneUpdAtkShootPiercing
 0006:006A6C31       `typeinfo name for'Btl_AtkSnipePachinko::BASceneUpdAtkPachinkoBeltSpringExp
 0006:006A6C6E       `typeinfo name for'Btl_AtkSnipePachinko::ChrCmd
 0006:006A6C8E       `typeinfo name for'Btl_AtkSnipePachinko::BAScene
 0006:006A6CAF       `typeinfo name for'Btl_AtkSnipePachinko::BAPcTeam
 0006:006A6CD1       `typeinfo name for'Btl_AtkSnipePachinko::BAMonSolo
 0006:006A6CF4       `typeinfo name for'Btl_AtkSnipePachinko::BAMonTeam
 0006:006A6D17       `typeinfo name for'Btl_AtkStarRocketChallenge::BAPcBooter
 0006:006A6D42       `typeinfo name for'Btl_AtkStarRocketChallenge::AtkPartMain
 0006:006A6D6E       `typeinfo name for'Btl_AtkStarRocketChallenge::BAPcPartner
 0006:006A6D9A       `typeinfo name for'Btl_AtkStarRocketChallenge::AtkPartFinal
 0006:006A6DC7       `typeinfo name for'Btl_AtkStarRocketChallenge::AtkPartIntro::UpdaterWaitReadyAtkComp
 0006:006A6E0D       `typeinfo name for'Btl_AtkStarRocketChallenge::AtkPartIntro
 0006:006A6E3A       `typeinfo name for'Btl_AtkStarRocketChallenge::AtkPartTotal
 0006:006A6E67       `typeinfo name for'Btl_AtkStarRocketChallenge::BASceneUpdAtkReady
 0006:006A6E9A       `typeinfo name for'Btl_AtkStarRocketChallenge::BASceneUpdAtkClashFloor
 0006:006A6ED2       `typeinfo name for'Btl_AtkStarRocketChallenge::BASceneUpdAtkCtrlRocket
 0006:006A6F0A       `typeinfo name for'Btl_AtkStarRocketChallenge::BASceneUpdAtkEmptyEnergy
 0006:006A6F43       `typeinfo name for'Btl_AtkStarRocketChallenge::BASceneUpdAtkClashDamageBalloon
 0006:006A6F83       `typeinfo name for'Btl_AtkStarRocketChallenge::BASceneUpdAtkFinishCounterStopped
 0006:006A6FC5       `typeinfo name for'Btl_AtkStarRocketChallenge::ChrCmd
 0006:006A6FEB       `typeinfo name for'Btl_AtkStarRocketChallenge::BAScene
 0006:006A7012       `typeinfo name for'Btl_AtkStarRocketChallenge::BAPcSolo
 0006:006A703A       `typeinfo name for'Btl_AtkStarRocketChallenge::BAPcTeam
 0006:006A7062       `typeinfo name for'Btl_AtkFuechauBallChallenge::AtkPartIMF
 0006:006A708E       `typeinfo name for'Btl_AtkFuechauBallChallenge::CommonData
 0006:006A70BA       `typeinfo name for'Btl_AtkFuechauBallChallenge::AtkPartMain
 0006:006A70E7       `typeinfo name for'Btl_AtkFuechauBallChallenge::BAColObject
 0006:006A7114       `typeinfo name for'Btl_AtkFuechauBallChallenge::AtkPartFinal
 0006:006A7142       `typeinfo name for'Btl_AtkFuechauBallChallenge::AtkPartIntro::UpdaterWaitReadyAtkComp
 0006:006A7189       `typeinfo name for'Btl_AtkFuechauBallChallenge::AtkPartIntro
 0006:006A71B7       `typeinfo name for'Btl_AtkFuechauBallChallenge::BABallSingle
 0006:006A71E5       `typeinfo name for'Btl_AtkFuechauBallChallenge::BASceneUpdReady
 0006:006A7216       `typeinfo name for'Btl_AtkFuechauBallChallenge::BASceneUpdMainAtk
 0006:006A7249       `typeinfo name for'Btl_AtkFuechauBallChallenge::BABallSingleUpdater
 0006:006A727E       `typeinfo name for'Btl_AtkFuechauBallChallenge::BASceneUpdWaitActive
 0006:006A72B4       `typeinfo name for'Btl_AtkFuechauBallChallenge::BABallSingleUpdAtkReady
 0006:006A72ED       `typeinfo name for'Btl_AtkFuechauBallChallenge::BABallSingleUpdBallLiner
 0006:006A7327       `typeinfo name for'Btl_AtkFuechauBallChallenge::BABallSingleUpdStepQueue
 0006:006A7361       `typeinfo name for'Btl_AtkFuechauBallChallenge::BABallSingleUpdBallVanish
 0006:006A739C       `typeinfo name for'Btl_AtkFuechauBallChallenge::BABallSingleUpdAppearQueue
 0006:006A73D8       `typeinfo name for'Btl_AtkFuechauBallChallenge::BABallSingleUpdBallThrowed
 0006:006A7414       `typeinfo name for'Btl_AtkFuechauBallChallenge::BABallSingleUpdBallThrowedHidden
 0006:006A7456       `typeinfo name for'Btl_AtkFuechauBallChallenge::BABallSingleUpdBallThrowedNormal
 0006:006A7498       `typeinfo name for'Btl_AtkFuechauBallChallenge::BABallSingleUpdBallThrowedTimeStop
 0006:006A74DC       `typeinfo name for'Btl_AtkFuechauBallChallenge::ChrCmd
 0006:006A7503       `typeinfo name for'Btl_AtkFuechauBallChallenge::BAPcSolo
 0006:006A752C       `typeinfo name for'Btl_AtkFuechauBallChallenge::BAPcTeam
 0006:006A7555       `typeinfo name for'Btl_AtkFuechauBallChallenge::BABallSet
 0006:006A757F       `typeinfo name for'Btl_AtkFuechauBallChallenge::BAMonSolo
 0006:006A75A9       `typeinfo name for'Btl_AtkFuechauBallChallenge::BAMonTeam
 0006:006A75D3       `typeinfo name for'Btl_AtkBaibaiTaihouChallenge::AtkPartMain
 0006:006A7601       `typeinfo name for'Btl_AtkBaibaiTaihouChallenge::AtkPartFinal
 0006:006A7630       `typeinfo name for'Btl_AtkBaibaiTaihouChallenge::AtkPartIntro::UpdaterWaitReadyAtkComp
 0006:006A7678       `typeinfo name for'Btl_AtkBaibaiTaihouChallenge::AtkPartIntro
 0006:006A76A7       `typeinfo name for'Btl_AtkBaibaiTaihouChallenge::PcSoloUpdJump1st
 0006:006A76DA       `typeinfo name for'Btl_AtkBaibaiTaihouChallenge::PcSoloUpdJumpAbort
 0006:006A770F       `typeinfo name for'Btl_AtkBaibaiTaihouChallenge::BAPcTeamUpdAtkReady
 0006:006A7745       `typeinfo name for'Btl_AtkBaibaiTaihouChallenge::PcSoloUpdCannonShoot
 0006:006A777C       `typeinfo name for'Btl_AtkBaibaiTaihouChallenge::PcTeamUpdCannonShoot
 0006:006A77B3       `typeinfo name for'Btl_AtkBaibaiTaihouChallenge::PcTeamUpdJump1stPart
 0006:006A77EA       `typeinfo name for'Btl_AtkBaibaiTaihouChallenge::PcTeamUpdJump2ndPart
 0006:006A7821       `typeinfo name for'Btl_AtkBaibaiTaihouChallenge::PcSoloUpdAtkFailRetry
 0006:006A7859       `typeinfo name for'Btl_AtkBaibaiTaihouChallenge::PcTeamUpdAtkFailRetry
 0006:006A7891       `typeinfo name for'Btl_AtkBaibaiTaihouChallenge::PcSoloUpdJump2ndFinish
 0006:006A78CA       `typeinfo name for'Btl_AtkBaibaiTaihouChallenge::PcSoloUpdJump1stSuccess
 0006:006A7904       `typeinfo name for'Btl_AtkBaibaiTaihouChallenge::PcSoloUpdJump1stThrough
 0006:006A793E       `typeinfo name for'Btl_AtkBaibaiTaihouChallenge::PcSoloUpdJump2ndSuccess
 0006:006A7978       `typeinfo name for'Btl_AtkBaibaiTaihouChallenge::PcTeamUpdAtkRetrySeqSkip
 0006:006A79B3       `typeinfo name for'Btl_AtkBaibaiTaihouChallenge::PcSoloUpdJumpFailBadTiming
 0006:006A79F0       `typeinfo name for'Btl_AtkBaibaiTaihouChallenge::ChrCmd
 0006:006A7A18       `typeinfo name for'Btl_AtkBaibaiTaihouChallenge::BAPcSolo
 0006:006A7A42       `typeinfo name for'Btl_AtkBaibaiTaihouChallenge::BAMonSolo
 0006:006A7A6D       `typeinfo name for'Btl_AtkAchichiFlowerChallenge::AtkPartIMF
 0006:006A7A9B       `typeinfo name for'Btl_AtkAchichiFlowerChallenge::AtkPartMain
 0006:006A7ACA       `typeinfo name for'Btl_AtkAchichiFlowerChallenge::AtkPartFinal
 0006:006A7AFA       `typeinfo name for'Btl_AtkAchichiFlowerChallenge::AtkPartIntro::UpdaterWaitReadyAtkComp
 0006:006A7B43       `typeinfo name for'Btl_AtkAchichiFlowerChallenge::AtkPartIntro
 0006:006A7B73       `typeinfo name for'Btl_AtkAchichiFlowerChallenge::SceneUpdAtkEnter
 0006:006A7BA7       `typeinfo name for'Btl_AtkAchichiFlowerChallenge::SceneUpdAtkExtend
 0006:006A7BDC       `typeinfo name for'Btl_AtkAchichiFlowerChallenge::SceneUpdAtkFinish
 0006:006A7C11       `typeinfo name for'Btl_AtkAchichiFlowerChallenge::SceneUpdAtkNormal
 0006:006A7C46       `typeinfo name for'Btl_AtkAchichiFlowerChallenge::MonSoloUpdFireMove
 0006:006A7C7C       `typeinfo name for'Btl_AtkAchichiFlowerChallenge::MonSoloUpdFireBurst
 0006:006A7CB3       `typeinfo name for'Btl_AtkAchichiFlowerChallenge::PcSoloUpdExtendAppear
 0006:006A7CEC       `typeinfo name for'Btl_AtkAchichiFlowerChallenge::RefCounterSlowAtkMode
 0006:006A7D25       `typeinfo name for'Btl_AtkAchichiFlowerChallenge::PcSoloUpdFireballBurst
 0006:006A7D5F       `typeinfo name for'Btl_AtkAchichiFlowerChallenge::PcSoloUpdFireballThrow
 0006:006A7D99       `typeinfo name for'Btl_AtkAchichiFlowerChallenge::PcSoloUpdFireballGrowth
 0006:006A7DD4       `typeinfo name for'Btl_AtkAchichiFlowerChallenge::PcSoloUpdChangeToFireCos
 0006:006A7E10       `typeinfo name for'Btl_AtkAchichiFlowerChallenge::PcSoloUpdChangeToNormalCos
 0006:006A7E4E       `typeinfo name for'Btl_AtkAchichiFlowerChallenge::ChrCmd
 0006:006A7E77       `typeinfo name for'Btl_AtkSnipePachinkoChallenge::AtkPartMain
 0006:006A7EA6       `typeinfo name for'Btl_AtkSnipePachinkoChallenge::AtkPartFinal
 0006:006A7ED6       `typeinfo name for'Btl_AtkSnipePachinkoChallenge::AtkPartIntro::UpdaterWaitReadyAtkComp
 0006:006A7F1F       `typeinfo name for'Btl_AtkSnipePachinkoChallenge::AtkPartIntro
 0006:006A7F4F       `typeinfo name for'Btl_AtkSnipePachinkoChallenge::AtkPartTotal
 0006:006A7F7F       `typeinfo name for'Btl_AtkSnipePachinkoChallenge::BASceneUpdAtkReady
 0006:006A7FB5       `typeinfo name for'Btl_AtkSnipePachinkoChallenge::BASceneUpdAtkCharging
 0006:006A7FEE       `typeinfo name for'Btl_AtkSnipePachinkoChallenge::BASceneUpdAtkTargeting
 0006:006A8028       `typeinfo name for'Btl_AtkSnipePachinkoChallenge::BASceneUpdAtkClashFloor
 0006:006A8063       `typeinfo name for'Btl_AtkSnipePachinkoChallenge::BASceneUpdAtkPostHitMon
 0006:006A809E       `typeinfo name for'Btl_AtkSnipePachinkoChallenge::BASceneUpdRetrySequence
 0006:006A80D9       `typeinfo name for'Btl_AtkSnipePachinkoChallenge::BASceneUpdAtkLostStamina
 0006:006A8115       `typeinfo name for'Btl_AtkSnipePachinkoChallenge::BASceneUpdAtkShootHitStop
 0006:006A8152       `typeinfo name for'Btl_AtkSnipePachinkoChallenge::BtlObjUIRenderKeyOverride
 0006:006A818F       `typeinfo name for'Btl_AtkSnipePachinkoChallenge::BASceneUpdAtkShootPiercing
 0006:006A81CD       `typeinfo name for'Btl_AtkSnipePachinkoChallenge::BASceneUpdAtkPachinkoBeltSpringExp
 0006:006A8213       `typeinfo name for'Btl_AtkSnipePachinkoChallenge::ChrCmd
 0006:006A823C       `typeinfo name for'Btl_AtkSnipePachinkoChallenge::BAScene
 0006:006A8266       `typeinfo name for'Btl_AtkSnipePachinkoChallenge::BAPcTeam
 0006:006A8291       `typeinfo name for'Btl_AtkSnipePachinkoChallenge::BAMonSolo
 0006:006A82BD       `typeinfo name for'Btl_AtkSnipePachinkoChallenge::BAMonTeam
 0006:006A82E9       `typeinfo name for'MB::StateIntro
 0006:006A82FB       `typeinfo name for'MB::StateFinalize
 0006:006A8310       `typeinfo name for'MB::yaUt::BtlColRead
 0006:006A8327       `typeinfo name for'MB::yaUt::PhysicsObj
 0006:006A833E       `typeinfo name for'MB::yaUt::OBBCollider
 0006:006A8356       `typeinfo name for'MB::yaUt::ProcessBase
 0006:006A836E       `typeinfo name for'MB::yaUt::AABBCollider
 0006:006A8387       `typeinfo name for'MB::yaUt::CollisionFunc
 0006:006A83A1       `typeinfo name for'MB::yaUt::SphereCollider
 0006:006A83BC       `typeinfo name for'MB::yaUt::MiracleAtkIntro_Move
 0006:006A83DD       `typeinfo name for'MB::yaUt::MiracleAtkIntro_HoistLuigi
 0006:006A8404       `typeinfo name for'MB::yaUt::MiracleAtkIntro_ThrowLuigi
 0006:006A842B       `typeinfo name for'MB::yaUt::MiracleAtkIntro_AttachUnitDfx
 0006:006A8455       `typeinfo name for'MB::yaUt::ObjBase
 0006:006A8468       `typeinfo name for'MB::yaUt::LinkNode
 0006:006A847C       `typeinfo name for'MB::yaUt::ICollider
 0006:006A8491       `typeinfo name for'MB::StateMain
 0006:006A84A1       `typeinfo name for'MF::StateIntro
 0006:006A84B3       `typeinfo name for'MF::StateFinalize
 0006:006A84C8       `typeinfo name for'MF::BtlPcAtkMiracleFire
 0006:006A84E3       `typeinfo name for'MF::yaUt::PhysicsObj
 0006:006A84FA       `typeinfo name for'MF::yaUt::ProcessBase
 0006:006A8512       `typeinfo name for'MF::yaUt::AABBCollider
 0006:006A852B       `typeinfo name for'MF::yaUt::SphereCollider
 0006:006A8546       `typeinfo name for'MF::yaUt::MiracleAtkIntro_Fade
 0006:006A8567       `typeinfo name for'MF::yaUt::IMiracleAtkIntro_Fade
 0006:006A8589       `typeinfo name for'MF::yaUt::MiracleAtkIntro_HoistLuigi
 0006:006A85B0       `typeinfo name for'MF::yaUt::MiracleAtkIntro_ThrowLuigi
 0006:006A85D7       `typeinfo name for'MF::yaUt::MiracleAtkIntro_AttachUnitDfx
 0006:006A8601       `typeinfo name for'MF::yaUt::ObjBase
 0006:006A8614       `typeinfo name for'MF::yaUt::LinkNode
 0006:006A8628       `typeinfo name for'MF::yaUt::ICollider
 0006:006A863D       `typeinfo name for'MF::ObjMon
 0006:006A864A       `typeinfo name for'MF::Resource
 0006:006A8659       `typeinfo name for'MF::StateMain
 0006:006A8669       `typeinfo name for'MH::StateIntro
 0006:006A867B       `typeinfo name for'MH::LuigiHammer::StateBound
 0006:006A869A       `typeinfo name for'MH::LuigiHammer::StateSwing
 0006:006A86B9       `typeinfo name for'MH::LuigiHammer::StateThrow
 0006:006A86D8       `typeinfo name for'MH::LuigiHammer::StateDelete
 0006:006A86F8       `typeinfo name for'MH::LuigiHammer::StateKuzure
 0006:006A8718       `typeinfo name for'MH::LuigiHammer::StateFurikaburi
 0006:006A873C       `typeinfo name for'MH::LuigiHammer::StateMakeHammer
 0006:006A8760       `typeinfo name for'MH::StateFinalize
 0006:006A8775       `typeinfo name for'MH::yaUt::BtlColRead
 0006:006A878C       `typeinfo name for'MH::yaUt::PhysicsObj
 0006:006A87A3       `typeinfo name for'MH::yaUt::ProcessBase
 0006:006A87BB       `typeinfo name for'MH::yaUt::MiracleAtkIntro_Move
 0006:006A87DC       `typeinfo name for'MH::yaUt::MiracleAtkIntro_HoistLuigi
 0006:006A8803       `typeinfo name for'MH::yaUt::MiracleAtkIntro_ThrowLuigi
 0006:006A882A       `typeinfo name for'MH::yaUt::MiracleAtkIntro_AttachUnitDfx
 0006:006A8854       `typeinfo name for'MH::yaUt::State<MH::LuigiHammer>
 0006:006A8878       `typeinfo name for'MH::yaUt::State<MH::ObjCam>
 0006:006A8896       `typeinfo name for'MH::yaUt::State<MH::ObjMario::MarioHammer>
 0006:006A88C3       `typeinfo name for'MH::yaUt::State<MH::ObjMario::Move>
 0006:006A88E8       `typeinfo name for'MH::yaUt::ObjBase
 0006:006A88FB       `typeinfo name for'MH::yaUt::LinkNode
 0006:006A890F       `typeinfo name for'MH::AtkCmd
 0006:006A891C       `typeinfo name for'MH::ObjCam::StateGoHome
 0006:006A8936       `typeinfo name for'MH::ObjCam::StateAutoMove
 0006:006A8952       `typeinfo name for'MH::ObjCam::StateCompress
 0006:006A896E       `typeinfo name for'MH::ObjCam::StateSwingFall
 0006:006A898B       `typeinfo name for'MH::ObjCam::StateSwingJump
 0006:006A89A8       `typeinfo name for'MH::ObjCam::StateMakeHammer
 0006:006A89C6       `typeinfo name for'MH::ObjMon
 0006:006A89D3       `typeinfo name for'MH::ObjMario::MarioHammer::StateSwing
 0006:006A89FB       `typeinfo name for'MH::ObjMario::MarioHammer::StateThrow
 0006:006A8A23       `typeinfo name for'MH::ObjMario::MarioHammer::StateYuragi
 0006:006A8A4C       `typeinfo name for'MH::ObjMario::MarioHammer::StateBalance
 0006:006A8A76       `typeinfo name for'MH::ObjMario::MarioHammer::StateAutoMove
 0006:006A8AA1       `typeinfo name for'MH::ObjMario::MarioHammer::StateFurikaburi
 0006:006A8ACE       `typeinfo name for'MH::ObjMario::MarioHammer::StateSwingExcellent
 0006:006A8AFF       `typeinfo name for'MH::ObjMario::MarioHammer::StateHit
 0006:006A8B24       `typeinfo name for'MH::ObjMario::MarioHammer::StateJump
 0006:006A8B4A       `typeinfo name for'MH::ObjMario::Move::StateAutoDash
 0006:006A8B6D       `typeinfo name for'MH::ObjMario::Move::StateMakeHammer
 0006:006A8B92       `typeinfo name for'MH::Resource
 0006:006A8BA1       `typeinfo name for'MH::ShockWave
 0006:006A8BB1       `typeinfo name for'MH::StateMain
 0006:006A8BC1       `typeinfo name for'MT::yaUt::ProcessBase
 0006:006A8BD9       `typeinfo name for'MT::yaUt::MiracleAtkIntro_Move
 0006:006A8BFA       `typeinfo name for'MT::yaUt::MiracleAtkIntro_HoistLuigi
 0006:006A8C21       `typeinfo name for'MT::yaUt::MiracleAtkIntro_ThrowLuigi
 0006:006A8C48       `typeinfo name for'MT::yaUt::MiracleAtkIntro_AttachUnitDfx
 0006:006A8C72       `typeinfo name for'MT::yaUt::LinkNode
 0006:006A8C86       `typeinfo name for'MV::BtlPcAtkMiracleVolcano
 0006:006A8CA4       `typeinfo name for'nn::fs::FileStream
 0006:006A8CB9       `typeinfo name for'nn::fs::IInputStream
 0006:006A8CD0       `typeinfo name for'nn::fs::IOutputStream
 0006:006A8CE8       `typeinfo name for'nn::fs::IPositionable
 0006:006A8D00       `typeinfo name for'nn::fs::FileInputStream
 0006:006A8D1A       `typeinfo name for'nn::fs::CTR::MPCore::detail::IDirectory
 0006:006A8D41       `typeinfo name for'nn::fs::CTR::MPCore::detail::RomFsArchive::File
 0006:006A8D6F       `typeinfo name for'nn::fs::CTR::MPCore::detail::RomFsArchive::Directory
 0006:006A8DA2       `typeinfo name for'nn::fs::CTR::MPCore::detail::RomFsArchive
 0006:006A8DCB       `typeinfo name for'nn::fs::CTR::MPCore::detail::FileServerArchive::File
 0006:006A8DFE       `typeinfo name for'nn::fs::CTR::MPCore::detail::FileServerArchive::Directory
 0006:006A8E36       `typeinfo name for'nn::fs::CTR::MPCore::detail::FileServerArchive
 0006:006A8E64       `typeinfo name for'nn::fs::CTR::MPCore::detail::ContentRomFsArchive
 0006:006A8E94       `typeinfo name for'nn::fs::CTR::MPCore::detail::IFile
 0006:006A8EB5       `typeinfo name for'nn::fs::CTR::MPCore::detail::IArchive
 0006:006A8ED9       `typeinfo name for'nn::fs::detail::FileBaseImpl
 0006:006A8EF7       `typeinfo name for'nn::fs::detail::FileBase
 0006:006A8F10       `typeinfo name for'nn::fs::IStream
 0006:006A8F21       `typeinfo name for'nn::os::LockPolicy::NoLock::LockObject
 0006:006A8F49       `typeinfo name for'nn::os::LockPolicy::Object<nn::os::CriticalSection>::LockObject
 0006:006A8F89       `typeinfo name for'nn::os::WaitObject
 0006:006A8F9E       `typeinfo name for'nn::os::HandleObject
 0006:006A8FB5       `typeinfo name for'nn::os::InterruptEvent
 0006:006A8FCE       `typeinfo name for'nn::os::AutoStackManager
 0006:006A8FE9       `typeinfo name for'nn::os::Thread
 0006:006A8FF9       `typeinfo name for'nn::os::EventBase
 0006:006A900C       `typeinfo name for'nn::ro::Module::EnumerateCallback
 0006:006A902F       `typeinfo name for'nn::fnd::IAllocator
 0006:006A9045       `typeinfo name for'nn::fnd::ExpHeapBase
 0006:006A905C       `typeinfo name for'nn::fnd::UnitHeapBase
 0006:006A9074       `typeinfo name for'nn::fnd::FrameHeapBase
 0006:006A908D       `typeinfo name for'nn::fnd::ExpHeapTemplate<nn::os::LockPolicy::Object<nn::os::CriticalSection>>::Allocator
 0006:006A90E6       `typeinfo name for'nn::fnd::ExpHeapTemplate<nn::os::LockPolicy::Object<nn::os::CriticalSection>>
 0006:006A9135       `typeinfo name for'nn::fnd::UnitHeapTemplate<nn::os::LockPolicy::Object<nn::os::CriticalSection>>
 0006:006A9185       `typeinfo name for'nn::fnd::FrameHeapTemplate<nn::os::LockPolicy::NoLock>
 0006:006A91BE       `typeinfo name for'nn::fnd::IntrusiveLinkedList<nn::fnd::HeapBase,void>::Item
 0006:006A91F3       `typeinfo name for'nn::fnd::IntrusiveLinkedList<nn::srv::NotificationHandler,void>::Item
 0006:006A9237       `typeinfo name for'nn::fnd::HeapBase
 0006:006A924A       `typeinfo name for'nn::hid::CTR::HidBase
 0006:006A9260       `typeinfo name for'nn::hid::CTR::Gyroscope
 0006:006A9278       `typeinfo name for'nn::srv::NotificationHandler
 0006:006A9297       `typeinfo name for'nn::srv::EventNotificationHandlerBase<nn::os::LightEvent>
 0006:006A92D4       `typeinfo name for'nn::ssl::detail::LibManager
 0006:006A92F1       `typeinfo name for'nn::font::ResFontBase
 0006:006A9309       `typeinfo name for'nn::font::Font
 0006:006A9319       `typeinfo name for'nn::font::ResFont
 0006:006A932C       `typeinfo name for'nn::util::ADLFireWall::NonCopyable<nn::fs::FileStream>
 0006:006A9366       `typeinfo name for'nn::util::ADLFireWall::NonCopyable<nn::fs::FileInputStream>
 0006:006A93A5       `typeinfo name for'nn::util::ADLFireWall::NonCopyable<nn::fs::detail::FileBaseImpl>
 0006:006A93E8       `typeinfo name for'nn::util::ADLFireWall::NonCopyable<nn::os::HandleObject>
 0006:006A9424       `typeinfo name for'nn::util::ADLFireWall::NonCopyable<nn::fnd::IntrusiveLinkedList<nn::fnd::HeapBase,void>::Item>
 0006:006A947E       `typeinfo name for'nn::util::ADLFireWall::NonCopyable<nn::fnd::IntrusiveLinkedList<nn::srv::NotificationHandler,void>::Item>
 0006:006A94E7       `typeinfo name for'nn::crypto::Sha256Context
 0006:006A9503       `typeinfo name for'nn::crypto::HashContextBase
 0006:006A9521       `typeinfo name for'nn::crypto::ShaBlock512BitContext
 0006:006A9545       `typeinfo name for'nw::os::IAllocator
 0006:006A955A       `typeinfo name for'nw::lyt::AnimTransform
 0006:006A9573       `typeinfo name for'nw::lyt::ResourceAccessor
 0006:006A958F       `typeinfo name for'nw::lyt::AnimTransformBasic
 0006:006A95AD       `typeinfo name for'nw::lyt::ArcResourceAccessor
 0006:006A95CC       `typeinfo name for'nw::lyt::Pane
 0006:006A95DB       `typeinfo name for'nw::lyt::Group
 0006:006A95EB       `typeinfo name for'nw::lyt::Drawer
 0006:006A95FC       `typeinfo name for'nw::lyt::Layout
 0006:006A960D       `typeinfo name for'nw::lyt::Window
 0006:006A961E       `typeinfo name for'nw::lyt::Picture
 0006:006A9630       `typeinfo name for'nw::lyt::TextBox
 0006:006A9642       `typeinfo name for'nw::lyt::Bounding
 0006:006A9655       `typeinfo name for'nw::lyt::DrawInfo
 0006:006A9668       `typeinfo name for'nw::lyt::Material
 0006:006A967B       `typeinfo name for'nw::lyt::internal::PaneBase
 0006:006A9697       `typeinfo name for'nw::font::RectDrawer
 0006:006A96AE       `typeinfo name for'nw::font::ResFontBase
 0006:006A96C6       `typeinfo name for'nw::font::TagProcessorBase<char>
 0006:006A96E6       `typeinfo name for'nw::font::TagProcessorBase<wchar_t>
 0006:006A9706       `typeinfo name for'nw::font::Font
 0006:006A9716       `typeinfo name for'nw::font::ResFont
 0006:006A9729       `typeinfo name for'Btl::HandleTmpl<BtlDfxUnit>
 0006:006A974A       `typeinfo name for'Btl::HandleTmpl<BtlSndTask>
 0006:006A976B       `typeinfo name for'MSB::MessageObj
 0006:006A977E       `typeinfo name for'MSB::StateIntro
 0006:006A9791       `typeinfo name for'MSB::CamFollow_0
 0006:006A97A5       `typeinfo name for'MSB::CamFollow_1
 0006:006A97B9       `typeinfo name for'MSB::ObjSnowball
 0006:006A97CD       `typeinfo name for'MSB::ObjLuigiGroup
 0006:006A97E3       `typeinfo name for'MSB::StateFinalize
 0006:006A97F9       `typeinfo name for'MSB::SnowballRenderer
 0006:006A9812       `typeinfo name for'MSB::CamFollowBehavior
 0006:006A982C       `typeinfo name for'MSB::ObjUsefullCollider
 0006:006A9847       `typeinfo name for'MSB::BtlPcAtkMiracleSnowball
 0006:006A9867       `typeinfo name for'MSB::yaUt::BtlColRead
 0006:006A987F       `typeinfo name for'MSB::yaUt::PhysicsObj
 0006:006A9897       `typeinfo name for'MSB::yaUt::ProcessBase
 0006:006A98B0       `typeinfo name for'MSB::yaUt::AABBCollider
 0006:006A98CA       `typeinfo name for'MSB::yaUt::CollisionFunc
 0006:006A98E5       `typeinfo name for'MSB::yaUt::SphereCollider
 0006:006A9901       `typeinfo name for'MSB::yaUt::MiracleAtkIntro_Fade
 0006:006A9923       `typeinfo name for'MSB::yaUt::IMiracleAtkIntro_Fade
 0006:006A9946       `typeinfo name for'MSB::yaUt::MiracleAtkIntro_MarioJump
 0006:006A996D       `typeinfo name for'MSB::yaUt::MiracleAtkIntro_HoistLuigi
 0006:006A9995       `typeinfo name for'MSB::yaUt::MiracleAtkIntro_ThrowLuigi
 0006:006A99BD       `typeinfo name for'MSB::yaUt::MiracleAtkIntro_AttachUnitDfx
 0006:006A99E8       `typeinfo name for'MSB::yaUt::ObjBase
 0006:006A99FC       `typeinfo name for'MSB::yaUt::LinkNode
 0006:006A9A11       `typeinfo name for'MSB::yaUt::ICollider
 0006:006A9A27       `typeinfo name for'MSB::ObjCam
 0006:006A9A35       `typeinfo name for'MSB::ObjMon
 0006:006A9A43       `typeinfo name for'MSB::ObjLuigi
 0006:006A9A53       `typeinfo name for'MSB::ObjMario::SECallBack
 0006:006A9A6F       `typeinfo name for'MSB::ObjMario
 0006:006A9A7F       `typeinfo name for'MSB::Resource
 0006:006A9A8F       `typeinfo name for'MSB::StateMain
 0006:006A9AA0       `typeinfo name for'Adsl::Internal::SharedCountP<BtlObjMove>
 0006:006A9ACD       `typeinfo name for'Adsl::Internal::SharedCountP<Btl_AtkStarRocket::BAMonSolo>
 0006:006A9B0D       `typeinfo name for'Adsl::Internal::SharedCountP<Btl_AtkFuechauBall::BAMonSolo>
 0006:006A9B4E       `typeinfo name for'Adsl::Internal::SharedCountP<Btl_AtkAchichiFlower::BAFireball>
 0006:006A9B93       `typeinfo name for'Adsl::Internal::SharedCountP<Btl_AtkAchichiFlower::BAMonSolo>
 0006:006A9BD6       `typeinfo name for'Adsl::Internal::SharedCountP<Btl_AtkFuechauBallChallenge::BAMonSolo>
 0006:006A9C20       `typeinfo name for'Adsl::Internal::SharedCountP<Btl_AtkAchichiFlowerChallenge::BAFireball>
 0006:006A9C6E       `typeinfo name for'Adsl::Internal::SharedCountP<Btl_AtkAchichiFlowerChallenge::BAMonSolo>
 0006:006A9CBA       `typeinfo name for'Adsl::Internal::SharedCountP<Btl_AtkSnipePachinkoChallenge::BAMonSolo>
 0006:006A9D06       `typeinfo name for'Adsl::Internal::SharedCountP<BETPcWin::UIParamDispU>
 0006:006A9D40       `typeinfo name for'Adsl::Internal::SharedCountP<BETPcWin::UIObjectsDispL>
 0006:006A9D7C       `typeinfo name for'Adsl::Internal::SharedCountP<BETPcWin::UIBtlResultDispU>
 0006:006A9DBA       `typeinfo name for'Adsl::Internal::SharedCountP<BETPcWin::UISharedObjectsTuple>
 0006:006A9DFC       `typeinfo name for'Adsl::Internal::SharedCountP<BETPcWin::ObjCA>
 0006:006A9E2E       `typeinfo name for'Adsl::Internal::SharedCountPD<BtlDfxUnit,hoBtlUtil::hoDfxUnitKillFunctor>
 0006:006A9E7E       `typeinfo name for'Adsl::Internal::SharedCountBase
 0006:006A9EA0       `typeinfo name for'Bomb::Hit
 0006:006A9EAC       `typeinfo name for'Bomb::Drop
 0006:006A9EB9       `typeinfo name for'Bomb::Fall
 0006:006A9EC6       `typeinfo name for'Bomb::IState
 0006:006A9ED5       `typeinfo name for'Bomb::Disable
 0006:006A9EE5       `typeinfo name for'Bomb::Expl_Hit
 0006:006A9EF6       `typeinfo name for'Bomb::Expl_Miss
 0006:006A9F08       `typeinfo name for'UITM::MainProcess
 0006:006A9F1D       `typeinfo name for'UITM::AttackMLTask
 0006:006A9F33       `typeinfo name for'UITM::AttackBallTask
 0006:006A9F4B       `typeinfo name for'UITM::MainProcess_Resurrect
 0006:006A9F6A       `typeinfo name for'UITM::MainProcess_ChokkaiBall
 0006:006A9F8B       `typeinfo name for'UITM::MainProcess_BombBoxCommon::Process_ThrowAnm
 0006:006A9FC0       `typeinfo name for'UITM::MainProcess_BombBoxCommon::Process_SecretBox
 0006:006A9FF6       `typeinfo name for'UITM::MainProcess_BombBoxCommon::Process_BikkuriBomb
 0006:006AA02E       `typeinfo name for'UITM::MainProcess_BombBoxCommon
 0006:006AA051       `typeinfo name for'UITM::MainProcess_ResurrectMame
 0006:006AA074       `typeinfo name for'UITM::yaUt::ProcessBase
 0006:006AA08E       `typeinfo name for'UITM::yaUt::LinkNode
 0006:006AA0A4       `typeinfo name for'UITM::EatML
 0006:006AA0B2       `typeinfo name for'UITM::MoveItem
 0006:006AA0C3       `typeinfo name for'UITM::Resource
 0006:006AA0D4       `typeinfo name for'__rw::__rw_facet_base
 0006:006AA0ED       `typeinfo name for'__rw::__rw_punct_data<char>
 0006:006AA109       `typeinfo name for'__rw::__rw_collate_data<char>
 0006:006AA127       `typeinfo name for'__rw::__rw_collate_impl<char>
 0006:006AA145       `typeinfo name for'__rw::__rw_ctype_helper<char>
 0006:006AA163       `typeinfo name for'__rw::__rw_synchronized
 0006:006AA17E       `typeinfo name for'__rw::__rw_numpunct_impl<char>
 0006:006AA19D       `typeinfo name for'__rw::__rw_numpunct_impl_base
 0006:006AA1BE       `typeinfo name for'__rw::__rw_numpunct_impl_data<char>
 0006:006AA1E2       `typeinfo name for'adsl::gfx::AnimObject
 0006:006AA1FA       `typeinfo name for'adsl::gfx::AnimBinding
 0006:006AA213       `typeinfo name for'adsl::gfx::SceneObject
 0006:006AA22C       `typeinfo name for'adsl::gfx::VertexLight
 0006:006AA245       `typeinfo name for'adsl::gfx::AmbientLight
 0006:006AA25F       `typeinfo name for'adsl::gfx::MeshRenderer
 0006:006AA279       `typeinfo name for'adsl::gfx::SceneContext
 0006:006AA293       `typeinfo name for'adsl::gfx::SceneUpdater
 0006:006AA2AD       `typeinfo name for'adsl::gfx::AnimEvaluator
 0006:006AA2C8       `typeinfo name for'adsl::gfx::FragmentLight
 0006:006AA2E3       `typeinfo name for'adsl::gfx::IRenderTarget
 0006:006AA2FE       `typeinfo name for'adsl::gfx::ISceneUpdater
 0006:006AA319       `typeinfo name for'adsl::gfx::ISceneVisitor
 0006:006AA334       `typeinfo name for'adsl::gfx::RenderContext
 0006:006AA34F       `typeinfo name for'adsl::gfx::ShaderProgram
 0006:006AA36A       `typeinfo name for'adsl::gfx::SkeletalModel
 0006:006AA385       `typeinfo name for'adsl::gfx::TransformNode
 0006:006AA3A0       `typeinfo name for'adsl::gfx::SceneTraverser
 0006:006AA3BC       `typeinfo name for'adsl::gfx::OffScreenBuffer
 0006:006AA3D9       `typeinfo name for'adsl::gfx::SceneInitializer
 0006:006AA3F7       `typeinfo name for'adsl::gfx::StandardSkeleton
 0006:006AA415       `typeinfo name for'adsl::gfx::BaseAnimEvaluator
 0006:006AA434       `typeinfo name for'adsl::gfx::CameraViewUpdater
 0006:006AA453       `typeinfo name for'adsl::gfx::MaterialActivator
 0006:006AA472       `typeinfo name for'adsl::gfx::RotateViewUpdater
 0006:006AA491       `typeinfo name for'adsl::gfx::IMaterialActivator
 0006:006AA4B1       `typeinfo name for'adsl::gfx::AimTargetViewUpdater
 0006:006AA4D3       `typeinfo name for'adsl::gfx::AnimBlendOpTransform
 0006:006AA4F5       `typeinfo name for'adsl::gfx::IMaterialIdGenerator
 0006:006AA517       `typeinfo name for'adsl::gfx::TransformAnimBlendOp
 0006:006AA539       `typeinfo name for'adsl::gfx::OrthoProjectionUpdater
 0006:006AA55D       `typeinfo name for'adsl::gfx::TransformAnimEvaluator
 0006:006AA581       `typeinfo name for'adsl::gfx::CameraProjectionUpdater
 0006:006AA5A6       `typeinfo name for'adsl::gfx::LookAtTargetViewUpdater
 0006:006AA5CB       `typeinfo name for'adsl::gfx::SceneEnvironmentSetting
 0006:006AA5F0       `typeinfo name for'adsl::gfx::SimpleMaterialActivator
 0006:006AA615       `typeinfo name for'adsl::gfx::FrustumProjectionUpdater
 0006:006AA63B       `typeinfo name for'adsl::gfx::TransformAnimBlendOpQuat
 0006:006AA661       `typeinfo name for'adsl::gfx::SortingMaterialIdGenerator
 0006:006AA689       `typeinfo name for'adsl::gfx::PerspectiveProjectionUpdater
 0006:006AA6B3       `typeinfo name for'adsl::gfx::TransformAnimBlendOpAccScale
 0006:006AA6DD       `typeinfo name for'adsl::gfx::TransformAnimBlendOpStandard
 0006:006AA707       `typeinfo name for'adsl::gfx::TransformAnimBlendOpAccScaleQuat
 0006:006AA735       `typeinfo name for'adsl::gfx::Fog
 0006:006AA745       `typeinfo name for'adsl::gfx::Light
 0006:006AA757       `typeinfo name for'adsl::gfx::Model
 0006:006AA769       `typeinfo name for'adsl::gfx::Camera
 0006:006AA77C       `typeinfo name for'adsl::gfx::LightSet
 0006:006AA791       `typeinfo name for'adsl::gfx::Material
 0006:006AA7A6       `typeinfo name for'adsl::gfx::Skeleton
 0006:006AA7BB       `typeinfo name for'adsl::gfx::AnimGroup
 0006:006AA7D1       `typeinfo name for'adsl::gfx::GfxObject
 0006:006AA7E7       `typeinfo name for'adsl::gfx::SceneNode
 0006:006AA7FD       `typeinfo name for'adsl::anim::AnimResult
 0006:006AA816       `typeinfo name for'adsl::anim::AnimBlendOp
 0006:006AA830       `typeinfo name for'adsl::anim::AnimBlendOpInt
 0006:006AA84D       `typeinfo name for'adsl::anim::AnimBlendOpBool
 0006:006AA86B       `typeinfo name for'adsl::anim::AnimBlendOpFloat
 0006:006AA88A       `typeinfo name for'adsl::anim::AnimBlendOpTexture
 0006:006AA8AB       `typeinfo name for'adsl::anim::AnimBlendOpVector2
 0006:006AA8CC       `typeinfo name for'adsl::anim::AnimBlendOpVector3
 0006:006AA8ED       `typeinfo name for'adsl::anim::AnimFrameController
 0006:006AA90F       `typeinfo name for'adsl::anim::AnimBlendOpRgbaColor
 0006:006AA932       `typeinfo name for'adsl::anim::AnimFrame
 0006:006AA949       `typeinfo name for'yaUt::IMsgReceivable
 0006:006AA961       `typeinfo name for'yaUt::MsgReciverProxy
 0006:006AA97A       `typeinfo name for'yaUt::IBtlAtkStateTmpl<BtlAtkMJLuigi>
 0006:006AA9A5       `typeinfo name for'yaUt::IBtlAtkStateTmpl<BtlAtkMJMario>
 0006:006AA9D0       `typeinfo name for'yaUt::IBtlAtkStateTmpl<yaLuigiBoxWorld>
 0006:006AA9FD       `typeinfo name for'yaUt::IBtlAtkStateTmpl<BtlPcAtkMidoriKoura>
 0006:006AAA2E       `typeinfo name for'yaUt::IBtlAtkStateTmpl<BtlPcAtkMiracleBall>
 0006:006AAA5F       `typeinfo name for'yaUt::IBtlAtkStateTmpl<BtlPcAtkMiracleTornado>
 0006:006AAA93       `typeinfo name for'yaUt::IBtlAtkStateTmpl<BtlMDPC>
 0006:006AAAB7       `typeinfo name for'yaUt::IBtlAtkStateTmpl<MDCHALLENGE::AtkCmd>
 0006:006AAAE9       `typeinfo name for'yaUt::IBtlAtkStateTmpl<FLCCHALLENGE::AtkCmd>
 0006:006AAB1C       `typeinfo name for'yaUt::IBtlAtkStateTmpl<MRBCHALLENGE::AtkCmd>
 0006:006AAB4F       `typeinfo name for'yaUt::IBtlAtkStateTmpl<MF::BtlPcAtkMiracleFire>
 0006:006AAB85       `typeinfo name for'yaUt::IBtlAtkStateTmpl<MH::AtkCmd>
 0006:006AABAD       `typeinfo name for'yaUt::IBtlAtkStateTmpl<MSB::BtlPcAtkMiracleSnowball>
 0006:006AABE8       `typeinfo name for'yaUt::IBtlAtkStateTmplMsg<BtlAtkMJCam>
 0006:006AAC14       `typeinfo name for'yaUt::IBtlAtkStateTmplMsg<BTLFLC::Task_GameManager>
 0006:006AAC4E       `typeinfo name for'yaUt::IBtlStateAccessorTmpl<BtlChr>
 0006:006AAC76       `typeinfo name for'yaUt::IBtlStateAccessorTmpl<BtlMDPC>
 0006:006AAC9F       `typeinfo name for'yaUt::ITask
 0006:006AACAD       `typeinfo name for'BTLMJ::StompTaskCallback
 0006:006AACC9       `typeinfo name for'BTLMJ::yaUt::ProcessBase
 0006:006AACE4       `typeinfo name for'BTLMJ::yaUt::AABBCollider
 0006:006AAD00       `typeinfo name for'BTLMJ::yaUt::MiracleAtkIntro_Fade
 0006:006AAD24       `typeinfo name for'BTLMJ::yaUt::IMiracleAtkIntro_Fade
 0006:006AAD49       `typeinfo name for'BTLMJ::yaUt::MiracleAtkIntro_MarioJump
 0006:006AAD72       `typeinfo name for'BTLMJ::yaUt::MiracleAtkIntro_HoistLuigi
 0006:006AAD9C       `typeinfo name for'BTLMJ::yaUt::MiracleAtkIntro_ThrowLuigi
 0006:006AADC6       `typeinfo name for'BTLMJ::yaUt::MiracleAtkIntro_AttachUnitDfx
 0006:006AADF3       `typeinfo name for'BTLMJ::yaUt::LinkNode
 0006:006AAE0A       `typeinfo name for'BTLMJ::yaUt::ICollider
 0006:006AAE22       `typeinfo name for'Badge::ObjBtnBase
 0006:006AAE37       `typeinfo name for'Badge::ObjConfirm
 0006:006AAE4C       `typeinfo name for'Badge::ObjECSumPt
 0006:006AAE61       `typeinfo name for'Badge::ObjMsgBase
 0006:006AAE76       `typeinfo name for'Badge::DfxWrapBase
 0006:006AAE8C       `typeinfo name for'Badge::ObjActMeter
 0006:006AAEA2       `typeinfo name for'Badge::ObjECPlusPt
 0006:006AAEB8       `typeinfo name for'Badge::ObjPrimBase
 0006:006AAECE       `typeinfo name for'Badge::ObjSelBadge
 0006:006AAEE4       `typeinfo name for'Badge::ObjAtkExpImg
 0006:006AAEFB       `typeinfo name for'Badge::ObjAtkExpMsg
 0006:006AAF12       `typeinfo name for'Badge::ObjStockBase
 0006:006AAF29       `typeinfo name for'Badge::ObjBtnOverlay
 0006:006AAF41       `typeinfo name for'Badge::ObjNumPnlBase
 0006:006AAF59       `typeinfo name for'Badge::ObjStockPanel
 0006:006AAF71       `typeinfo name for'Badge::ObjBadgeEffMsg
 0006:006AAF8A       `typeinfo name for'Badge::ObjBadgeEffPopup
 0006:006AAFA5       `typeinfo name for'Badge::ObjECDetailWindow
 0006:006AAFC1       `typeinfo name for'Badge::ChgScrCallbackBase
 0006:006AAFDE       `typeinfo name for'Badge::ExecBadgeEffCallbackBase
 0006:006AB001       `typeinfo name for'Badge::ObjBg
 0006:006AB010       `typeinfo name for'Badge::ObjBase
 0006:006AB021       `typeinfo name for'Badge::ObjList
 0006:006AB032       `typeinfo name for'Badge::ObjStock
 0006:006AB044       `typeinfo name for'Badge::DfxHandle
 0006:006AB057       `typeinfo name for'Badge::ObjECList::ListWnd
 0006:006AB072       `typeinfo name for'Badge::ObjECList
 0006:006AB085       `typeinfo name for'BtlFS::FileUnit
 0006:006AB097       `typeinfo name for'BtlFS::FReadUnit
 0006:006AB0AA       `typeinfo name for'BtlPc::SpEffActHpLimit
 0006:006AB0C4       `typeinfo name for'BtlPc::SpEffActLuckyTime
 0006:006AB0E0       `typeinfo name for'BtlPc::SpEffActGhostCookie
 0006:006AB0FE       `typeinfo name for'BtlPc::SpEffActLuckyChance
 0006:006AB11C       `typeinfo name for'BTLFLC::FlcResource
 0006:006AB133       `typeinfo name for'BTLFLC::SyncObjTask
 0006:006AB14A       `typeinfo name for'BTLFLC::SyncPosTask
 0006:006AB161       `typeinfo name for'BTLFLC::Task_Target::DmgStompEnd
 0006:006AB185       `typeinfo name for'BTLFLC::Task_Target
 0006:006AB19C       `typeinfo name for'BTLFLC::Task_ShockWave
 0006:006AB1B6       `typeinfo name for'BTLFLC::Task_GameManager
 0006:006AB1D2       `typeinfo name for'BTLFLC::GameManager_Intro
 0006:006AB1EF       `typeinfo name for'BTLFLC::MLControllTask_Spin
 0006:006AB20E       `typeinfo name for'BTLFLC::GameManager_Game_LV1
 0006:006AB22E       `typeinfo name for'BTLFLC::GameManager_Game_LV2
 0006:006AB24E       `typeinfo name for'BTLFLC::MLControllTask_GoHome
 0006:006AB26F       `typeinfo name for'BTLFLC::Task_AttackTerminater
 0006:006AB290       `typeinfo name for'BTLFLC::MLControllTask_Futtobi
 0006:006AB2B2       `typeinfo name for'BTLFLC::MLControllTask_GameLV1
 0006:006AB2D4       `typeinfo name for'BTLFLC::MLControllTask_GameLV2
 0006:006AB2F6       `typeinfo name for'BTLFLC::FlcControllTask_Destroy
 0006:006AB319       `typeinfo name for'BTLFLC::FlcControllTask_GameLV1
 0006:006AB33C       `typeinfo name for'BTLFLC::FlcControllTask_GameLV2
 0006:006AB35F       `typeinfo name for'BTLFLC::MLControllTask_Fukkatsu
 0006:006AB382       `typeinfo name for'BTLFLC::FlcControllTask_SpinAfter
 0006:006AB3A7       `typeinfo name for'BTLFLC::FlcControllTask_AutoAttack
 0006:006AB3CD       `typeinfo name for'BTLFLC::MLControllTask_StompEffect
 0006:006AB3F3       `typeinfo name for'BTLFLC::yaUt::ProcessBase
 0006:006AB40F       `typeinfo name for'BTLFLC::yaUt::LinkNode
 0006:006AB427       `typeinfo name for'BTLFLC::Task_ML
 0006:006AB439       `typeinfo name for'BTLFLC::FadeTask
 0006:006AB44C       `typeinfo name for'BTLFLC::Task_Cam
 0006:006AB45F       `typeinfo name for'BTLFLC::Task_Flc
 0006:006AB472       `typeinfo name for'BTLFLC::WaitTask
 0006:006AB485       `typeinfo name for'BtlEnc::TaskBattleEncount
 0006:006AB4A2       `typeinfo name for'BtlMon::SpEffActTimeStop
 0006:006AB4BE       `typeinfo name for'hoUtil::hoRefCounter
 0006:006AB4D6       `typeinfo name for'hoUtil::hoPrimRenderer
 0006:006AB4F0       `typeinfo name for'hoUtil::hoShapeRenderer
 0006:006AB50B       `typeinfo name for'hoUtil::hoQuadTreeObject
 0006:006AB527       `typeinfo name for'hoUtil::hoListableObjectBase
 0006:006AB547       `typeinfo name for'AkmAtk4::CmdStateIntro
 0006:006AB561       `typeinfo name for'AkmAtk4::IntroInternal::Resource
 0006:006AB584       `typeinfo name for'AkmAtk4::CmdStateEscape::StateHitHole
 0006:006AB5AD       `typeinfo name for'AkmAtk4::CmdStateEscape::StateGameOver
 0006:006AB5D7       `typeinfo name for'AkmAtk4::CmdStateEscape::StateMove
 0006:006AB5FC       `typeinfo name for'AkmAtk4::CmdStateEscape
 0006:006AB617       `typeinfo name for'AkmAtk4::EscapeInternal::MarioObj::StateEscape
 0006:006AB648       `typeinfo name for'AkmAtk4::EscapeInternal::MarioObj::StateHitHole
 0006:006AB67A       `typeinfo name for'AkmAtk4::EscapeInternal::MarioObj::StateHitBullet
 0006:006AB6AE       `typeinfo name for'AkmAtk4::EscapeInternal::AkkumuObj::StateIdle
 0006:006AB6DD       `typeinfo name for'AkmAtk4::EscapeInternal::AkkumuObj::StateShot
 0006:006AB70C       `typeinfo name for'AkmAtk4::AkmAtk4Internal::AkmFall
 0006:006AB730       `typeinfo name for'AkmAtk4::CmdStateExitEnd
 0006:006AB74C       `typeinfo name for'AkmAtk4::CmdStateLoopEnd
 0006:006AB768       `typeinfo name for'AkmAtk4::CmdStateMinigame::StateGame
 0006:006AB78F       `typeinfo name for'AkmAtk4::CmdStateMinigame
 0006:006AB7AC       `typeinfo name for'AkmAtk4::CmdStateGameOverEnd
 0006:006AB7CC       `typeinfo name for'AkmAtk4::yaUt::ProcessBase
 0006:006AB7E9       `typeinfo name for'AkmAtk4::yaUt::State<AkmAtk4::CmdStateEscape>
 0006:006AB815       `typeinfo name for'AkmAtk4::yaUt::State<AkmAtk4::EscapeInternal::MarioObj>
 0006:006AB84A       `typeinfo name for'AkmAtk4::yaUt::State<AkmAtk4::EscapeInternal::AkkumuObj>
 0006:006AB880       `typeinfo name for'AkmAtk4::yaUt::State<AkmAtk4::CmdStateMinigame>
 0006:006AB8AE       `typeinfo name for'AkmAtk4::yaUt::State<AkmAtk4::AtkCmd>
 0006:006AB8D1       `typeinfo name for'AkmAtk4::yaUt::LinkNode
 0006:006AB8EA       `typeinfo name for'AkmAtk4::AtkCmd
 0006:006AB8FC       `typeinfo name for'AkmAtk4::HoleObj
 0006:006AB90F       `typeinfo name for'AkmAtk4::IHoleObj
 0006:006AB923       `typeinfo name for'BtlMain::VSyncThread
 0006:006AB93B       `typeinfo name for'BtlMain::BadgeDfxWrap
 0006:006AB954       `typeinfo name for'BtlMain::BtlMapDfxWrap
 0006:006AB96E       `typeinfo name for'FieldPC::FieldPCColChr
 0006:006AB988       `typeinfo name for'BETPcWin::ObjectBase
 0006:006AB9A0       `typeinfo name for'BETPcWin::UIObjLevel
 0006:006AB9B8       `typeinfo name for'BETPcWin::ObjMsgDrawer
 0006:006AB9D2       `typeinfo name for'BETPcWin::ObjMsgSimple
 0006:006AB9EC       `typeinfo name for'BETPcWin::UIParamDispU
 0006:006ABA06       `typeinfo name for'BETPcWin::MsgWriterBase
 0006:006ABA21       `typeinfo name for'BETPcWin::ObjSlotDigits
 0006:006ABA3C       `typeinfo name for'BETPcWin::SceneUpdL2LvUp
 0006:006ABA58       `typeinfo name for'BETPcWin::UIObjectsDispL
 0006:006ABA74       `typeinfo name for'BETPcWin::UIRankBonusList
 0006:006ABA91       `typeinfo name for'BETPcWin::MsgWriterPtrWrap
 0006:006ABAAF       `typeinfo name for'BETPcWin::SceneUpdL2RankUp
 0006:006ABACD       `typeinfo name for'BETPcWin::UIBtlResultDispU
 0006:006ABAEB       `typeinfo name for'BETPcWin::UIObjectListBase
 0006:006ABB09       `typeinfo name for'BETPcWin::ObjBonusParamSlot
 0006:006ABB28       `typeinfo name for'BETPcWin::SceneUpdL2ParamUp
 0006:006ABB47       `typeinfo name for'BETPcWin::SceneUpdBtlEndExit
 0006:006ABB67       `typeinfo name for'BETPcWin::SceneUpdL3RankBonus
 0006:006ABB88       `typeinfo name for'BETPcWin::UIObjectsPerDisplay
 0006:006ABBA9       `typeinfo name for'BETPcWin::SceneUpdBtlEndResult
 0006:006ABBCB       `typeinfo name for'BETPcWin::SceneUpdL3ParamBonus
 0006:006ABBED       `typeinfo name for'BETPcWin::SceneUpdL3ParamUpEnd
 0006:006ABC0F       `typeinfo name for'BETPcWin::SceneUpdL3RankUpExit
 0006:006ABC31       `typeinfo name for'BETPcWin::UISharedObjectsTuple
 0006:006ABC53       `typeinfo name for'BETPcWin::ObjPrimRendererStable
 0006:006ABC76       `typeinfo name for'BETPcWin::ObjectListBObjAdapter
 0006:006ABC99       `typeinfo name for'BETPcWin::SceneUpdL2ReLvUpEnter
 0006:006ABCBC       `typeinfo name for'BETPcWin::SceneUpdL3ParamUpView
 0006:006ABCDF       `typeinfo name for'BETPcWin::SceneUpdL3RankUpEnter
 0006:006ABD02       `typeinfo name for'BETPcWin::SceneUpdL4ParamViewAdd
 0006:006ABD26       `typeinfo name for'BETPcWin::SceneUpdPcGrowthRepeat
 0006:006ABD4A       `typeinfo name for'BETPcWin::SceneUpdL2PcGrowthEnter
 0006:006ABD6F       `typeinfo name for'BETPcWin::SceneUpdL2TutorialBtlResult
 0006:006ABD98       `typeinfo name for'BETPcWin::SceneUpdL4ParamViewCounting
 0006:006ABDC1       `typeinfo name for'BETPcWin::SceneUpdL2PcGrowthEndChangePc
 0006:006ABDEC       `typeinfo name for'BETPcWin::SceneUpdL4ParamViewScreenEnter
 0006:006ABE18       `typeinfo name for'BETPcWin::SceneUpdBtlResultEndPrePcGrowth
 0006:006ABE45       `typeinfo name for'BETPcWin::ObjCA
 0006:006ABE57       `typeinfo name for'BETPcWin::Scene
 0006:006ABE69       `typeinfo name for'BETPcWin::ObjMdl
 0006:006ABE7C       `typeinfo name for'BtlAtkMD::StateIntro
 0006:006ABE94       `typeinfo name for'BtlAtkMD::StateGoHome
 0006:006ABEAD       `typeinfo name for'BtlAtkMD::StateDribble
 0006:006ABEC7       `typeinfo name for'BtlAtkMD::CharStateKick
 0006:006ABEE2       `typeinfo name for'BtlAtkMD::BtlMDAnimState
 0006:006ABEFE       `typeinfo name for'BtlAtkMD::StatePassShoot
 0006:006ABF1A       `typeinfo name for'BtlAtkMD::CharStateYoroke
 0006:006ABF37       `typeinfo name for'BtlAtkMD::CharStateFuttobi
 0006:006ABF55       `typeinfo name for'BtlAtkMD::CharStateShootEx
 0006:006ABF73       `typeinfo name for'BtlAtkMD::CharStateSuccess
 0006:006ABF91       `typeinfo name for'BtlAtkMD::CharStateWaiting
 0006:006ABFAF       `typeinfo name for'BtlAtkMD::CharStateAccessor
 0006:006ABFCE       `typeinfo name for'BtlAtkMD::CharStateKickReady
 0006:006ABFEE       `typeinfo name for'BtlAtkMD::CharStatePartnerNGReaction
 0006:006AC016       `typeinfo name for'REDSPARK::Sd::RSTrackMan
 0006:006AC031       `typeinfo name for'REDSPARK::Sd::RSVoiceMan
 0006:006AC04C       `typeinfo name for'REDSPARK::Sd::RSSound
 0006:006AC063       `typeinfo name for'REDSPARK::Sd::RSMemory
 0006:006AC07B       `typeinfo name for'REDSPARK::Sd::RSDataMan
 0006:006AC094       `typeinfo name for'BtlMdlAlc::NwAlc
 0006:006AC0A7       `typeinfo name for'hoBtlUtil::hoBtlTimer<float>::Impl
 0006:006AC0C8       `typeinfo name for'hoBtlUtil::BtlMeterObj
 0006:006AC0E2       `typeinfo name for'hoBtlUtil::BtlSlotTimer
 0006:006AC0FD       `typeinfo name for'hoBtlUtil::hoGyroStatus
 0006:006AC118       `typeinfo name for'hoBtlUtil::BtlOtehonUIObj
 0006:006AC135       `typeinfo name for'hoBtlUtil::BtlPriorityObj
 0006:006AC152       `typeinfo name for'hoBtlUtil::BtlLifeCountObj
 0006:006AC170       `typeinfo name for'hoBtlUtil::BtlObjMesSimple
 0006:006AC18E       `typeinfo name for'hoBtlUtil::BtlSlotTimerObj
 0006:006AC1AC       `typeinfo name for'hoBtlUtil::hoBtlSlotDigits
 0006:006AC1CA       `typeinfo name for'hoBtlUtil::BtlScoreCountObj::UpdaterScorePopup
 0006:006AC1FC       `typeinfo name for'hoBtlUtil::BtlScoreCountObj
 0006:006AC21B       `typeinfo name for'hoBtlUtil::BtlSlotDigitsObj
 0006:006AC23A       `typeinfo name for'hoBtlUtil::hoBtlObjHijacker
 0006:006AC259       `typeinfo name for'hoBtlUtil::hoBtlTaskWeakPtr::BtlTaskCallback
 0006:006AC289       `typeinfo name for'hoBtlUtil::hoLazyKillUpdater
 0006:006AC2A9       `typeinfo name for'hoBtlUtil::BtlStereoSwitchObj
 0006:006AC2CA       `typeinfo name for'hoBtlUtil::hoBtlObjUIGuideBtn
 0006:006AC2EB       `typeinfo name for'hoBtlUtil::BtlMinigameDispLObj
 0006:006AC30D       `typeinfo name for'hoBtlUtil::BtlMinigameStartObj
 0006:006AC32F       `typeinfo name for'hoBtlUtil::hoParallelUpdaterFS<Adsl::LinkedPtr<hoBtlUtil::hoUpdater,Adsl::PtrDeleteFunctor<hoBtlUtil::hoUpdater>>,16u>
 0006:006AC395       `typeinfo name for'hoBtlUtil::hoParallelUpdaterFS<Adsl::LinkedPtr<hoBtlUtil::hoUpdater,Adsl::PtrDeleteFunctor<hoBtlUtil::hoUpdater>>,4u>
 0006:006AC3FA       `typeinfo name for'hoBtlUtil::hoParallelUpdaterFS<hoBtlUtil::BtlScoreCountObj::UpdaterScorePopup *,32u>
 0006:006AC44D       `typeinfo name for'hoBtlUtil::hoParallelUpdaterFS<hoBtlUtil::BtlSlotTimerObjForMinigame::UpdaterTimerPopup *,32u>
 0006:006AC4AA       `typeinfo name for'hoBtlUtil::hoParallelUpdaterFS<hoBtlUtil::UpdaterAtkCommon_PcSoloMove *,2u>
 0006:006AC4F4       `typeinfo name for'hoBtlUtil::hoParallelUpdaterFS<hoBtlUtil::hoUpdater *,16u>
 0006:006AC52C       `typeinfo name for'hoBtlUtil::hoParallelUpdaterFS<hoBtlUtil::hoUpdater *,2u>
 0006:006AC563       `typeinfo name for'hoBtlUtil::hoSequenceUpdaterFS<Adsl::LinkedPtr<hoBtlUtil::hoUpdater,Adsl::PtrDeleteFunctor<hoBtlUtil::hoUpdater>>,16u>
 0006:006AC5C9       `typeinfo name for'hoBtlUtil::hoSequenceUpdaterFS<Adsl::LinkedPtr<hoBtlUtil::hoUpdater,Adsl::PtrDeleteFunctor<hoBtlUtil::hoUpdater>>,4u>
 0006:006AC62E       `typeinfo name for'hoBtlUtil::hoSequenceUpdaterFS<Adsl::LinkedPtr<hoBtlUtil::hoUpdater,Adsl::PtrDeleteFunctor<hoBtlUtil::hoUpdater>>,8u>
 0006:006AC693       `typeinfo name for'hoBtlUtil::hoSequenceUpdaterFS<Btl_AtkRocketBoard::BAPcTeam::UpdaterAtkMainSub *,4u>
 0006:006AC6EE       `typeinfo name for'hoBtlUtil::hoSequenceUpdaterFS<hoBtlUtil::hoUpdater *,16u>
 0006:006AC726       `typeinfo name for'hoBtlUtil::BtlMinigameFinishObj
 0006:006AC749       `typeinfo name for'hoBtlUtil::hoBtlObjTutorialUIBtnA
 0006:006AC76E       `typeinfo name for'hoBtlUtil::hoBtlObjTutorialUIBtnB
 0006:006AC793       `typeinfo name for'hoBtlUtil::hoBtlObjTutorialUISPad
 0006:006AC7B8       `typeinfo name for'hoBtlUtil::hoBtlRefCntSlowAtkMode::BtlObjSlowFx
 0006:006AC7EB       `typeinfo name for'hoBtlUtil::hoBtlRefCntSlowAtkMode
 0006:006AC810       `typeinfo name for'hoBtlUtil::hoShapeRendererAdapter::Impl
 0006:006AC83A       `typeinfo name for'hoBtlUtil::UpdaterAtkCommon_CamMove
 0006:006AC861       `typeinfo name for'hoBtlUtil::UpdaterAtkCommon_WaitTime
 0006:006AC889       `typeinfo name for'hoBtlUtil::hoBtlObjTutorialUIBtnBase
 0006:006AC8B1       `typeinfo name for'hoBtlUtil::BtlSlotTimerObjForMinigame::UpdaterTimerPopup
 0006:006AC8ED       `typeinfo name for'hoBtlUtil::BtlSlotTimerObjForMinigame
 0006:006AC916       `typeinfo name for'hoBtlUtil::UpdaterAtkCommon_PcCamMove
 0006:006AC93F       `typeinfo name for'hoBtlUtil::UpdaterAtkCommon_PcPairMove
 0006:006AC969       `typeinfo name for'hoBtlUtil::UpdaterAtkCommon_PcSoloMove
 0006:006AC993       `typeinfo name for'hoBtlUtil::UpdaterAtkCommon_ScreenFade
 0006:006AC9BD       `typeinfo name for'hoBtlUtil::UpdaterAtkCommon_ObjPosSetter<8u>
 0006:006AC9EF       `typeinfo name for'hoBtlUtil::UpdaterAtkCommon_PcAppearItem
 0006:006ACA1B       `typeinfo name for'hoBtlUtil::UpdaterAtkCommon_MiniGameStart
 0006:006ACA48       `typeinfo name for'hoBtlUtil::UpdaterAtkCommon_WaitTrgBootBtn
 0006:006ACA76       `typeinfo name for'hoBtlUtil::UpdaterAtkCommon_PcCamMoveAtkEnd
 0006:006ACAA5       `typeinfo name for'hoBtlUtil::UpdaterAtkCommon_MiniGameTimerPopup
 0006:006ACAD7       `typeinfo name for'hoBtlUtil::hoUpdater
 0006:006ACAEE       `typeinfo name for'std::locale::facet
 0006:006ACB00       `typeinfo name for'std::ctype_base
 0006:006ACB0F       `typeinfo name for'std::codecvt_base
 0006:006ACB20       `typeinfo name for'std::ctype_byname<char>
 0006:006ACB34       `typeinfo name for'std::messages_base
 0006:006ACB46       `typeinfo name for'std::__rw_exception
 0006:006ACB59       `typeinfo name for'std::codecvt_byname<wchar_t,char,std::__mbstate_t>
 0006:006ACB7F       `typeinfo name for'std::collate_byname<char>
 0006:006ACB95       `typeinfo name for'std::__rw_messages_base
 0006:006ACBAC       `typeinfo name for'std::ctype<char>
 0006:006ACBB8       `typeinfo name for'std::codecvt<wchar_t,char,std::__mbstate_t>
 0006:006ACBD6       `typeinfo name for'std::collate<char>
 0006:006ACBE4       `typeinfo name for'std::messages<char>
 0006:006ACBF3       `typeinfo name for'std::numpunct<char>
 0006:006ACC02       `typeinfo name for'std::exception
 0006:006ACC0F       `typeinfo name for'std::type_info
 0006:006ACC1C       `vtable for'BigRockAct
 0006:006ACCA8       `vtable for'BigWoodAct
 0006:006ACD3C       `vtable for'BtlDfxUnit
 0006:006ACD50       `vtable for'BtlObjBase
 0006:006ACDB0       `vtable for'BtlObjBlur
 0006:006ACE10       `vtable for'BtlObjMove
 0006:006ACE74       `vtable for'BtlPcAtkEH
 0006:006ACE8C       `vtable for'BtlPcAtkEJ
 0006:006ACEA4       `vtable for'BtlPcAtkSH
 0006:006ACEBC       `vtable for'BtlPcAtkSJ
 0006:006ACED4       `vtable for'BtlSndTask
 0006:006ACEE4       `vtable for'BtlVramAlc
 0006:006ACF3C       `vtable for'CtrArcFile
 0006:006ACF7C       `vtable for'CtrFReadEx
 0006:006ACFE4       `vtable for'CtrFileTmp<BinGlu3AcsIdxHdr>
 0006:006AD024       `vtable for'DLuigiHige
 0006:006AD05C       `vtable for'DfxPrimMan
 0006:006AD074       `vtable for'DreamBlock
 0006:006AD5A4       `vtable for'DreamEvent
 0006:006AD64C       `vtable for'DreamLuigi
 0006:006ADAEC       `vtable for'DreamMainL
 0006:006ADD98       `vtable for'DreamMainU
 0006:006AE09C       `vtable for'DreamMario
 0006:006AE5A8       `vtable for'FieldBlock
 0006:006AEAD4       `vtable for'FieldBoard
 0006:006AEE2C       `vtable for'FieldChrCA
 0006:006AF220       `vtable for'FieldEnemy
 0006:006AF590       `vtable for'FieldEvent
 0006:006AF638       `vtable for'FieldLuigi
 0006:006AFACC       `vtable for'FieldMainL
 0006:006AFD68       `vtable for'FieldMainU
 0006:006B0068       `vtable for'FieldMario
 0006:006B04FC       `vtable for'FieldObjCA
 0006:006B0550       `vtable for'FieldPCSub
 0006:006B0950       `vtable for'FieldTimer
 0006:006B0968       `vtable for'GimmickIce
 0006:006B0A70       `vtable for'GimmickMan
 0006:006B0A80       `vtable for'HigeTopChr
 0006:006B0DD8       `vtable for'MABallCtrl
 0006:006B0E84       `vtable for'MAConeCtrl
 0006:006B0F30       `vtable for'MBObjMario
 0006:006B0F50       `vtable for'MBResource
 0006:006B0F74       `vtable for'MemAlcUnit
 0006:006B0F8C       `vtable for'MiracleChr
 0006:006B1498       `vtable for'RealCAInfo
 0006:006B14AC       `vtable for'RealPlayer
 0006:006B14D4       `vtable for'RealSystem
 0006:006B14DC       vtable
 0006:006B15B8       `vtable for'StateIntro
 0006:006B15D4       `vtable for'SubGimmick
 0006:006B162C       `vtable for'yaMarioBox
 0006:006B1640       `vtable for'BtlAtkMJCam
 0006:006B1654       `vtable for'BtlDropCoin
 0006:006B1664       `vtable for'BtlListBase
 0006:006B1674       `vtable for'BtlListTmpl<BtlObjBase>
 0006:006B1684       `vtable for'BtlListTmpl<BtlSndTask>
 0006:006B1694       `vtable for'BtlListTmpl<BtlDropCoin>
 0006:006B16A4       `vtable for'BtlListTmpl<BtlObjDtBase>
 0006:006B16B4       `vtable for'BtlListTmpl<BtlDfxWorkPos>
 0006:006B16C4       `vtable for'BtlListTmpl<BtlHit>
 0006:006B16D4       `vtable for'BtlListTmpl<BtlDfxCA>
 0006:006B16E4       `vtable for'BtlListTmpl<BtlDfxMdl>
 0006:006B16F4       `vtable for'BtlListTmpl<Badge::DfxHandle>
 0006:006B1704       `vtable for'BtlListTmpl<BtlMon::SpEffActTimeStop>
 0006:006B1714       `vtable for'BtlMainFunc
 0006:006B173C       `vtable for'BtlObjHpPnl
 0006:006B179C       `vtable for'BtlPcCmdBlk
 0006:006B17B0       `vtable for'BtlTaskBase
 0006:006B17C4       `vtable for'BtlTaskList
 0006:006B17FC       `vtable for'CtrFileBase
 0006:006B1874       `vtable for'CtrSaveFile
 0006:006B1960       `vtable for'CtrSaveRead
 0006:006B1978       `vtable for'DreamCAInfo
 0006:006B198C       `vtable for'DreamPlayer
 0006:006B19B4       `vtable for'DreamSystem
 0006:006B1AA0       `vtable for'FieldCAInfo
 0006:006B1AB4       `vtable for'FieldCAList
 0006:006B1AD0       `vtable for'FieldChrMdl
 0006:006B1FDC       `vtable for'FieldColChr
 0006:006B2334       `vtable for'FieldMapMdl
 0006:006B2488       `vtable for'FieldModule
 0006:006B2498       `vtable for'FieldNumber
 0006:006B24B0       `vtable for'FieldObjMdl
 0006:006B2604       `vtable for'FieldPlayer
 0006:006B262C       `vtable for'FieldSystem
 0006:006B2710       `vtable for'GimmickTask
 0006:006B2768       `vtable for'GlobalEvent
 0006:006B2790       `vtable for'HookShotAct
 0006:006B27E4       `vtable for'MainGimmick
 0006:006B28CC       `vtable for'RenderQueue
 0006:006B28DC       `vtable for'RotBoardAct
 0006:006B2928       `vtable for'TorBlockAct
 0006:006B29BC       `vtable for'BomHitBroken
 0006:006B2A54       `vtable for'BtlAISysBase
 0006:006B2A7C       `vtable for'BtlDfxHandle
 0006:006B2A98       `vtable for'BtlMainProxy
 0006:006B2AB4       `vtable for'BtlObjCancel
 0006:006B2B18       `vtable for'BtlObjCursor
 0006:006B2B7C       `vtable for'BtlObjDmgNum
 0006:006B2BDC       `vtable for'BtlObjString
 0006:006B2C3C       `vtable for'BtlPcDefJump
 0006:006B2C54       `vtable for'BtlPcDmgDown
 0006:006B2C68       `vtable for'BtlPcDmgSlip
 0006:006B2C7C       `vtable for'BtlPcDmgToge
 0006:006B2C90       `vtable for'BtlPcUseItem
 0006:006B2CA8       `vtable for'ChaseGimmick
 0006:006B2D90       `vtable for'CrashRockMan
 0006:006B2DA0       `vtable for'CtrFReadBase
 0006:006B2DB8       `vtable for'CtrNullNwAlc
 0006:006B2DD0       `vtable for'CtrSaveWrite
 0006:006B2DE8       `vtable for'DLuigiRotBed
 0006:006B2E20       `vtable for'DLuigiSwitch
 0006:006B2E58       `vtable for'FieldBoardCA
 0006:006B3248       `vtable for'FieldChrBase
 0006:006B3288       `vtable for'FieldChrPrim
 0006:006B3470       `vtable for'FieldDfxUnit
 0006:006B3484       `vtable for'FieldEnemyCA
 0006:006B388C       `vtable for'FieldGetItem
 0006:006B38A4       `vtable for'FieldObjBase
 0006:006B38D0       `vtable for'FieldShimmer
 0006:006B38E0       `vtable for'FieldSrtBase
 0006:006B38F8       `vtable for'GimmickEmpty
 0006:006B39E0       `vtable for'HangFloorAct
 0006:006B3A2C       `vtable for'MAJumbleCtrl
 0006:006B3AD8       `vtable for'MAPillarCtrl
 0006:006B3B88       `vtable for'MBObjBallMan
 0006:006B3BC8       `vtable for'MiracleObjCA
 0006:006B3C1C       `vtable for'RealGuideMap
 0006:006B3C44       `vtable for'ScriptSystem
 0006:006B3C5C       `vtable for'SmallRockAct
 0006:006B3CE8       `vtable for'SmallWoodAct
 0006:006B3D7C       `vtable for'SplMoveObjCA
 0006:006B3DD0       `vtable for'TaskMainBase
 0006:006B3DEC       `vtable for'UIListWindow
 0006:006B3E08       `vtable for'VramAlcRange
 0006:006B3E18       `vtable for'BtlAtkMJLuigi
 0006:006B3E2C       `vtable for'BtlAtkMJMario
 0006:006B3E40       `vtable for'BtlDfxWorkPos
 0006:006B3E50       `vtable for'BtlLockMemAlc
 0006:006B3E68       `vtable for'BtlObjBlkName
 0006:006B3EC8       `vtable for'BtlObjCoinPnl
 0006:006B3F28       `vtable for'BtlObjDefIcon
 0006:006B3F88       `vtable for'BtlObjEstStar
 0006:006B3FE8       `vtable for'BtlObjListWnd
 0006:006B4048       `vtable for'BtlObjTrgName
 0006:006B40AC       `vtable for'CtrLoadModule
 0006:006B410C       `vtable for'CtrModuleFile
 0006:006B4144       `vtable for'CtrSaveFormat
 0006:006B415C       `vtable for'DLuigiNoseRot
 0006:006B4194       `vtable for'DLuigiNoseSnz
 0006:006B41CC       `vtable for'DreamGuideMap
 0006:006B41F4       `vtable for'DreamMarioSub
 0006:006B45F4       `vtable for'FieldBoardMdl
 0006:006B4AFC       `vtable for'FieldGuideMap
 0006:006B4B24       `vtable for'FieldMainBase
 0006:006B4DA8       `vtable for'FieldSystemCA
 0006:006B4DE4       `vtable for'GimmickRotMap
 0006:006B4E3C       `vtable for'GimmickSneeze
 0006:006B4F24       `vtable for'MessageSimple
 0006:006B4F5C       `vtable for'MessageWriter
 0006:006B4F90       `vtable for'TiltSwitchAct
 0006:006B4FE8       `vtable for'WaterFloorAct
 0006:006B5034       `vtable for'BtlExtListTmpl<BtlDfxUnit>
 0006:006B5044       `vtable for'BtlExtListTmpl<BtlObjBlur>
 0006:006B5054       `vtable for'BtlExtListTmpl<BtlSndTask>
 0006:006B5064       `vtable for'BtlExtListTmpl<BtlObjDmgNum>
 0006:006B5074       `vtable for'BtlExtListTmpl<BtlObjEstStar>
 0006:006B5084       `vtable for'BtlExtListTmpl<BtlObjIronBall>
 0006:006B5094       `vtable for'BtlExtListTmpl<BtlObjEffIndicate>
 0006:006B50A4       `vtable for'BtlExtListTmpl<BtlObjDropItemBase>
 0006:006B50B4       `vtable for'BtlExtListTmpl<BtlAI>
 0006:006B50C4       `vtable for'BtlExtListTmpl<BtlPc>
 0006:006B50D4       `vtable for'BtlExtListTmpl<BtlMon>
 0006:006B50E4       `vtable for'BtlExtListTmpl<BtlObj>
 0006:006B50F4       `vtable for'BtlExtListTmpl<`anonymous namespace'::BtlObjMasAnis>
 0006:006B5104       `vtable for'BtlExtListTmpl<`anonymous namespace'::BtlObjMasAnisAnies>
 0006:006B5114       `vtable for'BtlExtListTmpl<`anonymous namespace'::BtlObjMasAnisShockwave>
 0006:006B5124       `vtable for'BtlExtListTmpl<`anonymous namespace'::BtlObjTunogon>
 0006:006B5134       `vtable for'BtlExtListTmpl<`anonymous namespace'::BtlObjTunogonCoin>
 0006:006B5144       `vtable for'BtlExtListTmpl<`anonymous namespace'::BtlObjTunogonMakibisi>
 0006:006B5154       `vtable for'BtlObjAlertMsg
 0006:006B51B4       `vtable for'BtlObjBadgeEff
 0006:006B5214       `vtable for'BtlObjBaseBase
 0006:006B5224       `vtable for'BtlObjDropItem
 0006:006B5288       `vtable for'BtlObjDropMame
 0006:006B52EC       `vtable for'BtlObjEstimate
 0006:006B534C       `vtable for'BtlObjGameOver
 0006:006B53AC       `vtable for'BtlObjIronBall
 0006:006B5410       `vtable for'BtlObjRetryMsg
 0006:006B5470       `vtable for'BtlObjTurnSkip
 0006:006B54D4       `vtable for'BtlPcDefHammer
 0006:006B54EC       `vtable for'BtlPcDmgYakedo
 0006:006B5500       `vtable for'CrashObjectAct
 0006:006B558C       `vtable for'CtrFReadSimple
 0006:006B55A4       `vtable for'CtrFUncompSize
 0006:006B55BC       `vtable for'DLuigiPartTask
 0006:006B55F4       `vtable for'DreamMLMiracle
 0006:006B579C       `vtable for'FieldBlockItem
 0006:006B57B4       `vtable for'FieldCAChrBase
 0006:006B5830       `vtable for'FieldChrPrimCA
 0006:006B5AB4       `vtable for'GimmickGravity
 0006:006B5B9C       `vtable for'IMiracleChrAct
 0006:006B5BE8       `vtable for'MemAlcLockTmpl<MemAlcH>
 0006:006B5C00       `vtable for'MiracleGimmick
 0006:006B5CE8       `vtable for'NdlTorBlockAct
 0006:006B5D7C       `vtable for'RotHookShotAct
 0006:006B5DD0       `vtable for'AfterImageObjCA
 0006:006B5E24       `vtable for'BtlObjHpPnlDraw
 0006:006B5E84       `vtable for'BtlObjRetryFade
 0006:006B5EE4       `vtable for'BtlObjScreenInk
 0006:006B5F44       `vtable for'BtlPcCmdCarryOn
 0006:006B5F5C       `vtable for'BtlPcDmgDefault
 0006:006B5F88       `vtable for'CtrUnloadModule
 0006:006B5FA0       `vtable for'FieldActionIcon
 0006:006B5FB8       `vtable for'FieldMdlChrBase
 0006:006B614C       `vtable for'GfxRenderTarget
 0006:006B6168       `vtable for'GimmickCylinder
 0006:006B6250       `vtable for'GimmickHigeBase
 0006:006B6344       `vtable for'GimmickHigeTree
 0006:006B6438       `vtable for'InCoinObjectAct
 0006:006B64CC       `vtable for'MsgDataAcsrBase
 0006:006B64DC       `vtable for'RenderDrawSysCA
 0006:006B64F4       `vtable for'RenderQueueBase
 0006:006B6504       `vtable for'UIScrollMessage
 0006:006B6520       `vtable for'yaLuigiBoxLocal
 0006:006B6534       `vtable for'BombStrikeMngAct
 0006:006B6590       `vtable for'BtlObjTurnRemain
 0006:006B65F0       `vtable for'BtlPcAtkIronBall
 0006:006B6608       `vtable for'BtlPcAtkSH_Luigi
 0006:006B666C       `vtable for'BtlPcAtkSJ_Luigi
 0006:006B66D0       `vtable for'BtlTaskRetryMenu
 0006:006B66E4       `vtable for'FieldGlobalEvent
 0006:006B6714       `vtable for'GimmickHaneBlock
 0006:006B676C       `vtable for'GimmickPropeller
 0006:006B6854       `vtable for'RealRingKuguriUI
 0006:006B686C       `vtable for'RenderDrawSysDFX
 0006:006B6884       `vtable for'RenderDrawSysGfx
 0006:006B689C       `vtable for'RenderDrawSysMsg
 0006:006B68B4       `vtable for'UIListWindowPlus
 0006:006B6904       `vtable for'BtlMonAtkBTuraAtk
 0006:006B691C       `vtable for'BtlMonDmgAvoidHam
 0006:006B6930       `vtable for'BtlObjEffIndicate
 0006:006B6990       `vtable for'BtlObjLuckyChance
 0006:006B69F0       `vtable for'BtlObjLuigiBoxMan
 0006:006B6A6C       `vtable for'BtlPcAtkEntrySlip
 0006:006B6A84       `vtable for'BtlTaskPcCarryOff
 0006:006B6A98       `vtable for'DreamMarioMiracle
 0006:006B6FAC       `vtable for'FieldCameraStereo
 0006:006B6FF0       `vtable for'GimmickTimeChange
 0006:006B70E0       `vtable for'RealBallRingEvent
 0006:006B70F8       `vtable for'RenderDrawSysPrim
 0006:006B7110       `vtable for'BtlBrosAtkFlCopter
 0006:006B7128       `vtable for'BtlExtListCoreTmpl<BtlObjBase,20u>
 0006:006B7138       `vtable for'BtlExtListCoreTmpl<Badge::ObjBase,72u>
 0006:006B7148       `vtable for'BtlObjDropItemBase
 0006:006B71AC       `vtable for'BtlTaskEndCallback
 0006:006B71C0       `vtable for'GimmickExchangeMap
 0006:006B7218       `vtable for'GimmickZeroGravity
 0006:006B7300       `vtable for'RealMuyuPanelEvent
 0006:006B7318       `vtable for'RealPropellerEvent
 0006:006B7330       `vtable for'RenderDrawSysDummy
 0006:006B7348       `vtable for'BtlObjAbnNameCmdBlk
 0006:006B73A8       `vtable for'BtlObjChargeCounter
 0006:006B7408       `vtable for'BtlPcAtkMidoriKoura
 0006:006B7420       `vtable for'BtlPcAtkMiracleBall
 0006:006B7438       `vtable for'BtlPcAtkMiracleJump
 0006:006B7450       `vtable for'BtlPcAtkSH_PcDfxObj
 0006:006B74B4       `vtable for'BtlPcAtkSJ_PcDfxObj
 0006:006B7518       `vtable for'FieldGuideMapButton
 0006:006B7530       `vtable for'RealRingKuguriEvent
 0006:006B7548       `vtable for'RealShiohigariEvent
 0006:006B7560       `vtable for'yaLuigiBoxLocal_TOP
 0006:006B7574       `vtable for'BtlAtkMJCamState_End
 0006:006B7594       `vtable for'BtlDfxUnitSeCallback
 0006:006B75A8       `vtable for'BtlMonAtkMasAnisAtk3
 0006:006B75C0       `vtable for'BtlMonAtkTunogonAtk1
 0006:006B75D8       `vtable for'BtlObjDropItemMsgWnd
 0006:006B7638       `vtable for'MsgDataAcsrTmplFixed<(uchar)4>
 0006:006B7648       `vtable for'RealMoguriPanelEvent
 0006:006B7660       `vtable for'RealNobiruDokanEvent
 0006:006B7678       `vtable for'BtlAtkMJBoxState_Jump
 0006:006B7694       `vtable for'BtlAtkMJBoxState_Main
 0006:006B76B0       `vtable for'BtlAtkMJCamState_Main
 0006:006B76D0       `vtable for'BtlMoveAttachSpline3d
 0006:006B76EC       `vtable for'MBPlayBuildWallEffect
 0006:006B7710       `vtable for'BtlAtkMJBoxState_Intro
 0006:006B772C       `vtable for'BtlAtkMJCamState_Intro
 0006:006B774C       `vtable for'BtlPcAtkMiracleTornado
 0006:006B7764       `vtable for'FieldDfxUnitSeCallback
 0006:006B7778       `vtable for'RealKuruKuruDokanEvent
 0006:006B7790       `vtable for'BtlAtkMJBoxState_Attach
 0006:006B77AC       `vtable for'BtlAtkMJBoxState_Detach
 0006:006B77C8       `vtable for'BtlAtkMJCamState_GoHome
 0006:006B77E8       `vtable for'BtlAtkMJLuigiState_Init
 0006:006B7804       `vtable for'BtlAtkMJLuigiState_Jump
 0006:006B7820       `vtable for'FieldSaveExDataAcsrRead
 0006:006B7830       `vtable for'BtlDmgPcAbnRecoverYakedo
 0006:006B7844       `vtable for'FieldSaveExDataAcsrWrite
 0006:006B7854       `vtable for'RealCharinkoGondolaEvent
 0006:006B786C       `vtable for'BtlAtkMJLuigiState_Attach
 0006:006B7888       `vtable for'BtlAtkMJMarioState_Attach
 0006:006B78A4       `vtable for'BtlAtkMJMarioState_Detach
 0006:006B78C0       `vtable for'BtlAtkMJBoxState_FinalJump
 0006:006B78DC       `vtable for'BtlAtkMJBoxState_SmallJump
 0006:006B78F8       `vtable for'BtlAtkMJCamState_FinalStomp
 0006:006B7918       `vtable for'BtlAtkMJLuigiState_FinalJump
 0006:006B7934       `vtable for'BtlAtkMJLuigiState_SmallJump
 0006:006B7950       `vtable for'BtlAtkMJMarioState_FinalJump
 0006:006B796C       `vtable for'BtlAtkMJMarioState_SmallJump
 0006:006B7988       `vtable for'BtlAtkMJMarioState_StompToge
 0006:006B79A4       `vtable for'BtlAtkMJCamState_FinalStompNG
 0006:006B79C4       `vtable for'BtlAtkMJCamState_FinalStompOK
 0006:006B79E4       `vtable for'BtlAtkMJLuigiState_BaraAttack
 0006:006B7A00       `vtable for'BtlAtkMJMarioState_BaraAttack
 0006:006B7A1C       `vtable for'FieldCompulsiveMessageColorAnm
 0006:006B7A48       `vtable for'BtlAtkMJMarioState_FinalJump_NG
 0006:006B7A64       `vtable for'BtlAtkMJMarioState_FinalJump_OK
 0006:006B7A80       `vtable for'BtlAtkMJBoxState_FinalJumpFailed
 0006:006B7A9C       `vtable for'BtlAtkMJBoxState_FinalJumpSuccess
 0006:006B7AB8       `vtable for'BtlAtkMJLuigiState_FinalLandOnDestroy
 0006:006B7AD4       `vtable for'BtlAtkMJMarioState_FinalLandOnDestroy
 0006:006B7AF0       `vtable for'Dfx
 0006:006B7B04       `vtable for'Job
 0006:006B7B1C       `vtable for'Boot
 0006:006B7B38       `vtable for'Task
 0006:006B7B50       `vtable for'BtlAI
 0006:006B7B60       `vtable for'BtlPc
 0006:006B7BD4       `vtable for'CtrFS
 0006:006B7BE4       `vtable for'MoveF<1u>
 0006:006B7BF4       `vtable for'MoveV<1u>
 0006:006B7C04       `vtable for'MoveV<2u>
 0006:006B7C14       `vtable for'MoveV<3u>
 0006:006B7C24       `vtable for'BtlAct
 0006:006B7C54       `vtable for'BtlChr
 0006:006B7CC8       `vtable for'BtlHit
 0006:006B7CD8       `vtable for'BtlMon
 0006:006B7D4C       `vtable for'BtlObj
 0006:006B7DB0       `vtable for'DLuigi
 0006:006B7DC0       `vtable for'DfxSys
 0006:006B7DE0       `vtable for'JobMan
 0006:006B7E0C       `vtable for'MemAlc
 0006:006B7E24       `vtable for'NutAct
 0006:006B7E70       `vtable for'RealFS
 0006:006B7E84       `vtable for'RealML
 0006:006B8130       `vtable for'BtlAIDt
 0006:006B8160       `vtable for'BtlLink
 0006:006B8170       `vtable for'BtlMain
 0006:006B8198       `vtable for'BtlNode
 0006:006B81A8       `vtable for'CtrFEnd
 0006:006B81C0       `vtable for'CtrFSEx
 0006:006B81D0       `vtable for'DfxUnit
 0006:006B81E4       `vtable for'DreamFS
 0006:006B81F8       `vtable for'DreamML
 0006:006B83A0       `vtable for'FieldCA
 0006:006B83DC       `vtable for'FieldFS
 0006:006B83F0       `vtable for'FieldML
 0006:006B8578       `vtable for'FieldPC
 0006:006B8A04       `vtable for'FireAct
 0006:006B8A50       `vtable for'GustAct
 0006:006B8A9C       `vtable for'MemAlcB
 0006:006B8AB4       `vtable for'MemAlcF
 0006:006B8ACC       `vtable for'MemAlcH
 0006:006B8AE4       `vtable for'Message
 0006:006B8B20       `vtable for'SnowAct
 0006:006B8B6C       `vtable for'TestAct
 0006:006B8BB8       `vtable for'BtlDfxCA
 0006:006B8BC8       `vtable for'BtlLuigi
 0006:006B8C3C       `vtable for'BtlMario
 0006:006B8CB0       `vtable for'BtlMonDt
 0006:006B8CE0       `vtable for'BtlMsgDt
 0006:006B8D10       `vtable for'BtlObjDt
 0006:006B8D3C       `vtable for'CtrFRead
 0006:006B8D54       `vtable for'CtrNwAlc
 0006:006B8D6C       `vtable for'FieldChr
 0006:006B90C4       `vtable for'GXResCmd
 0006:006B90D4       `vtable for'GXResCmn
 0006:006B90E4       `vtable for'GXResTex
 0006:006B90F4       `vtable for'GXResVtx
 0006:006B9104       `vtable for'GameMain
 0006:006B9120       `vtable for'MBObjCam
 0006:006B9138       `vtable for'MBObjMon
 0006:006B9178       `vtable for'MarioObj
 0006:006B91DC       `vtable for'RealMuyu
 0006:006B91F4       `vtable for'RealRing
 0006:006B920C       `vtable for'StateEnd
 0006:006B9228       `vtable for'TaskList
 0006:006B9244       `vtable for'BtlActMan
 0006:006B9254       `vtable for'BtlCamera
 0006:006B92B4       `vtable for'BtlDfxMdl
 0006:006B92C4       `vtable for'BtlObjBlk
 0006:006B9328       `vtable for'CellAnime
 0006:006B9338       `vtable for'CrashRock
 0006:006B9690       `vtable for'CtrJobMan
 0006:006B96C4       `vtable for'CtrModule
 0006:006B96D4       `vtable for'CtrThread
 0006:006B96E8       `vtable for'DLuigiCam
 0006:006B96F8       `vtable for'DLuigiEtc
 0006:006B9730       `vtable for'DreamGate
 0006:006B9740       `vtable for'DummyRock
 0006:006B9A98       `vtable for'FieldCoin
 0006:006B9E8C       `vtable for'FieldIcon
 0006:006B9EA4       `vtable for'GfxScnSys
 0006:006B9EB4       `vtable for'MoveFBase
 0006:006B9EC4       `vtable for'MoveVBase
 0006:006B9ED4       `vtable for'MoveWorkF
 0006:006B9EE4       `vtable for'MoveWorkV
 0006:006B9EF4       `vtable for'NeedleAct
 0006:006B9F40       `vtable for'RealCrack
 0006:006B9F58       `vtable for'RealEvent
 0006:006BA014       `vtable for'RealLuigi
 0006:006BA4A8       `vtable for'RealMainL
 0006:006BA744       `vtable for'RealMainU
 0006:006BAA5C       `vtable for'RealMario
 0006:006BAF10       `vtable for'RealPCSub
 0006:006BB310       `vtable for'ShadowSys
 0006:006BB320       `vtable for'StateMain
 0006:006BB33C       `vtable for'StdRender
 0006:006BB34C       `vtable for'BtlEndTask::BtlEndTaskPcWin
 0006:006BB364       `vtable for'BtlPcAtkSH::MissHammerDfxHandle
 0006:006BB380       `vtable for'KameckAtk4::yaUt::SphereCollider
 0006:006BB3AC       `vtable for'KameckAtk4::yaUt::ICollider
 0006:006BB3D8       `vtable for'KameckAtk4::Broom::StateAttack
 0006:006BB3F4       `vtable for'KameckAtk4::Broom::StateMixing
 0006:006BB410       `vtable for'KameckAtk4::Broom::StateFinalSweep
 0006:006BB42C       `vtable for'KameckAtk4::Broom::StateIntroSummon
 0006:006BB448       `vtable for'KameckAtk4::Broom::StateMoveToKameck_Fly
 0006:006BB464       `vtable for'KameckAtk4::Broom::StateMoveToKameck_Land
 0006:006BB480       `vtable for'KameckAtk4::Mario::StateMixing
 0006:006BB49C       `vtable for'KameckAtk4::Mario::StateComeBack
 0006:006BB4B8       `vtable for'KameckAtk4::Mario::StateGoToHome
 0006:006BB4D4       `vtable for'KameckAtk4::Mario::StateComeBackDead
 0006:006BB4F0       `vtable for'KameckAtk4::Mario::StateEscapeDigital
 0006:006BB50C       `vtable for'KameckAtk4::Mario::StateHitBroomFinal
 0006:006BB528       `vtable for'KameckAtk4::Mario::StateHitBroomMixing
 0006:006BB544       `vtable for'KameckAtk4::AtkCmd::StateIntro
 0006:006BB560       `vtable for'KameckAtk4::AtkCmd
 0006:006BB578       `vtable for'KameckAtk4::Camera::StateGoToHome
 0006:006BB594       `vtable for'KameckAtk4::Camera::StateIntroSummon
 0006:006BB5B0       `vtable for'KameckAtk4::Camera::StateMarioFollow
 0006:006BB5CC       `vtable for'KameckAtk4::Kameck::StateSweep
 0006:006BB5E8       `vtable for'KameckAtk4::Kameck::StateBroomOut
 0006:006BB604       `vtable for'KameckAtk4::Kameck::StateControlAnm
 0006:006BB620       `vtable for'KameckAtk4::Kameck::StateMoveHome_Fly
 0006:006BB63C       `vtable for'KameckAtk4::Kameck::StateMoveHome_Land
 0006:006BB658       `vtable for'KameckAtk4::Resource::Loader
 0006:006BB67C       `vtable for'__cxxabiv1::__class_type_info
 0006:006BB68C       `vtable for'__cxxabiv1::__si_class_type_info
 0006:006BB69C       `vtable for'__cxxabiv1::__vmi_class_type_info
 0006:006BB6AC       `vtable for'BtlAbnormal::TaskAbnDfxTimeStop
 0006:006BB6C0       `vtable for'BtlAbnormal::Act
 0006:006BB6F0       `vtable for'BtlDropCoin::Coin
 0006:006BB750       `vtable for'BtlMainFunc::JobInitDfxMsg
 0006:006BB768       `vtable for'BtlMainFunc::AbortTaskEndCallback
 0006:006BB77C       `vtable for'BtlPcCmdBlk::ChgScrCallback
 0006:006BB788       `vtable for'BtlPcCmdBlk::ExecBadgeEffCallback
 0006:006BB794       `vtable for'BtlPcCmdBlk::SelectBadgeEffCallback
 0006:006BB7A0       `vtable for'MDCHALLENGE::BossTarget
 0006:006BB7C8       `vtable for'MDCHALLENGE::ZakoTarget
 0006:006BB7F0       `vtable for'MDCHALLENGE::AtkCmd::StateIntro
 0006:006BB80C       `vtable for'MDCHALLENGE::AtkCmd::StateFinalize
 0006:006BB828       `vtable for'MDCHALLENGE::AtkCmd::StateGame
 0006:006BB844       `vtable for'MDCHALLENGE::AtkCmd
 0006:006BB85C       `vtable for'MDCHALLENGE::Resource
 0006:006BB880       `vtable for'FLCCHALLENGE::StateIntro
 0006:006BB89C       `vtable for'FLCCHALLENGE::StateFinalize
 0006:006BB8B8       `vtable for'FLCCHALLENGE::ItemDamageBalloon
 0006:006BB8E4       `vtable for'FLCCHALLENGE::ObjStompTarget_Mon
 0006:006BB90C       `vtable for'FLCCHALLENGE::ObjStompTarget_Dummy
 0006:006BB934       `vtable for'FLCCHALLENGE::yaUt::MinigameObjEstimate
 0006:006BB994       `vtable for'FLCCHALLENGE::ObjML
 0006:006BB9A4       `vtable for'FLCCHALLENGE::AtkCmd
 0006:006BB9BC       `vtable for'FLCCHALLENGE::ObjLuigi
 0006:006BB9CC       `vtable for'FLCCHALLENGE::ObjMario
 0006:006BB9DC       `vtable for'FLCCHALLENGE::Resource
 0006:006BBA00       `vtable for'FLCCHALLENGE::ItemTimer
 0006:006BBA2C       `vtable for'FLCCHALLENGE::StateMain
 0006:006BBA48       `vtable for'MRBCHALLENGE::ItemNeedle
 0006:006BBA64       `vtable for'MRBCHALLENGE::ObjBigRose::Behavior_Idle
 0006:006BBA80       `vtable for'MRBCHALLENGE::ObjBigRose::Behavior_MoveRandom
 0006:006BBA9C       `vtable for'MRBCHALLENGE::ObjBigRose::Behavior_MoveSimple
 0006:006BBAB8       `vtable for'MRBCHALLENGE::ObjBigRose::Behavior_MoveAndStop
 0006:006BBAD4       `vtable for'MRBCHALLENGE::ObjBigRose
 0006:006BBAF0       `vtable for'MRBCHALLENGE::StateIntro
 0006:006BBB0C       `vtable for'MRBCHALLENGE::ObjNormalRose
 0006:006BBB28       `vtable for'MRBCHALLENGE::StateFinalize
 0006:006BBB44       `vtable for'MRBCHALLENGE::LuigiBallRenderer
 0006:006BBBA8       `vtable for'MRBCHALLENGE::yaUt::BtlColRead
 0006:006BBBCC       `vtable for'MRBCHALLENGE::yaUt::SphereCollider
 0006:006BBBF8       `vtable for'MRBCHALLENGE::yaUt::MinigameObjEstimate
 0006:006BBC58       `vtable for'MRBCHALLENGE::yaUt::MiracleAtkIntro_MarioJump
 0006:006BBC7C       `vtable for'MRBCHALLENGE::yaUt::MiracleAtkIntro_HoistLuigi
 0006:006BBCA0       `vtable for'MRBCHALLENGE::yaUt::MiracleAtkIntro_ThrowLuigi
 0006:006BBCC4       `vtable for'MRBCHALLENGE::yaUt::ICollider
 0006:006BBCF0       `vtable for'MRBCHALLENGE::AtkCmd
 0006:006BBD08       `vtable for'MRBCHALLENGE::ItemBomb
 0006:006BBD24       `vtable for'MRBCHALLENGE::Resource
 0006:006BBD48       `vtable for'MRBCHALLENGE::LuigiBall::Effect
 0006:006BBD5C       `vtable for'MRBCHALLENGE::StateMain
 0006:006BBD78       `vtable for'MRFCHALLENGE::yaUt::MinigameObjEstimate
 0006:006BBDD8       `vtable for'MRFCHALLENGE::yaUt::MiracleAtkIntro_HoistLuigi
 0006:006BBDFC       `vtable for'MRFCHALLENGE::yaUt::MiracleAtkIntro_ThrowLuigi
 0006:006BBE20       `vtable for'MRFCHALLENGE::AtkCmd::StateIntro
 0006:006BBE3C       `vtable for'MRFCHALLENGE::AtkCmd::StateToss
 0006:006BBE58       `vtable for'MRFCHALLENGE::AtkCmd
 0006:006BBE70       `vtable for'MRFCHALLENGE::Resource::LoadProcess
 0006:006BBE94       `vtable for'MRJCHALLENGE::ItemNeedle
 0006:006BBEAC       `vtable for'MRJCHALLENGE::LuigiGroup
 0006:006BBF04       `vtable for'MRJCHALLENGE::LuigiBoxWorld::StateAttach
 0006:006BBF20       `vtable for'MRJCHALLENGE::LuigiBoxWorld::StateDetach
 0006:006BBF3C       `vtable for'MRJCHALLENGE::LuigiBoxWorld::StateRestart
 0006:006BBF58       `vtable for'MRJCHALLENGE::LuigiBoxWorld::StateIntroFall
 0006:006BBF74       `vtable for'MRJCHALLENGE::LuigiBoxWorld::StateSmallJump
 0006:006BBF90       `vtable for'MRJCHALLENGE::LuigiBoxWorld::StateAttackJump
 0006:006BBFAC       `vtable for'MRJCHALLENGE::LuigiBoxWorld::StateDestroyAll
 0006:006BBFC8       `vtable for'MRJCHALLENGE::LuigiBoxWorld::StateAttackFailure
 0006:006BBFE4       `vtable for'MRJCHALLENGE::LuigiBoxWorld::StateAttackSuccess
 0006:006BC000       `vtable for'MRJCHALLENGE::LuigiBoxWorld::StateJump
 0006:006BC01C       `vtable for'MRJCHALLENGE::LuigiBoxWorld::StateMain
 0006:006BC038       `vtable for'MRJCHALLENGE::yaUt::AABBCollider
 0006:006BC064       `vtable for'MRJCHALLENGE::yaUt::CollisionFunc
 0006:006BC07C       `vtable for'MRJCHALLENGE::yaUt::SphereCollider
 0006:006BC0A8       `vtable for'MRJCHALLENGE::yaUt::MinigameObjEstimate
 0006:006BC108       `vtable for'MRJCHALLENGE::yaUt::MiracleAtkIntro_MarioJump
 0006:006BC12C       `vtable for'MRJCHALLENGE::yaUt::MiracleAtkIntro_HoistLuigi
 0006:006BC150       `vtable for'MRJCHALLENGE::yaUt::MiracleAtkIntro_ThrowLuigi
 0006:006BC174       `vtable for'MRJCHALLENGE::yaUt::LinkNode
 0006:006BC18C       `vtable for'MRJCHALLENGE::yaUt::ICollider
 0006:006BC1B8       `vtable for'MRJCHALLENGE::AtkCmd::StateIntro
 0006:006BC1D4       `vtable for'MRJCHALLENGE::AtkCmd::StateFinalize
 0006:006BC1F0       `vtable for'MRJCHALLENGE::AtkCmd::StateMain::AttachComboManager
 0006:006BC204       `vtable for'MRJCHALLENGE::AtkCmd::StateMain
 0006:006BC220       `vtable for'MRJCHALLENGE::AtkCmd
 0006:006BC238       `vtable for'MRJCHALLENGE::BoxLocal
 0006:006BC248       `vtable for'MRJCHALLENGE::ItemBomb
 0006:006BC260       `vtable for'MRJCHALLENGE::ObjMario
 0006:006BC2B8       `vtable for'MRJCHALLENGE::Resource
 0006:006BC2DC       `vtable for'MRJCHALLENGE::ObjCamera::StateRestart
 0006:006BC2F8       `vtable for'MRJCHALLENGE::ObjCamera::StateAttackJump
 0006:006BC314       `vtable for'MRJCHALLENGE::ObjCamera::StateMain
 0006:006BC330       `vtable for'MRWCHALLENGE::yaUt::BtlColRead
 0006:006BC354       `vtable for'MRWCHALLENGE::yaUt::OBBCollider
 0006:006BC380       `vtable for'MRWCHALLENGE::yaUt::AABBCollider
 0006:006BC3AC       `vtable for'MRWCHALLENGE::yaUt::CollisionFunc
 0006:006BC3C4       `vtable for'MRWCHALLENGE::yaUt::SphereCollider
 0006:006BC3F0       `vtable for'MRWCHALLENGE::yaUt::MiracleAtkIntro_HoistLuigi
 0006:006BC414       `vtable for'MRWCHALLENGE::yaUt::MiracleAtkIntro_ThrowLuigi
 0006:006BC438       `vtable for'MRWCHALLENGE::yaUt::LinkNode
 0006:006BC450       `vtable for'MRWCHALLENGE::yaUt::ICollider
 0006:006BC47C       `vtable for'MRWCHALLENGE::AtkCmd::StateIntro
 0006:006BC498       `vtable for'MRWCHALLENGE::AtkCmd::StateRally::StateLuigiReEntry
 0006:006BC4B4       `vtable for'MRWCHALLENGE::AtkCmd::StateRally::StateMain
 0006:006BC4D0       `vtable for'MRWCHALLENGE::AtkCmd::StateRally
 0006:006BC4EC       `vtable for'MRWCHALLENGE::AtkCmd::StateRestart
 0006:006BC508       `vtable for'MRWCHALLENGE::AtkCmd::StateFinalize
 0006:006BC524       `vtable for'MRWCHALLENGE::AtkCmd::EnemyDeadCallBack
 0006:006BC544       `vtable for'MRWCHALLENGE::AtkCmd::ItemEffect_SpdChange
 0006:006BC560       `vtable for'MRWCHALLENGE::AtkCmd::ItemEffect_SplitStar::StarAppearEffect
 0006:006BC584       `vtable for'MRWCHALLENGE::AtkCmd::ItemEffect_SplitStar
 0006:006BC5A0       `vtable for'MRWCHALLENGE::AtkCmd::ItemEffect_DoubleScore
 0006:006BC5BC       `vtable for'MRWCHALLENGE::AtkCmd::ApplyItemEffectCallBack
 0006:006BC5D0       `vtable for'MRWCHALLENGE::AtkCmd::StateWall
 0006:006BC5EC       `vtable for'MRWCHALLENGE::AtkCmd
 0006:006BC604       `vtable for'MRWCHALLENGE::Resource::LoadProcess
 0006:006BC628       `vtable for'BtlObjListWnd::ListWnd
 0006:006BC644       `vtable for'BtlObjAlertMsg::ScrollMsg
 0006:006BC660       `vtable for'BtlObjIronBall::StompTaskCallback
 0006:006BC674       `vtable for'BtlPcDefHammer::ObjDispHam
 0006:006BC6D8       `vtable for'AkmAtk4Relocate::CmdStateIntro
 0006:006BC6F4       `vtable for'AkmAtk4Relocate::IntroInternal::Resource
 0006:006BC718       `vtable for'AkmAtk4Relocate::CmdStateEscape::StateHitHole
 0006:006BC734       `vtable for'AkmAtk4Relocate::CmdStateEscape::StateGameOver
 0006:006BC750       `vtable for'AkmAtk4Relocate::CmdStateEscape::StateMove
 0006:006BC76C       `vtable for'AkmAtk4Relocate::CmdStateEscape
 0006:006BC788       `vtable for'AkmAtk4Relocate::EscapeInternal::MarioObj::StateEscape
 0006:006BC7A4       `vtable for'AkmAtk4Relocate::EscapeInternal::MarioObj::StateHitHole
 0006:006BC7C0       `vtable for'AkmAtk4Relocate::EscapeInternal::MarioObj::StateHitBullet
 0006:006BC7DC       `vtable for'AkmAtk4Relocate::EscapeInternal::AkkumuObj::StateIdle
 0006:006BC7F8       `vtable for'AkmAtk4Relocate::EscapeInternal::AkkumuObj::StateShot
 0006:006BC814       `vtable for'AkmAtk4Relocate::CmdStateExitEnd
 0006:006BC830       `vtable for'AkmAtk4Relocate::CmdStateLoopEnd
 0006:006BC84C       `vtable for'AkmAtk4Relocate::CmdStateMinigame::StateGame
 0006:006BC868       `vtable for'AkmAtk4Relocate::CmdStateMinigame
 0006:006BC884       `vtable for'AkmAtk4Relocate::CmdStateGameOverEnd
 0006:006BC8A0       `vtable for'AkmAtk4Relocate::AkmAtk4RelocateInternal::AkmFall
 0006:006BC8C4       `vtable for'AkmAtk4Relocate::AtkCmd
 0006:006BC8DC       `vtable for'AkmAtk4Relocate::HoleObj
 0006:006BC908       `vtable for'Btl_AtkDreamEgg::AtkPartMain
 0006:006BC92C       `vtable for'Btl_AtkDreamEgg::AtkPartFinal
 0006:006BC950       `vtable for'Btl_AtkDreamEgg::AtkPartIntro::UpdaterWaitReadyAtkComp
 0006:006BC974       `vtable for'Btl_AtkDreamEgg::AtkPartIntro::UpdaterWaitLoadCompIntro
 0006:006BC998       `vtable for'Btl_AtkDreamEgg::AtkPartIntro
 0006:006BC9BC       `vtable for'Btl_AtkDreamEgg::AtkPartTotal
 0006:006BC9E0       `vtable for'Btl_AtkDreamEgg::BASceneUpdAtkReady
 0006:006BCA04       `vtable for'Btl_AtkDreamEgg::BASceneUpdWhiteFade
 0006:006BCA28       `vtable for'Btl_AtkDreamEgg::BASceneUpdFollowBall
 0006:006BCA4C       `vtable for'Btl_AtkDreamEgg::BASceneUpdL2MoveOmzball
 0006:006BCA70       `vtable for'Btl_AtkDreamEgg::BASceneUpdExplodeOmzball
 0006:006BCA94       `vtable for'Btl_AtkDreamEgg::BASceneUpdL2TryPairHammer
 0006:006BCAB8       `vtable for'Btl_AtkDreamEgg::BASceneUpdL2TrySoloHammer
 0006:006BCADC       `vtable for'Btl_AtkDreamEgg::BASceneUpdPcLandingFromSky
 0006:006BCB00       `vtable for'Btl_AtkDreamEgg::BASceneUpdL2ReturnSmashedPc
 0006:006BCB24       `vtable for'Btl_AtkDreamEgg::BASceneUpdL2TryJumpSequence
 0006:006BCB48       `vtable for'Btl_AtkDreamEgg::BASceneUpdL2TrySoloHamRecov
 0006:006BCB6C       `vtable for'Btl_AtkDreamEgg::BASceneUpdL2ScreenOutOmzball
 0006:006BCB90       `vtable for'Btl_AtkDreamEgg::ChrCmd
 0006:006BCBA8       `vtable for'Btl_AtkDreamEgg::BAScene
 0006:006BCBCC       `vtable for'Btl_AtkDreamEgg::BAPcTeam
 0006:006BCBF0       `vtable for'Btl_AtkHaneruMet::ExplDrawer
 0006:006BCC08       `vtable for'Btl_AtkHaneruMet::AtkPartMain
 0006:006BCC2C       `vtable for'Btl_AtkHaneruMet::AtkPartFinal
 0006:006BCC50       `vtable for'Btl_AtkHaneruMet::AtkPartIntro::UpdaterWaitReadyAtkComp
 0006:006BCC74       `vtable for'Btl_AtkHaneruMet::AtkPartIntro::UpdaterWaitLoadCompIntro
 0006:006BCC98       `vtable for'Btl_AtkHaneruMet::AtkPartIntro
 0006:006BCCBC       `vtable for'Btl_AtkHaneruMet::AtkPartTotal
 0006:006BCCE0       `vtable for'Btl_AtkHaneruMet::ChrCmdEndless
 0006:006BCCF8       `vtable for'Btl_AtkHaneruMet::BASceneEndless
 0006:006BCD1C       `vtable for'Btl_AtkHaneruMet::PcTeamUpdAtkReady
 0006:006BCD40       `vtable for'Btl_AtkHaneruMet::AtkPartMainEndless
 0006:006BCD64       `vtable for'Btl_AtkHaneruMet::AtkPartFinalEndless::UpdaterExplDrawerDeleter
 0006:006BCD88       `vtable for'Btl_AtkHaneruMet::AtkPartFinalEndless
 0006:006BCDAC       `vtable for'Btl_AtkHaneruMet::AtkPartIntroEndless::UpdaterWaitBootOrCancel
 0006:006BCDD0       `vtable for'Btl_AtkHaneruMet::AtkPartIntroEndless::UpdaterWaitReadyAtkComp
 0006:006BCDF4       `vtable for'Btl_AtkHaneruMet::AtkPartIntroEndless::UpdaterWaitLoadCompIntro
 0006:006BCE18       `vtable for'Btl_AtkHaneruMet::AtkPartIntroEndless
 0006:006BCE3C       `vtable for'Btl_AtkHaneruMet::AtkPartTotalEndless
 0006:006BCE60       `vtable for'Btl_AtkHaneruMet::PcTeamUpdAtkLastJump
 0006:006BCE84       `vtable for'Btl_AtkHaneruMet::RefCounterSlowAtkMode
 0006:006BCEA4       `vtable for'Btl_AtkHaneruMet::PcTeamUpdAtkFailOutside
 0006:006BCEC8       `vtable for'Btl_AtkHaneruMet::PcTeamUpdAtkIntervalJump
 0006:006BCEEC       `vtable for'Btl_AtkHaneruMet::ObjCA
 0006:006BCF00       `vtable for'Btl_AtkHaneruMet::ChrCmd
 0006:006BCF18       `vtable for'Btl_AtkHaneruMet::BAScene
 0006:006BCF3C       `vtable for'Btl_AtkHaneruMet::BAMonSolo
 0006:006BCF4C       `vtable for'Btl_AtkStarRocket::BAPcBooter
 0006:006BCF60       `vtable for'Btl_AtkStarRocket::AtkPartMain
 0006:006BCF84       `vtable for'Btl_AtkStarRocket::BAPcPartner
 0006:006BCF98       `vtable for'Btl_AtkStarRocket::AtkPartFinal
 0006:006BCFBC       `vtable for'Btl_AtkStarRocket::AtkPartIntro::UpdaterWaitReadyAtkComp
 0006:006BCFE0       `vtable for'Btl_AtkStarRocket::AtkPartIntro::UpdaterWaitLoadCompIntro
 0006:006BD004       `vtable for'Btl_AtkStarRocket::AtkPartIntro
 0006:006BD028       `vtable for'Btl_AtkStarRocket::AtkPartTotal
 0006:006BD04C       `vtable for'Btl_AtkStarRocket::BASceneUpdAtkReady
 0006:006BD070       `vtable for'Btl_AtkStarRocket::BASceneUpdAtkMonStomp
 0006:006BD094       `vtable for'Btl_AtkStarRocket::BASceneUpdAtkClashFloor
 0006:006BD0B8       `vtable for'Btl_AtkStarRocket::BASceneUpdAtkCtrlRocket
 0006:006BD0DC       `vtable for'Btl_AtkStarRocket::BASceneUpdAtkRocketRise
 0006:006BD100       `vtable for'Btl_AtkStarRocket::BASceneUpdL2MonStompPerPc
 0006:006BD124       `vtable for'Btl_AtkStarRocket::ChrCmd
 0006:006BD13C       `vtable for'Btl_AtkStarRocket::BAScene
 0006:006BD160       `vtable for'Btl_AtkStarRocket::BAPcSolo
 0006:006BD174       `vtable for'Btl_AtkStarRocket::BAPcTeam
 0006:006BD198       `vtable for'Btl_AtkStarRocket::BAMonSolo
 0006:006BD1A8       `vtable for'Btl_AtkStarRocket::BAMonTeam
 0006:006BD1B8       `vtable for'Btl_AtkTaruTaihou::BAPcBooter
 0006:006BD1D4       `vtable for'Btl_AtkTaruTaihou::AtkPartMain
 0006:006BD1F8       `vtable for'Btl_AtkTaruTaihou::BAPcPartner
 0006:006BD214       `vtable for'Btl_AtkTaruTaihou::AtkPartFinal
 0006:006BD238       `vtable for'Btl_AtkTaruTaihou::AtkPartIntro::UpdaterWaitReadyAtkComp
 0006:006BD25C       `vtable for'Btl_AtkTaruTaihou::AtkPartIntro::UpdaterWaitLoadCompIntro
 0006:006BD280       `vtable for'Btl_AtkTaruTaihou::AtkPartIntro
 0006:006BD2A4       `vtable for'Btl_AtkTaruTaihou::AtkPartTotal
 0006:006BD2C8       `vtable for'Btl_AtkTaruTaihou::BASceneUpdAtkReady
 0006:006BD2EC       `vtable for'Btl_AtkTaruTaihou::RefCounterSlowAtkMode
 0006:006BD30C       `vtable for'Btl_AtkTaruTaihou::BASceneUpdDiveInBarrel
 0006:006BD330       `vtable for'Btl_AtkTaruTaihou::BASceneUpdSelectBarrel
 0006:006BD354       `vtable for'Btl_AtkTaruTaihou::BASceneUpdShuffleBarrel
 0006:006BD378       `vtable for'Btl_AtkTaruTaihou::BABarrelSingleUpdAtkItem
 0006:006BD39C       `vtable for'Btl_AtkTaruTaihou::BASceneUpdFallLandBarrel
 0006:006BD3C0       `vtable for'Btl_AtkTaruTaihou::BASceneUpdInvisibleBarrel
 0006:006BD3E4       `vtable for'Btl_AtkTaruTaihou::BABarrelSingleUpdSelectShake
 0006:006BD408       `vtable for'Btl_AtkTaruTaihou::BABarrelSingleUpdJumpTargeting
 0006:006BD42C       `vtable for'Btl_AtkTaruTaihou::BABarrelSingleUpdAtkShootPcFail
 0006:006BD450       `vtable for'Btl_AtkTaruTaihou::BABarrelSingleUpdAtkShootPcSucc
 0006:006BD474       `vtable for'Btl_AtkTaruTaihou::ChrCmd
 0006:006BD48C       `vtable for'Btl_AtkTaruTaihou::BAPcObj
 0006:006BD4A8       `vtable for'Btl_AtkTaruTaihou::BAScene
 0006:006BD4CC       `vtable for'Btl_AtkTaruTaihou::BAPcTeam
 0006:006BD4F0       `vtable for'Btl_AtkTaruTaihou::BAMonSolo
 0006:006BD500       `vtable for'Btl_AtkTaruTaihou::BAMonTeam
 0006:006BD524       `vtable for'Btl_OtameshiIntro::AtkPartIMF
 0006:006BD548       `vtable for'Btl_OtameshiIntro::BtlTask
 0006:006BD55C       `vtable for'Btl_AtkFuechauBall::AtkPartIMF
 0006:006BD580       `vtable for'Btl_AtkFuechauBall::CommonData
 0006:006BD598       `vtable for'Btl_AtkFuechauBall::AtkPartMain
 0006:006BD5BC       `vtable for'Btl_AtkFuechauBall::AtkPartFinal
 0006:006BD5E0       `vtable for'Btl_AtkFuechauBall::AtkPartIntro::UpdaterWaitReadyAtkComp
 0006:006BD604       `vtable for'Btl_AtkFuechauBall::AtkPartIntro::UpdaterWaitLoadCompIntro
 0006:006BD628       `vtable for'Btl_AtkFuechauBall::AtkPartIntro
 0006:006BD64C       `vtable for'Btl_AtkFuechauBall::BABallSingle
 0006:006BD664       `vtable for'Btl_AtkFuechauBall::BASceneUpdReady
 0006:006BD688       `vtable for'Btl_AtkFuechauBall::BASceneUpdMainAtk
 0006:006BD6AC       `vtable for'Btl_AtkFuechauBall::BASceneUpdWaitActive
 0006:006BD6D0       `vtable for'Btl_AtkFuechauBall::BABallSingleUpdAtkReady
 0006:006BD6F4       `vtable for'Btl_AtkFuechauBall::BABallSingleUpdBallLiner
 0006:006BD71C       `vtable for'Btl_AtkFuechauBall::BABallSingleUpdStepQueue
 0006:006BD740       `vtable for'Btl_AtkFuechauBall::BABallSingleUpdBallVanish
 0006:006BD764       `vtable for'Btl_AtkFuechauBall::BABallSingleUpdAppearQueue
 0006:006BD788       `vtable for'Btl_AtkFuechauBall::BABallSingleUpdBallThrowed
 0006:006BD7AC       `vtable for'Btl_AtkFuechauBall::ChrCmd
 0006:006BD7C4       `vtable for'Btl_AtkFuechauBall::BAPcSolo
 0006:006BD7D4       `vtable for'Btl_AtkFuechauBall::BAPcTeam
 0006:006BD7E4       `vtable for'Btl_AtkFuechauBall::BABallSet
 0006:006BD7F4       `vtable for'Btl_AtkFuechauBall::BAMonSolo
 0006:006BD808       `vtable for'Btl_AtkFuechauBall::BAMonTeam
 0006:006BD81C       `vtable for'Btl_AtkRocketBoard::AtkPartIMF
 0006:006BD840       `vtable for'Btl_AtkRocketBoard::AtkPartMain
 0006:006BD864       `vtable for'Btl_AtkRocketBoard::AtkPartFinal
 0006:006BD888       `vtable for'Btl_AtkRocketBoard::AtkPartIntro::UpdaterWaitReadyAtkComp
 0006:006BD8AC       `vtable for'Btl_AtkRocketBoard::AtkPartIntro::UpdaterWaitLoadCompIntro
 0006:006BD8D0       `vtable for'Btl_AtkRocketBoard::AtkPartIntro
 0006:006BD8F4       `vtable for'Btl_AtkRocketBoard::ChrCmd
 0006:006BD90C       `vtable for'Btl_AtkRocketBoard::BAPcTeam::UpdaterAtkMain
 0006:006BD930       `vtable for'Btl_AtkRocketBoard::BAPcTeam::UpdaterAtkReady
 0006:006BD954       `vtable for'Btl_AtkRocketBoard::BAPcTeam::UpdaterSubAccel
 0006:006BD980       `vtable for'Btl_AtkRocketBoard::BAPcTeam::UpdaterSubNeutral
 0006:006BD9AC       `vtable for'Btl_AtkRocketBoard::BAPcTeam::UpdaterSubSpdLimit
 0006:006BD9D8       `vtable for'Btl_AtkRocketBoard::BAPcTeam::UpdaterAtkEndCrashed
 0006:006BD9FC       `vtable for'Btl_AtkRocketBoard::BAPcTeam::UpdaterSubSpinHammer
 0006:006BDA28       `vtable for'Btl_AtkRocketBoard::BAPcTeam::UpdaterSubSpinHammerMiss
 0006:006BDA54       `vtable for'Btl_AtkRocketBoard::BAPcTeam::UpdaterSubSpinReadyNeutral
 0006:006BDA80       `vtable for'Btl_AtkRocketBoard::BAMonSolo::UpdaterFlyDodge
 0006:006BDAA0       `vtable for'Btl_AtkRocketBoard::BAMonSolo::UpdaterAtkScUchiage
 0006:006BDAC0       `vtable for'Btl_AtkRocketBoard::BAMonSolo
 0006:006BDAD0       `vtable for'Btl_AtkBaibaiFlower::UpdaterMain
 0006:006BDAF4       `vtable for'Btl_AtkBaibaiFlower::AtkPartFinal
 0006:006BDB18       `vtable for'Btl_AtkBaibaiFlower::AtkPartIntro::UpdaterWaitReadyAtkComp
 0006:006BDB3C       `vtable for'Btl_AtkBaibaiFlower::AtkPartIntro::UpdaterWaitLoadCompIntro
 0006:006BDB60       `vtable for'Btl_AtkBaibaiFlower::AtkPartIntro
 0006:006BDB84       `vtable for'Btl_AtkBaibaiFlower::BAPcTeamUpdAtkReady
 0006:006BDBA8       `vtable for'Btl_AtkBaibaiFlower::PcSoloUpdJumpAtkAbort
 0006:006BDBCC       `vtable for'Btl_AtkBaibaiFlower::PcSoloUpdJumpAtkToMon
 0006:006BDBF0       `vtable for'Btl_AtkBaibaiFlower::PcSoloUpdLineMovePart
 0006:006BDC14       `vtable for'Btl_AtkBaibaiFlower::PcSoloUpdPcBranchPart
 0006:006BDC38       `vtable for'Btl_AtkBaibaiFlower::PcTeamUpdPcBranchPart
 0006:006BDC5C       `vtable for'Btl_AtkBaibaiFlower::RefCounterSlowAtkMode
 0006:006BDC7C       `vtable for'Btl_AtkBaibaiFlower::PcSoloUpdJumpAtkSuccess
 0006:006BDCA0       `vtable for'Btl_AtkBaibaiFlower::PcSoloUpdJumpAtkThrough
 0006:006BDCC4       `vtable for'Btl_AtkBaibaiFlower::PcTeamUpdJumpAtkToMonPart
 0006:006BDCE8       `vtable for'Btl_AtkBaibaiFlower::PcSoloUpdJumpAtkFailBadTiming
 0006:006BDD0C       `vtable for'Btl_AtkBaibaiFlower::PcSoloUpdMoveToBackCirclePart
 0006:006BDD30       `vtable for'Btl_AtkBaibaiFlower::PcSoloUpdJumpAtkFailStompSpike
 0006:006BDD54       `vtable for'Btl_AtkBaibaiFlower::PcTeamUpdPcLineMovePartOrdered
 0006:006BDD78       `vtable for'Btl_AtkBaibaiFlower::ChrCmd
 0006:006BDD90       `vtable for'Btl_AtkBaibaiFlower::BAPcSolo
 0006:006BDDA8       `vtable for'Btl_AtkBaibaiFlower::BAMonSolo::UpdaterMonStomp
 0006:006BDDCC       `vtable for'Btl_AtkBaibaiFlower::BAMonSolo
 0006:006BDDDC       `vtable for'Btl_AtkBaibaiTaihou::AtkPartMain
 0006:006BDE00       `vtable for'Btl_AtkBaibaiTaihou::AtkPartFinal
 0006:006BDE24       `vtable for'Btl_AtkBaibaiTaihou::AtkPartIntro::UpdaterWaitReadyAtkComp
 0006:006BDE48       `vtable for'Btl_AtkBaibaiTaihou::AtkPartIntro::UpdaterWaitLoadCompIntro
 0006:006BDE6C       `vtable for'Btl_AtkBaibaiTaihou::AtkPartIntro
 0006:006BDE90       `vtable for'Btl_AtkBaibaiTaihou::PcSoloUpdJump1st
 0006:006BDEB4       `vtable for'Btl_AtkBaibaiTaihou::PcSoloUpdJumpAbort
 0006:006BDED8       `vtable for'Btl_AtkBaibaiTaihou::BAPcTeamUpdAtkReady
 0006:006BDEFC       `vtable for'Btl_AtkBaibaiTaihou::PcSoloUpdCannonShoot
 0006:006BDF20       `vtable for'Btl_AtkBaibaiTaihou::PcTeamUpdCannonShoot
 0006:006BDF44       `vtable for'Btl_AtkBaibaiTaihou::PcTeamUpdJump1stPart
 0006:006BDF68       `vtable for'Btl_AtkBaibaiTaihou::PcTeamUpdJump2ndPart
 0006:006BDF8C       `vtable for'Btl_AtkBaibaiTaihou::PcSoloUpdJump2ndFinish
 0006:006BDFB0       `vtable for'Btl_AtkBaibaiTaihou::PcSoloUpdJump1stSuccess
 0006:006BDFD4       `vtable for'Btl_AtkBaibaiTaihou::PcSoloUpdJump1stThrough
 0006:006BDFF8       `vtable for'Btl_AtkBaibaiTaihou::PcSoloUpdJump2ndSuccess
 0006:006BE01C       `vtable for'Btl_AtkBaibaiTaihou::PcSoloUpdJumpFailBadTiming
 0006:006BE040       `vtable for'Btl_AtkBaibaiTaihou::PcSoloUpdJumpFailStompSpike
 0006:006BE064       `vtable for'Btl_AtkBaibaiTaihou::ChrCmd
 0006:006BE07C       `vtable for'Btl_AtkBaibaiTaihou::BAPcSolo
 0006:006BE094       `vtable for'Btl_AtkBaibaiTaihou::BAMonSolo
 0006:006BE0A4       `vtable for'Btl_AtkAchichiFlower::AtkPartIMF
 0006:006BE0C8       `vtable for'Btl_AtkAchichiFlower::AtkPartMain
 0006:006BE0EC       `vtable for'Btl_AtkAchichiFlower::AtkPartFinal
 0006:006BE110       `vtable for'Btl_AtkAchichiFlower::AtkPartIntro::UpdaterWaitReadyAtkComp
 0006:006BE134       `vtable for'Btl_AtkAchichiFlower::AtkPartIntro::UpdaterWaitLoadCompIntro
 0006:006BE158       `vtable for'Btl_AtkAchichiFlower::AtkPartIntro
 0006:006BE17C       `vtable for'Btl_AtkAchichiFlower::BASceneNormal
 0006:006BE198       `vtable for'Btl_AtkAchichiFlower::SceneUpdAtkEnter
 0006:006BE1BC       `vtable for'Btl_AtkAchichiFlower::SceneUpdAtkExtend
 0006:006BE1E0       `vtable for'Btl_AtkAchichiFlower::SceneUpdAtkFinish
 0006:006BE204       `vtable for'Btl_AtkAchichiFlower::SceneUpdAtkNormal
 0006:006BE228       `vtable for'Btl_AtkAchichiFlower::MonSoloUpdFireMove
 0006:006BE24C       `vtable for'Btl_AtkAchichiFlower::MonSoloUpdFireBurst
 0006:006BE270       `vtable for'Btl_AtkAchichiFlower::MonTeamUpdFireBurst
 0006:006BE294       `vtable for'Btl_AtkAchichiFlower::PcSoloUpdExtendAppear
 0006:006BE2B8       `vtable for'Btl_AtkAchichiFlower::PcSoloUpdFireballBurst
 0006:006BE2DC       `vtable for'Btl_AtkAchichiFlower::PcSoloUpdFireballThrow
 0006:006BE300       `vtable for'Btl_AtkAchichiFlower::PcSoloUpdFireballGrowth
 0006:006BE324       `vtable for'Btl_AtkAchichiFlower::PcSoloUpdChangeToFireCos
 0006:006BE348       `vtable for'Btl_AtkAchichiFlower::PcSoloUpdChangeToNormalCos
 0006:006BE36C       `vtable for'Btl_AtkAchichiFlower::ChrCmd
 0006:006BE384       `vtable for'Btl_AtkAchichiFlower::BAScene
 0006:006BE3A0       `vtable for'Btl_AtkSnipePachinko::AtkPartMain
 0006:006BE3C4       `vtable for'Btl_AtkSnipePachinko::AtkPartFinal
 0006:006BE3E8       `vtable for'Btl_AtkSnipePachinko::AtkPartIntro::UpdaterWaitReadyAtkComp
 0006:006BE40C       `vtable for'Btl_AtkSnipePachinko::AtkPartIntro::UpdaterWaitLoadCompIntro
 0006:006BE430       `vtable for'Btl_AtkSnipePachinko::AtkPartIntro
 0006:006BE454       `vtable for'Btl_AtkSnipePachinko::AtkPartTotal
 0006:006BE478       `vtable for'Btl_AtkSnipePachinko::BASceneUpdAtkReady
 0006:006BE49C       `vtable for'Btl_AtkSnipePachinko::BAMonUpdDamageSmash
 0006:006BE4C0       `vtable for'Btl_AtkSnipePachinko::BAMonUpdDamageNormal
 0006:006BE4E4       `vtable for'Btl_AtkSnipePachinko::BASceneUpdAtkCharging
 0006:006BE508       `vtable for'Btl_AtkSnipePachinko::BASceneUpdAtkTargeting
 0006:006BE52C       `vtable for'Btl_AtkSnipePachinko::BASceneUpdAtkClashFloor
 0006:006BE550       `vtable for'Btl_AtkSnipePachinko::BASceneUpdAtkPostHitMon
 0006:006BE574       `vtable for'Btl_AtkSnipePachinko::BASceneUpdAtkLostStamina
 0006:006BE598       `vtable for'Btl_AtkSnipePachinko::BASceneUpdAtkShootHitStop
 0006:006BE5C0       `vtable for'Btl_AtkSnipePachinko::BASceneUpdAtkShootPiercing
 0006:006BE5E8       `vtable for'Btl_AtkSnipePachinko::BASceneUpdAtkPachinkoBeltSpringExp
 0006:006BE60C       `vtable for'Btl_AtkSnipePachinko::ChrCmd
 0006:006BE624       `vtable for'Btl_AtkSnipePachinko::BAScene
 0006:006BE648       `vtable for'Btl_AtkSnipePachinko::BAPcTeam
 0006:006BE66C       `vtable for'Btl_AtkSnipePachinko::BAMonSolo
 0006:006BE67C       `vtable for'Btl_AtkSnipePachinko::BAMonTeam
 0006:006BE6A0       `vtable for'Btl_AtkStarRocketChallenge::BAPcBooter
 0006:006BE6B4       `vtable for'Btl_AtkStarRocketChallenge::AtkPartMain
 0006:006BE6D8       `vtable for'Btl_AtkStarRocketChallenge::BAPcPartner
 0006:006BE6EC       `vtable for'Btl_AtkStarRocketChallenge::AtkPartFinal
 0006:006BE710       `vtable for'Btl_AtkStarRocketChallenge::AtkPartIntro::UpdaterWaitReadyAtkComp
 0006:006BE734       `vtable for'Btl_AtkStarRocketChallenge::AtkPartIntro
 0006:006BE758       `vtable for'Btl_AtkStarRocketChallenge::AtkPartTotal
 0006:006BE77C       `vtable for'Btl_AtkStarRocketChallenge::BASceneUpdAtkReady
 0006:006BE7A0       `vtable for'Btl_AtkStarRocketChallenge::BASceneUpdAtkClashFloor
 0006:006BE7C4       `vtable for'Btl_AtkStarRocketChallenge::BASceneUpdAtkCtrlRocket
 0006:006BE7E8       `vtable for'Btl_AtkStarRocketChallenge::BASceneUpdAtkEmptyEnergy
 0006:006BE80C       `vtable for'Btl_AtkStarRocketChallenge::BASceneUpdAtkClashDamageBalloon
 0006:006BE830       `vtable for'Btl_AtkStarRocketChallenge::BASceneUpdAtkFinishCounterStopped
 0006:006BE854       `vtable for'Btl_AtkStarRocketChallenge::ChrCmd
 0006:006BE86C       `vtable for'Btl_AtkStarRocketChallenge::BAScene
 0006:006BE890       `vtable for'Btl_AtkStarRocketChallenge::BAPcSolo
 0006:006BE8A4       `vtable for'Btl_AtkStarRocketChallenge::BAPcTeam
 0006:006BE8C8       `vtable for'Btl_AtkFuechauBallChallenge::AtkPartIMF
 0006:006BE8EC       `vtable for'Btl_AtkFuechauBallChallenge::CommonData
 0006:006BE904       `vtable for'Btl_AtkFuechauBallChallenge::AtkPartMain
 0006:006BE928       `vtable for'Btl_AtkFuechauBallChallenge::AtkPartFinal
 0006:006BE94C       `vtable for'Btl_AtkFuechauBallChallenge::AtkPartIntro::UpdaterWaitReadyAtkComp
 0006:006BE970       `vtable for'Btl_AtkFuechauBallChallenge::AtkPartIntro
 0006:006BE994       `vtable for'Btl_AtkFuechauBallChallenge::BABallSingle
 0006:006BE9AC       `vtable for'Btl_AtkFuechauBallChallenge::BASceneUpdReady
 0006:006BE9D0       `vtable for'Btl_AtkFuechauBallChallenge::BASceneUpdMainAtk
 0006:006BE9F4       `vtable for'Btl_AtkFuechauBallChallenge::BASceneUpdWaitActive
 0006:006BEA18       `vtable for'Btl_AtkFuechauBallChallenge::BABallSingleUpdAtkReady
 0006:006BEA3C       `vtable for'Btl_AtkFuechauBallChallenge::BABallSingleUpdBallLiner
 0006:006BEA64       `vtable for'Btl_AtkFuechauBallChallenge::BABallSingleUpdStepQueue
 0006:006BEA88       `vtable for'Btl_AtkFuechauBallChallenge::BABallSingleUpdBallVanish
 0006:006BEAAC       `vtable for'Btl_AtkFuechauBallChallenge::BABallSingleUpdAppearQueue
 0006:006BEAD0       `vtable for'Btl_AtkFuechauBallChallenge::BABallSingleUpdBallThrowedHidden
 0006:006BEB08       `vtable for'Btl_AtkFuechauBallChallenge::BABallSingleUpdBallThrowedNormal
 0006:006BEB40       `vtable for'Btl_AtkFuechauBallChallenge::BABallSingleUpdBallThrowedTimeStop
 0006:006BEB78       `vtable for'Btl_AtkFuechauBallChallenge::ChrCmd
 0006:006BEB90       `vtable for'Btl_AtkFuechauBallChallenge::BAPcSolo
 0006:006BEBA0       `vtable for'Btl_AtkFuechauBallChallenge::BAPcTeam
 0006:006BEBB0       `vtable for'Btl_AtkFuechauBallChallenge::BABallSet
 0006:006BEBC0       `vtable for'Btl_AtkFuechauBallChallenge::BAMonSolo
 0006:006BEBD4       `vtable for'Btl_AtkFuechauBallChallenge::BAMonTeam
 0006:006BEBE8       `vtable for'Btl_AtkBaibaiTaihouChallenge::AtkPartMain
 0006:006BEC0C       `vtable for'Btl_AtkBaibaiTaihouChallenge::AtkPartFinal
 0006:006BEC30       `vtable for'Btl_AtkBaibaiTaihouChallenge::AtkPartIntro::UpdaterWaitReadyAtkComp
 0006:006BEC54       `vtable for'Btl_AtkBaibaiTaihouChallenge::AtkPartIntro
 0006:006BEC78       `vtable for'Btl_AtkBaibaiTaihouChallenge::PcSoloUpdJump1st
 0006:006BEC9C       `vtable for'Btl_AtkBaibaiTaihouChallenge::PcSoloUpdJumpAbort
 0006:006BECC0       `vtable for'Btl_AtkBaibaiTaihouChallenge::BAPcTeamUpdAtkReady
 0006:006BECE4       `vtable for'Btl_AtkBaibaiTaihouChallenge::PcSoloUpdCannonShoot
 0006:006BED08       `vtable for'Btl_AtkBaibaiTaihouChallenge::PcTeamUpdCannonShoot
 0006:006BED2C       `vtable for'Btl_AtkBaibaiTaihouChallenge::PcTeamUpdJump1stPart
 0006:006BED50       `vtable for'Btl_AtkBaibaiTaihouChallenge::PcTeamUpdJump2ndPart
 0006:006BED74       `vtable for'Btl_AtkBaibaiTaihouChallenge::PcSoloUpdAtkFailRetry
 0006:006BED98       `vtable for'Btl_AtkBaibaiTaihouChallenge::PcTeamUpdAtkFailRetry
 0006:006BEDBC       `vtable for'Btl_AtkBaibaiTaihouChallenge::PcSoloUpdJump2ndFinish
 0006:006BEDE0       `vtable for'Btl_AtkBaibaiTaihouChallenge::PcSoloUpdJump1stSuccess
 0006:006BEE04       `vtable for'Btl_AtkBaibaiTaihouChallenge::PcSoloUpdJump1stThrough
 0006:006BEE28       `vtable for'Btl_AtkBaibaiTaihouChallenge::PcSoloUpdJump2ndSuccess
 0006:006BEE4C       `vtable for'Btl_AtkBaibaiTaihouChallenge::PcTeamUpdAtkRetrySeqSkip
 0006:006BEE70       `vtable for'Btl_AtkBaibaiTaihouChallenge::PcSoloUpdJumpFailBadTiming
 0006:006BEE94       `vtable for'Btl_AtkBaibaiTaihouChallenge::ChrCmd
 0006:006BEEAC       `vtable for'Btl_AtkBaibaiTaihouChallenge::BAPcSolo
 0006:006BEEC4       `vtable for'Btl_AtkBaibaiTaihouChallenge::BAMonSolo
 0006:006BEED4       `vtable for'Btl_AtkAchichiFlowerChallenge::AtkPartIMF
 0006:006BEEF8       `vtable for'Btl_AtkAchichiFlowerChallenge::AtkPartMain
 0006:006BEF1C       `vtable for'Btl_AtkAchichiFlowerChallenge::AtkPartFinal
 0006:006BEF40       `vtable for'Btl_AtkAchichiFlowerChallenge::AtkPartIntro::UpdaterWaitReadyAtkComp
 0006:006BEF64       `vtable for'Btl_AtkAchichiFlowerChallenge::AtkPartIntro
 0006:006BEF88       `vtable for'Btl_AtkAchichiFlowerChallenge::SceneUpdAtkEnter
 0006:006BEFAC       `vtable for'Btl_AtkAchichiFlowerChallenge::SceneUpdAtkExtend
 0006:006BEFD0       `vtable for'Btl_AtkAchichiFlowerChallenge::SceneUpdAtkFinish
 0006:006BEFF4       `vtable for'Btl_AtkAchichiFlowerChallenge::SceneUpdAtkNormal
 0006:006BF018       `vtable for'Btl_AtkAchichiFlowerChallenge::MonSoloUpdFireMove
 0006:006BF03C       `vtable for'Btl_AtkAchichiFlowerChallenge::MonSoloUpdFireBurst
 0006:006BF060       `vtable for'Btl_AtkAchichiFlowerChallenge::PcSoloUpdExtendAppear
 0006:006BF084       `vtable for'Btl_AtkAchichiFlowerChallenge::RefCounterSlowAtkMode
 0006:006BF0A4       `vtable for'Btl_AtkAchichiFlowerChallenge::PcSoloUpdFireballBurst
 0006:006BF0C8       `vtable for'Btl_AtkAchichiFlowerChallenge::PcSoloUpdFireballThrow
 0006:006BF0EC       `vtable for'Btl_AtkAchichiFlowerChallenge::PcSoloUpdFireballGrowth
 0006:006BF110       `vtable for'Btl_AtkAchichiFlowerChallenge::PcSoloUpdChangeToFireCos
 0006:006BF134       `vtable for'Btl_AtkAchichiFlowerChallenge::PcSoloUpdChangeToNormalCos
 0006:006BF158       `vtable for'Btl_AtkAchichiFlowerChallenge::ChrCmd
 0006:006BF170       `vtable for'Btl_AtkSnipePachinkoChallenge::AtkPartMain
 0006:006BF194       `vtable for'Btl_AtkSnipePachinkoChallenge::AtkPartFinal
 0006:006BF1B8       `vtable for'Btl_AtkSnipePachinkoChallenge::AtkPartIntro::UpdaterWaitReadyAtkComp
 0006:006BF1DC       `vtable for'Btl_AtkSnipePachinkoChallenge::AtkPartIntro
 0006:006BF200       `vtable for'Btl_AtkSnipePachinkoChallenge::AtkPartTotal
 0006:006BF224       `vtable for'Btl_AtkSnipePachinkoChallenge::BASceneUpdAtkReady
 0006:006BF248       `vtable for'Btl_AtkSnipePachinkoChallenge::BASceneUpdAtkCharging
 0006:006BF26C       `vtable for'Btl_AtkSnipePachinkoChallenge::BASceneUpdAtkTargeting
 0006:006BF290       `vtable for'Btl_AtkSnipePachinkoChallenge::BASceneUpdAtkClashFloor
 0006:006BF2B4       `vtable for'Btl_AtkSnipePachinkoChallenge::BASceneUpdAtkPostHitMon
 0006:006BF2D8       `vtable for'Btl_AtkSnipePachinkoChallenge::BASceneUpdRetrySequence
 0006:006BF2FC       `vtable for'Btl_AtkSnipePachinkoChallenge::BASceneUpdAtkLostStamina
 0006:006BF320       `vtable for'Btl_AtkSnipePachinkoChallenge::BASceneUpdAtkShootHitStop
 0006:006BF348       `vtable for'Btl_AtkSnipePachinkoChallenge::BtlObjUIRenderKeyOverride
 0006:006BF3A8       `vtable for'Btl_AtkSnipePachinkoChallenge::BASceneUpdAtkShootPiercing
 0006:006BF3D0       `vtable for'Btl_AtkSnipePachinkoChallenge::BASceneUpdAtkPachinkoBeltSpringExp
 0006:006BF3F4       `vtable for'Btl_AtkSnipePachinkoChallenge::ChrCmd
 0006:006BF40C       `vtable for'Btl_AtkSnipePachinkoChallenge::BAScene
 0006:006BF430       `vtable for'Btl_AtkSnipePachinkoChallenge::BAPcTeam
 0006:006BF454       `vtable for'Btl_AtkSnipePachinkoChallenge::BAMonSolo
 0006:006BF464       `vtable for'Btl_AtkSnipePachinkoChallenge::BAMonTeam
 0006:006BF488       `vtable for'MB::StateIntro
 0006:006BF4A4       `vtable for'MB::StateFinalize
 0006:006BF4C0       `vtable for'MB::yaUt::BtlColRead
 0006:006BF4E4       `vtable for'MB::yaUt::PhysicsObj
 0006:006BF500       `vtable for'MB::yaUt::OBBCollider
 0006:006BF52C       `vtable for'MB::yaUt::AABBCollider
 0006:006BF558       `vtable for'MB::yaUt::CollisionFunc
 0006:006BF570       `vtable for'MB::yaUt::SphereCollider
 0006:006BF59C       `vtable for'MB::yaUt::MiracleAtkIntro_Move
 0006:006BF5C0       `vtable for'MB::yaUt::MiracleAtkIntro_HoistLuigi
 0006:006BF5E4       `vtable for'MB::yaUt::MiracleAtkIntro_ThrowLuigi
 0006:006BF608       `vtable for'MB::yaUt::MiracleAtkIntro_AttachUnitDfx
 0006:006BF62C       `vtable for'MB::yaUt::ObjBase
 0006:006BF648       `vtable for'MB::yaUt::LinkNode
 0006:006BF660       `vtable for'MB::yaUt::ICollider
 0006:006BF68C       `vtable for'MB::StateMain
 0006:006BF6A8       `vtable for'MF::StateIntro
 0006:006BF6C4       `vtable for'MF::StateFinalize
 0006:006BF6E0       `vtable for'MF::BtlPcAtkMiracleFire
 0006:006BF6F8       `vtable for'MF::yaUt::PhysicsObj
 0006:006BF714       `vtable for'MF::yaUt::AABBCollider
 0006:006BF740       `vtable for'MF::yaUt::SphereCollider
 0006:006BF76C       `vtable for'MF::yaUt::MiracleAtkIntro_Fade
 0006:006BF7A0       `vtable for'MF::yaUt::MiracleAtkIntro_HoistLuigi
 0006:006BF7C4       `vtable for'MF::yaUt::MiracleAtkIntro_ThrowLuigi
 0006:006BF7E8       `vtable for'MF::yaUt::MiracleAtkIntro_AttachUnitDfx
 0006:006BF80C       `vtable for'MF::yaUt::ObjBase
 0006:006BF828       `vtable for'MF::yaUt::ICollider
 0006:006BF854       `vtable for'MF::ObjMon
 0006:006BF870       `vtable for'MF::Resource
 0006:006BF894       `vtable for'MF::StateMain
 0006:006BF8B0       `vtable for'MH::StateIntro
 0006:006BF8CC       `vtable for'MH::LuigiHammer::StateBound
 0006:006BF8E8       `vtable for'MH::LuigiHammer::StateSwing
 0006:006BF904       `vtable for'MH::LuigiHammer::StateThrow
 0006:006BF920       `vtable for'MH::LuigiHammer::StateDelete
 0006:006BF93C       `vtable for'MH::LuigiHammer::StateKuzure
 0006:006BF958       `vtable for'MH::LuigiHammer::StateFurikaburi
 0006:006BF974       `vtable for'MH::LuigiHammer::StateMakeHammer
 0006:006BF990       `vtable for'MH::StateFinalize
 0006:006BF9AC       `vtable for'MH::yaUt::BtlColRead
 0006:006BF9D0       `vtable for'MH::yaUt::PhysicsObj
 0006:006BF9EC       `vtable for'MH::yaUt::MiracleAtkIntro_Move
 0006:006BFA10       `vtable for'MH::yaUt::MiracleAtkIntro_HoistLuigi
 0006:006BFA34       `vtable for'MH::yaUt::MiracleAtkIntro_ThrowLuigi
 0006:006BFA58       `vtable for'MH::yaUt::MiracleAtkIntro_AttachUnitDfx
 0006:006BFA7C       `vtable for'MH::yaUt::ObjBase
 0006:006BFA98       `vtable for'MH::AtkCmd
 0006:006BFAB0       `vtable for'MH::ObjCam::StateGoHome
 0006:006BFACC       `vtable for'MH::ObjCam::StateAutoMove
 0006:006BFAE8       `vtable for'MH::ObjCam::StateCompress
 0006:006BFB04       `vtable for'MH::ObjCam::StateSwingFall
 0006:006BFB20       `vtable for'MH::ObjCam::StateSwingJump
 0006:006BFB3C       `vtable for'MH::ObjCam::StateMakeHammer
 0006:006BFB58       `vtable for'MH::ObjMon
 0006:006BFB8C       `vtable for'MH::ObjMario::MarioHammer::StateSwing
 0006:006BFBA8       `vtable for'MH::ObjMario::MarioHammer::StateThrow
 0006:006BFBC4       `vtable for'MH::ObjMario::MarioHammer::StateYuragi
 0006:006BFBE0       `vtable for'MH::ObjMario::MarioHammer::StateBalance
 0006:006BFBFC       `vtable for'MH::ObjMario::MarioHammer::StateAutoMove
 0006:006BFC18       `vtable for'MH::ObjMario::MarioHammer::StateFurikaburi
 0006:006BFC34       `vtable for'MH::ObjMario::MarioHammer::StateSwingExcellent
 0006:006BFC50       `vtable for'MH::ObjMario::MarioHammer::StateHit
 0006:006BFC6C       `vtable for'MH::ObjMario::MarioHammer::StateJump
 0006:006BFC88       `vtable for'MH::ObjMario::Move::StateAutoDash
 0006:006BFCA4       `vtable for'MH::ObjMario::Move::StateMakeHammer
 0006:006BFCC0       `vtable for'MH::Resource
 0006:006BFCE4       `vtable for'MH::ShockWave
 0006:006BFD08       `vtable for'MH::StateMain
 0006:006BFD24       `vtable for'MT::yaUt::MiracleAtkIntro_Move
 0006:006BFD48       `vtable for'MT::yaUt::MiracleAtkIntro_HoistLuigi
 0006:006BFD6C       `vtable for'MT::yaUt::MiracleAtkIntro_ThrowLuigi
 0006:006BFD90       `vtable for'MT::yaUt::MiracleAtkIntro_AttachUnitDfx
 0006:006BFDB4       `vtable for'MV::BtlPcAtkMiracleVolcano
 0006:006BFDCC       `vtable for'nn::fs::IPositionable
 0006:006BFE34       `vtable for'nn::fs::FileInputStream
 0006:006BFE6C       `vtable for'nn::fs::CTR::MPCore::detail::RomFsArchive::File
 0006:006BFEAC       `vtable for'nn::fs::CTR::MPCore::detail::RomFsArchive::Directory
 0006:006BFECC       `vtable for'nn::fs::CTR::MPCore::detail::RomFsArchive
 0006:006BFF1C       `vtable for'nn::fs::CTR::MPCore::detail::FileServerArchive::File
 0006:006BFF5C       `vtable for'nn::fs::CTR::MPCore::detail::FileServerArchive::Directory
 0006:006BFF7C       `vtable for'nn::fs::CTR::MPCore::detail::FileServerArchive
 0006:006BFFC0       `vtable for'nn::fs::CTR::MPCore::detail::ContentRomFsArchive
 0006:006C0010       `vtable for'nn::fnd::ExpHeapBase
 0006:006C0034       `vtable for'nn::fnd::UnitHeapBase
 0006:006C0058       `vtable for'nn::fnd::FrameHeapBase
 0006:006C007C       `vtable for'nn::fnd::ExpHeapTemplate<nn::os::LockPolicy::Object<nn::os::CriticalSection>>::Allocator
 0006:006C0094       `vtable for'nn::fnd::ExpHeapTemplate<nn::os::LockPolicy::Object<nn::os::CriticalSection>>
 0006:006C00B8       `vtable for'nn::fnd::UnitHeapTemplate<nn::os::LockPolicy::Object<nn::os::CriticalSection>>
 0006:006C00DC       `vtable for'nn::fnd::FrameHeapTemplate<nn::os::LockPolicy::NoLock>
 0006:006C0100       `vtable for'nn::fnd::HeapBase
 0006:006C0124       `vtable for'nn::hid::CTR::Gyroscope
 0006:006C0134       `vtable for'nn::srv::EventNotificationHandlerBase<nn::os::LightEvent>
 0006:006C0140       `vtable for'nn::ssl::detail::LibManager
 0006:006C0150       `vtable for'nn::font::ResFontBase
 0006:006C01C4       `vtable for'nn::font::ResFont
 0006:006C0238       `vtable for'nn::crypto::Sha256Context
 0006:006C0264       `vtable for'nw::lyt::ResourceAccessor
 0006:006C0288       `vtable for'nw::lyt::AnimTransformBasic
 0006:006C02B0       `vtable for'nw::lyt::ArcResourceAccessor
 0006:006C02D4       `vtable for'nw::lyt::Pane
 0006:006C034C       `vtable for'nw::lyt::Group
 0006:006C035C       `vtable for'nw::lyt::Drawer
 0006:006C0380       `vtable for'nw::lyt::Layout
 0006:006C03CC       `vtable for'nw::lyt::Window
 0006:006C0454       `vtable for'nw::lyt::Picture
 0006:006C04D4       `vtable for'nw::lyt::TextBox
 0006:006C055C       `vtable for'nw::lyt::Bounding
 0006:006C05D4       `vtable for'nw::lyt::DrawInfo
 0006:006C05E4       `vtable for'nw::lyt::Material
 0006:006C0618       `vtable for'nw::font::RectDrawer
 0006:006C063C       `vtable for'nw::font::ResFontBase
 0006:006C06B0       `vtable for'nw::font::TagProcessorBase<char>
 0006:006C06C8       `vtable for'nw::font::TagProcessorBase<wchar_t>
 0006:006C06E0       `vtable for'nw::font::ResFont
 0006:006C0754       `vtable for'Btl::HandleTmpl<BtlDfxUnit>
 0006:006C0768       `vtable for'Btl::HandleTmpl<BtlSndTask>
 0006:006C077C       `vtable for'MSB::MessageObj
 0006:006C0794       `vtable for'MSB::StateIntro
 0006:006C07B0       `vtable for'MSB::CamFollow_0
 0006:006C07C8       `vtable for'MSB::CamFollow_1
 0006:006C07E0       `vtable for'MSB::ObjSnowball
 0006:006C0820       `vtable for'MSB::ObjLuigiGroup
 0006:006C0860       `vtable for'MSB::StateFinalize
 0006:006C087C       `vtable for'MSB::SnowballRenderer
 0006:006C08E0       `vtable for'MSB::ObjUsefullCollider
 0006:006C08FC       `vtable for'MSB::BtlPcAtkMiracleSnowball
 0006:006C0914       `vtable for'MSB::yaUt::BtlColRead
 0006:006C0938       `vtable for'MSB::yaUt::PhysicsObj
 0006:006C0954       `vtable for'MSB::yaUt::AABBCollider
 0006:006C0980       `vtable for'MSB::yaUt::CollisionFunc
 0006:006C0998       `vtable for'MSB::yaUt::SphereCollider
 0006:006C09C4       `vtable for'MSB::yaUt::MiracleAtkIntro_Fade
 0006:006C09F8       `vtable for'MSB::yaUt::MiracleAtkIntro_MarioJump
 0006:006C0A1C       `vtable for'MSB::yaUt::MiracleAtkIntro_HoistLuigi
 0006:006C0A40       `vtable for'MSB::yaUt::MiracleAtkIntro_ThrowLuigi
 0006:006C0A64       `vtable for'MSB::yaUt::MiracleAtkIntro_AttachUnitDfx
 0006:006C0A88       `vtable for'MSB::yaUt::ObjBase
 0006:006C0AA4       `vtable for'MSB::yaUt::LinkNode
 0006:006C0ABC       `vtable for'MSB::yaUt::ICollider
 0006:006C0AE8       `vtable for'MSB::ObjCam
 0006:006C0B00       `vtable for'MSB::ObjMon
 0006:006C0B58       `vtable for'MSB::ObjLuigi
 0006:006C0BAC       `vtable for'MSB::ObjMario::SECallBack
 0006:006C0BC0       `vtable for'MSB::ObjMario
 0006:006C0BD8       `vtable for'MSB::Resource
 0006:006C0BFC       `vtable for'MSB::StateMain
 0006:006C0C18       `vtable for'Adsl::Internal::SharedCountP<BtlObjMove>
 0006:006C0C2C       `vtable for'Adsl::Internal::SharedCountP<Btl_AtkStarRocket::BAMonSolo>
 0006:006C0C40       `vtable for'Adsl::Internal::SharedCountP<Btl_AtkFuechauBall::BAMonSolo>
 0006:006C0C54       `vtable for'Adsl::Internal::SharedCountP<Btl_AtkAchichiFlower::BAFireball>
 0006:006C0C68       `vtable for'Adsl::Internal::SharedCountP<Btl_AtkAchichiFlower::BAMonSolo>
 0006:006C0C7C       `vtable for'Adsl::Internal::SharedCountP<Btl_AtkFuechauBallChallenge::BAMonSolo>
 0006:006C0C90       `vtable for'Adsl::Internal::SharedCountP<Btl_AtkAchichiFlowerChallenge::BAFireball>
 0006:006C0CA4       `vtable for'Adsl::Internal::SharedCountP<Btl_AtkAchichiFlowerChallenge::BAMonSolo>
 0006:006C0CB8       `vtable for'Adsl::Internal::SharedCountP<Btl_AtkSnipePachinkoChallenge::BAMonSolo>
 0006:006C0CCC       `vtable for'Adsl::Internal::SharedCountP<BETPcWin::UIParamDispU>
 0006:006C0CE0       `vtable for'Adsl::Internal::SharedCountP<BETPcWin::UIObjectsDispL>
 0006:006C0CF4       `vtable for'Adsl::Internal::SharedCountP<BETPcWin::UIBtlResultDispU>
 0006:006C0D08       `vtable for'Adsl::Internal::SharedCountP<BETPcWin::UISharedObjectsTuple>
 0006:006C0D1C       `vtable for'Adsl::Internal::SharedCountP<BETPcWin::ObjCA>
 0006:006C0D30       `vtable for'Adsl::Internal::SharedCountPD<BtlDfxUnit,hoBtlUtil::hoDfxUnitKillFunctor>
 0006:006C0D44       `vtable for'Bomb::Hit
 0006:006C0D58       `vtable for'Bomb::Drop
 0006:006C0D6C       `vtable for'Bomb::Fall
 0006:006C0D80       `vtable for'Bomb::Disable
 0006:006C0D94       `vtable for'Bomb::Expl_Hit
 0006:006C0DA8       `vtable for'Bomb::Expl_Miss
 0006:006C0DBC       `vtable for'UITM::MainProcess
 0006:006C0DE0       `vtable for'UITM::AttackMLTask
 0006:006C0E04       `vtable for'UITM::AttackBallTask
 0006:006C0E28       `vtable for'UITM::MainProcess_Resurrect
 0006:006C0E4C       `vtable for'UITM::MainProcess_ChokkaiBall
 0006:006C0E70       `vtable for'UITM::MainProcess_BombBoxCommon::Process_ThrowAnm
 0006:006C0E94       `vtable for'UITM::MainProcess_BombBoxCommon::Process_SecretBox
 0006:006C0EB8       `vtable for'UITM::MainProcess_BombBoxCommon::Process_BikkuriBomb
 0006:006C0EDC       `vtable for'UITM::MainProcess_BombBoxCommon
 0006:006C0F00       `vtable for'UITM::MainProcess_ResurrectMame
 0006:006C0F24       `vtable for'UITM::EatML
 0006:006C0F48       `vtable for'UITM::MoveItem
 0006:006C0F6C       `vtable for'UITM::Resource
 0006:006C0F90       `vtable for'adsl::gfx::AnimBinding
 0006:006C0FA0       `vtable for'adsl::gfx::VertexLight
 0006:006C0FDC       `vtable for'adsl::gfx::AmbientLight
 0006:006C1018       `vtable for'adsl::gfx::MeshRenderer
 0006:006C1028       `vtable for'adsl::gfx::SceneContext
 0006:006C1038       `vtable for'adsl::gfx::SceneUpdater
 0006:006C1060       `vtable for'adsl::gfx::AnimEvaluator
 0006:006C109C       `vtable for'adsl::gfx::FragmentLight
 0006:006C10D8       `vtable for'adsl::gfx::RenderContext
 0006:006C10E8       `vtable for'adsl::gfx::ShaderProgram
 0006:006C10F8       `vtable for'adsl::gfx::SkeletalModel
 0006:006C112C       `vtable for'adsl::gfx::TransformNode
 0006:006C1160       `vtable for'adsl::gfx::SceneTraverser
 0006:006C11A0       `vtable for'adsl::gfx::OffScreenBuffer
 0006:006C11BC       `vtable for'adsl::gfx::SceneInitializer
 0006:006C11FC       `vtable for'adsl::gfx::StandardSkeleton
 0006:006C1238       `vtable for'adsl::gfx::BaseAnimEvaluator
 0006:006C1274       `vtable for'adsl::gfx::MaterialActivator
 0006:006C128C       `vtable for'adsl::gfx::RotateViewUpdater
 0006:006C12B0       `vtable for'adsl::gfx::AimTargetViewUpdater
 0006:006C12D4       `vtable for'adsl::gfx::AnimBlendOpTransform
 0006:006C12F8       `vtable for'adsl::gfx::OrthoProjectionUpdater
 0006:006C131C       `vtable for'adsl::gfx::TransformAnimEvaluator
 0006:006C1358       `vtable for'adsl::gfx::LookAtTargetViewUpdater
 0006:006C137C       `vtable for'adsl::gfx::SceneEnvironmentSetting
 0006:006C1390       `vtable for'adsl::gfx::SimpleMaterialActivator
 0006:006C13A8       `vtable for'adsl::gfx::FrustumProjectionUpdater
 0006:006C13CC       `vtable for'adsl::gfx::TransformAnimBlendOpQuat
 0006:006C13F0       `vtable for'adsl::gfx::SortingMaterialIdGenerator
 0006:006C140C       `vtable for'adsl::gfx::PerspectiveProjectionUpdater
 0006:006C1430       `vtable for'adsl::gfx::TransformAnimBlendOpAccScale
 0006:006C1454       `vtable for'adsl::gfx::TransformAnimBlendOpStandard
 0006:006C1478       `vtable for'adsl::gfx::TransformAnimBlendOpAccScaleQuat
 0006:006C149C       `vtable for'adsl::gfx::Fog
 0006:006C14D0       `vtable for'adsl::gfx::Light
 0006:006C150C       `vtable for'adsl::gfx::Model
 0006:006C1540       `vtable for'adsl::gfx::Camera
 0006:006C1574       `vtable for'adsl::gfx::LightSet
 0006:006C1588       `vtable for'adsl::gfx::Material
 0006:006C159C       `vtable for'adsl::gfx::Skeleton
 0006:006C15D8       `vtable for'adsl::gfx::AnimGroup
 0006:006C15E8       `vtable for'adsl::gfx::SceneNode
 0006:006C1618       `vtable for'adsl::anim::AnimResult
 0006:006C1628       `vtable for'adsl::anim::AnimBlendOpInt
 0006:006C164C       `vtable for'adsl::anim::AnimBlendOpBool
 0006:006C1670       `vtable for'adsl::anim::AnimBlendOpFloat
 0006:006C1694       `vtable for'adsl::anim::AnimBlendOpTexture
 0006:006C16B8       `vtable for'adsl::anim::AnimBlendOpVector2
 0006:006C16DC       `vtable for'adsl::anim::AnimBlendOpVector3
 0006:006C1700       `vtable for'adsl::anim::AnimFrameController
 0006:006C1710       `vtable for'adsl::anim::AnimBlendOpRgbaColor
 0006:006C1734       `vtable for'adsl::anim::AnimFrame
 0006:006C1744       `vtable for'yaUt::MsgReciverProxy
 0006:006C1758       `vtable for'BTLMJ::StompTaskCallback
 0006:006C176C       `vtable for'BTLMJ::yaUt::AABBCollider
 0006:006C1798       `vtable for'BTLMJ::yaUt::MiracleAtkIntro_Fade
 0006:006C17CC       `vtable for'BTLMJ::yaUt::MiracleAtkIntro_MarioJump
 0006:006C17F0       `vtable for'BTLMJ::yaUt::MiracleAtkIntro_HoistLuigi
 0006:006C1814       `vtable for'BTLMJ::yaUt::MiracleAtkIntro_ThrowLuigi
 0006:006C1838       `vtable for'BTLMJ::yaUt::MiracleAtkIntro_AttachUnitDfx
 0006:006C185C       `vtable for'BTLMJ::yaUt::ICollider
 0006:006C1888       `vtable for'Badge::ObjBtnBase
 0006:006C18C8       `vtable for'Badge::ObjConfirm
 0006:006C1908       `vtable for'Badge::ObjECSumPt
 0006:006C1948       `vtable for'Badge::ObjMsgBase
 0006:006C1988       `vtable for'Badge::ObjActMeter
 0006:006C19C8       `vtable for'Badge::ObjECPlusPt
 0006:006C1A08       `vtable for'Badge::ObjSelBadge
 0006:006C1A48       `vtable for'Badge::ObjAtkExpImg
 0006:006C1A88       `vtable for'Badge::ObjAtkExpMsg
 0006:006C1AC8       `vtable for'Badge::ObjStockBase
 0006:006C1B14       `vtable for'Badge::ObjBtnOverlay
 0006:006C1B54       `vtable for'Badge::ObjNumPnlBase
 0006:006C1B94       `vtable for'Badge::ObjStockPanel
 0006:006C1BE0       `vtable for'Badge::ObjBadgeEffMsg
 0006:006C1C20       `vtable for'Badge::ObjBadgeEffPopup
 0006:006C1C60       `vtable for'Badge::ObjECDetailWindow
 0006:006C1CA0       `vtable for'Badge::ObjBg
 0006:006C1CE4       `vtable for'Badge::ObjBase
 0006:006C1D24       `vtable for'Badge::ObjList
 0006:006C1D34       `vtable for'Badge::ObjStock
 0006:006C1D80       `vtable for'Badge::DfxHandle
 0006:006C1D90       `vtable for'Badge::ObjECList::ListWnd
 0006:006C1DE0       `vtable for'Badge::ObjECList
 0006:006C1E78       `vtable for'BtlFS::FileUnit
 0006:006C1EB8       `vtable for'BtlFS::FReadUnit
 0006:006C1ED0       `vtable for'BtlPc::SpEffActHpLimit
 0006:006C1F04       `vtable for'BtlPc::SpEffActLuckyTime
 0006:006C1F38       `vtable for'BtlPc::SpEffActGhostCookie
 0006:006C1F6C       `vtable for'BtlPc::SpEffActLuckyChance
 0006:006C1FA0       `vtable for'BTLFLC::FlcResource
 0006:006C1FC4       `vtable for'BTLFLC::SyncObjTask
 0006:006C1FDC       `vtable for'BTLFLC::SyncPosTask
 0006:006C1FF4       `vtable for'BTLFLC::Task_Target::DmgStompEnd
 0006:006C2008       `vtable for'BTLFLC::Task_Target
 0006:006C203C       `vtable for'BTLFLC::Task_ShockWave
 0006:006C2054       `vtable for'BTLFLC::Task_GameManager
 0006:006C2088       `vtable for'BTLFLC::GameManager_Intro
 0006:006C20A8       `vtable for'BTLFLC::MLControllTask_Spin
 0006:006C20C0       `vtable for'BTLFLC::GameManager_Game_LV1
 0006:006C20E0       `vtable for'BTLFLC::GameManager_Game_LV2
 0006:006C2100       `vtable for'BTLFLC::MLControllTask_GoHome
 0006:006C2118       `vtable for'BTLFLC::Task_AttackTerminater
 0006:006C214C       `vtable for'BTLFLC::MLControllTask_Futtobi
 0006:006C2164       `vtable for'BTLFLC::MLControllTask_GameLV1
 0006:006C217C       `vtable for'BTLFLC::MLControllTask_GameLV2
 0006:006C2194       `vtable for'BTLFLC::FlcControllTask_Destroy
 0006:006C21AC       `vtable for'BTLFLC::FlcControllTask_GameLV1
 0006:006C21C4       `vtable for'BTLFLC::FlcControllTask_GameLV2
 0006:006C21DC       `vtable for'BTLFLC::MLControllTask_Fukkatsu
 0006:006C21F4       `vtable for'BTLFLC::FlcControllTask_SpinAfter
 0006:006C220C       `vtable for'BTLFLC::FlcControllTask_AutoAttack
 0006:006C2224       `vtable for'BTLFLC::MLControllTask_StompEffect
 0006:006C223C       `vtable for'BTLFLC::Task_ML
 0006:006C2270       `vtable for'BTLFLC::FadeTask
 0006:006C2288       `vtable for'BTLFLC::Task_Cam
 0006:006C22BC       `vtable for'BTLFLC::Task_Flc
 0006:006C22F0       `vtable for'BTLFLC::WaitTask
 0006:006C2308       `vtable for'BtlEnc::TaskBattleEncount
 0006:006C2324       `vtable for'BtlMon::SpEffActTimeStop
 0006:006C2358       `vtable for'hoUtil::hoRefCounter
 0006:006C2378       `vtable for'hoUtil::hoPrimRenderer
 0006:006C2388       `vtable for'hoUtil::hoShapeRenderer
 0006:006C2398       `vtable for'hoUtil::hoQuadTreeObject
 0006:006C23A8       `vtable for'hoUtil::hoListableObjectBase
 0006:006C23B8       `vtable for'AkmAtk4::CmdStateIntro
 0006:006C23D4       `vtable for'AkmAtk4::IntroInternal::Resource
 0006:006C23F8       `vtable for'AkmAtk4::CmdStateEscape::StateHitHole
 0006:006C2414       `vtable for'AkmAtk4::CmdStateEscape::StateGameOver
 0006:006C2430       `vtable for'AkmAtk4::CmdStateEscape::StateMove
 0006:006C244C       `vtable for'AkmAtk4::CmdStateEscape
 0006:006C2468       `vtable for'AkmAtk4::EscapeInternal::MarioObj::StateEscape
 0006:006C2484       `vtable for'AkmAtk4::EscapeInternal::MarioObj::StateHitHole
 0006:006C24A0       `vtable for'AkmAtk4::EscapeInternal::MarioObj::StateHitBullet
 0006:006C24BC       `vtable for'AkmAtk4::EscapeInternal::AkkumuObj::StateIdle
 0006:006C24D8       `vtable for'AkmAtk4::EscapeInternal::AkkumuObj::StateShot
 0006:006C24F4       `vtable for'AkmAtk4::AkmAtk4Internal::AkmFall
 0006:006C2518       `vtable for'AkmAtk4::CmdStateExitEnd
 0006:006C2534       `vtable for'AkmAtk4::CmdStateLoopEnd
 0006:006C2550       `vtable for'AkmAtk4::CmdStateMinigame::StateGame
 0006:006C256C       `vtable for'AkmAtk4::CmdStateMinigame
 0006:006C2588       `vtable for'AkmAtk4::CmdStateGameOverEnd
 0006:006C25A4       `vtable for'AkmAtk4::AtkCmd
 0006:006C25BC       `vtable for'AkmAtk4::HoleObj
 0006:006C25E8       `vtable for'BtlMain::VSyncThread
 0006:006C25FC       `vtable for'BtlMain::BadgeDfxWrap
 0006:006C2608       `vtable for'BtlMain::BtlMapDfxWrap
 0006:006C2614       `vtable for'FieldPC::FieldPCColChr
 0006:006C296C       `vtable for'BETPcWin::ObjectBase
 0006:006C2984       `vtable for'BETPcWin::UIObjLevel
 0006:006C29A0       `vtable for'BETPcWin::ObjMsgDrawer
 0006:006C29B8       `vtable for'BETPcWin::ObjMsgSimple
 0006:006C29D0       `vtable for'BETPcWin::UIParamDispU
 0006:006C29EC       `vtable for'BETPcWin::ObjSlotDigits
 0006:006C2A04       `vtable for'BETPcWin::SceneUpdL2LvUp
 0006:006C2A28       `vtable for'BETPcWin::UIObjectsDispL
 0006:006C2A44       `vtable for'BETPcWin::UIRankBonusList
 0006:006C2A5C       `vtable for'BETPcWin::MsgWriterPtrWrap
 0006:006C2A78       `vtable for'BETPcWin::SceneUpdL2RankUp
 0006:006C2A9C       `vtable for'BETPcWin::UIBtlResultDispU
 0006:006C2AB8       `vtable for'BETPcWin::UIObjectListBase
 0006:006C2AD4       `vtable for'BETPcWin::ObjBonusParamSlot
 0006:006C2AEC       `vtable for'BETPcWin::SceneUpdL2ParamUp
 0006:006C2B10       `vtable for'BETPcWin::SceneUpdBtlEndExit
 0006:006C2B34       `vtable for'BETPcWin::SceneUpdL3RankBonus
 0006:006C2B58       `vtable for'BETPcWin::UIObjectsPerDisplay
 0006:006C2B70       `vtable for'BETPcWin::SceneUpdBtlEndResult
 0006:006C2B94       `vtable for'BETPcWin::SceneUpdL3ParamBonus
 0006:006C2BB8       `vtable for'BETPcWin::SceneUpdL3ParamUpEnd
 0006:006C2BDC       `vtable for'BETPcWin::SceneUpdL3RankUpExit
 0006:006C2C00       `vtable for'BETPcWin::UISharedObjectsTuple
 0006:006C2C1C       `vtable for'BETPcWin::ObjPrimRendererStable
 0006:006C2C34       `vtable for'BETPcWin::ObjectListBObjAdapter
 0006:006C2C94       `vtable for'BETPcWin::SceneUpdL2ReLvUpEnter
 0006:006C2CB8       `vtable for'BETPcWin::SceneUpdL3ParamUpView
 0006:006C2CDC       `vtable for'BETPcWin::SceneUpdL3RankUpEnter
 0006:006C2D00       `vtable for'BETPcWin::SceneUpdL4ParamViewAdd
 0006:006C2D24       `vtable for'BETPcWin::SceneUpdPcGrowthRepeat
 0006:006C2D48       `vtable for'BETPcWin::SceneUpdL2PcGrowthEnter
 0006:006C2D6C       `vtable for'BETPcWin::SceneUpdL2TutorialBtlResult
 0006:006C2D90       `vtable for'BETPcWin::SceneUpdL4ParamViewCounting
 0006:006C2DB4       `vtable for'BETPcWin::SceneUpdL2PcGrowthEndChangePc
 0006:006C2DD8       `vtable for'BETPcWin::SceneUpdL4ParamViewScreenEnter
 0006:006C2DFC       `vtable for'BETPcWin::SceneUpdBtlResultEndPrePcGrowth
 0006:006C2E20       `vtable for'BETPcWin::ObjCA
 0006:006C2E38       `vtable for'BETPcWin::Scene
 0006:006C2E48       `vtable for'BETPcWin::ObjMdl
 0006:006C2E60       `vtable for'BtlAtkMD::StateIntro
 0006:006C2E7C       `vtable for'BtlAtkMD::StateGoHome
 0006:006C2E98       `vtable for'BtlAtkMD::StateDribble
 0006:006C2ECC       `vtable for'BtlAtkMD::CharStateKick
 0006:006C2EE8       `vtable for'BtlAtkMD::BtlMDAnimState
 0006:006C2EFC       `vtable for'BtlAtkMD::StatePassShoot
 0006:006C2F30       `vtable for'BtlAtkMD::CharStateYoroke
 0006:006C2F4C       `vtable for'BtlAtkMD::CharStateFuttobi
 0006:006C2F68       `vtable for'BtlAtkMD::CharStateShootEx
 0006:006C2F84       `vtable for'BtlAtkMD::CharStateSuccess
 0006:006C2FA0       `vtable for'BtlAtkMD::CharStateWaiting
 0006:006C2FBC       `vtable for'BtlAtkMD::CharStateAccessor
 0006:006C2FD0       `vtable for'BtlAtkMD::CharStateKickReady
 0006:006C2FEC       `vtable for'BtlAtkMD::CharStatePartnerNGReaction
 0006:006C3008       `vtable for'REDSPARK::Sd::RSTrackMan
 0006:006C3018       `vtable for'REDSPARK::Sd::RSVoiceMan
 0006:006C3028       `vtable for'REDSPARK::Sd::RSSound
 0006:006C3038       `vtable for'REDSPARK::Sd::RSMemory
 0006:006C3048       `vtable for'REDSPARK::Sd::RSDataMan
 0006:006C3058       `vtable for'BtlMdlAlc::NwAlc
 0006:006C3070       `vtable for'hoBtlUtil::hoBtlTimer<float>::Impl
 0006:006C30D0       `vtable for'hoBtlUtil::BtlMeterObj
 0006:006C3130       `vtable for'hoBtlUtil::BtlSlotTimer
 0006:006C3140       `vtable for'hoBtlUtil::hoGyroStatus
 0006:006C3150       `vtable for'hoBtlUtil::BtlOtehonUIObj
 0006:006C31B4       `vtable for'hoBtlUtil::BtlPriorityObj
 0006:006C3218       `vtable for'hoBtlUtil::BtlLifeCountObj
 0006:006C3278       `vtable for'hoBtlUtil::BtlObjMesSimple
 0006:006C32D8       `vtable for'hoBtlUtil::BtlSlotTimerObj
 0006:006C3338       `vtable for'hoBtlUtil::hoBtlSlotDigits
 0006:006C3348       `vtable for'hoBtlUtil::BtlScoreCountObj::UpdaterScorePopup
 0006:006C3358       `vtable for'hoBtlUtil::BtlScoreCountObj
 0006:006C33B8       `vtable for'hoBtlUtil::BtlSlotDigitsObj
 0006:006C3418       `vtable for'hoBtlUtil::hoBtlTaskWeakPtr::BtlTaskCallback
 0006:006C342C       `vtable for'hoBtlUtil::hoLazyKillUpdater
 0006:006C3450       `vtable for'hoBtlUtil::BtlStereoSwitchObj
 0006:006C34B0       `vtable for'hoBtlUtil::hoBtlObjUIGuideBtn
 0006:006C3514       `vtable for'hoBtlUtil::BtlMinigameDispLObj
 0006:006C3574       `vtable for'hoBtlUtil::BtlMinigameStartObj
 0006:006C35D4       `vtable for'hoBtlUtil::hoParallelUpdaterFS<Adsl::LinkedPtr<hoBtlUtil::hoUpdater,Adsl::PtrDeleteFunctor<hoBtlUtil::hoUpdater>>,16u>
 0006:006C35F8       `vtable for'hoBtlUtil::hoParallelUpdaterFS<Adsl::LinkedPtr<hoBtlUtil::hoUpdater,Adsl::PtrDeleteFunctor<hoBtlUtil::hoUpdater>>,4u>
 0006:006C361C       `vtable for'hoBtlUtil::hoParallelUpdaterFS<hoBtlUtil::BtlScoreCountObj::UpdaterScorePopup *,32u>
 0006:006C3640       `vtable for'hoBtlUtil::hoParallelUpdaterFS<hoBtlUtil::BtlSlotTimerObjForMinigame::UpdaterTimerPopup *,32u>
 0006:006C3664       `vtable for'hoBtlUtil::hoParallelUpdaterFS<hoBtlUtil::UpdaterAtkCommon_PcSoloMove *,2u>
 0006:006C3688       `vtable for'hoBtlUtil::hoParallelUpdaterFS<hoBtlUtil::hoUpdater *,16u>
 0006:006C36AC       `vtable for'hoBtlUtil::hoParallelUpdaterFS<hoBtlUtil::hoUpdater *,2u>
 0006:006C36D0       `vtable for'hoBtlUtil::hoSequenceUpdaterFS<Adsl::LinkedPtr<hoBtlUtil::hoUpdater,Adsl::PtrDeleteFunctor<hoBtlUtil::hoUpdater>>,16u>
 0006:006C36F4       `vtable for'hoBtlUtil::hoSequenceUpdaterFS<Adsl::LinkedPtr<hoBtlUtil::hoUpdater,Adsl::PtrDeleteFunctor<hoBtlUtil::hoUpdater>>,4u>
 0006:006C3718       `vtable for'hoBtlUtil::hoSequenceUpdaterFS<Adsl::LinkedPtr<hoBtlUtil::hoUpdater,Adsl::PtrDeleteFunctor<hoBtlUtil::hoUpdater>>,8u>
 0006:006C373C       `vtable for'hoBtlUtil::hoSequenceUpdaterFS<Btl_AtkRocketBoard::BAPcTeam::UpdaterAtkMainSub *,4u>
 0006:006C3760       `vtable for'hoBtlUtil::hoSequenceUpdaterFS<hoBtlUtil::hoUpdater *,16u>
 0006:006C3784       `vtable for'hoBtlUtil::BtlMinigameFinishObj
 0006:006C37E8       `vtable for'hoBtlUtil::hoBtlObjTutorialUIBtnA
 0006:006C384C       `vtable for'hoBtlUtil::hoBtlObjTutorialUIBtnB
 0006:006C38B0       `vtable for'hoBtlUtil::hoBtlObjTutorialUISPad
 0006:006C3914       `vtable for'hoBtlUtil::hoBtlRefCntSlowAtkMode::BtlObjSlowFx
 0006:006C3974       `vtable for'hoBtlUtil::hoBtlRefCntSlowAtkMode
 0006:006C3994       `vtable for'hoBtlUtil::hoShapeRendererAdapter::Impl
 0006:006C39F4       `vtable for'hoBtlUtil::UpdaterAtkCommon_CamMove
 0006:006C3A18       `vtable for'hoBtlUtil::UpdaterAtkCommon_WaitTime
 0006:006C3A3C       `vtable for'hoBtlUtil::BtlSlotTimerObjForMinigame::UpdaterTimerPopup
 0006:006C3A4C       `vtable for'hoBtlUtil::BtlSlotTimerObjForMinigame
 0006:006C3AAC       `vtable for'hoBtlUtil::UpdaterAtkCommon_PcCamMove
 0006:006C3AD0       `vtable for'hoBtlUtil::UpdaterAtkCommon_PcPairMove
 0006:006C3AF4       `vtable for'hoBtlUtil::UpdaterAtkCommon_PcSoloMove
 0006:006C3B18       `vtable for'hoBtlUtil::UpdaterAtkCommon_ScreenFade
 0006:006C3B3C       `vtable for'hoBtlUtil::UpdaterAtkCommon_ObjPosSetter<8u>
 0006:006C3B60       `vtable for'hoBtlUtil::UpdaterAtkCommon_PcAppearItem
 0006:006C3B84       `vtable for'hoBtlUtil::UpdaterAtkCommon_MiniGameStart
 0006:006C3BA8       `vtable for'hoBtlUtil::UpdaterAtkCommon_WaitTrgBootBtn
 0006:006C3BCC       `vtable for'hoBtlUtil::UpdaterAtkCommon_PcCamMoveAtkEnd
 0006:006C3BF0       `vtable for'hoBtlUtil::UpdaterAtkCommon_MiniGameTimerPopup
 0006:006C3C14       `vtable for'std::locale::facet
 0006:006C3C28       `vtable for'std::ctype_byname<char>
 0006:006C3C5C       `vtable for'std::__rw_exception
 0006:006C3CA0       `vtable for'std::collate_byname<char>
 0006:006C3CC0       `vtable for'std::ctype<char>
 0006:006C3CF4       `vtable for'std::collate<char>
 0006:006C3D14       `vtable for'std::messages<char>
 0006:006C3D34       `vtable for'std::numpunct<char>
 0006:006C3D5C       `vtable for'std::exception
 0006:006C3E70       aBturaatk0
 0006:006C3E7A       aBturaatk01
 0006:006C3E86       aBturaatk1
 0006:006C3E90       aTunogonatk1
 0006:006C3E9C       aMasanisatk3
 0006:006C3EA8       aKameckatk4
 0006:006C3EB3       aAkkumuatk4
 0006:006C3EBE       aBtlentrypccmd
 0006:006C3ECD       aBtlentrymoncmd
 0006:006C3EDD       aCparalr
 0006:006C3EE5       aCpara2d
 0006:006C3EED       aBnopara2d
 0006:006C3EF7       aCproj2d
 0006:006C3EFF       aCwld
 0006:006C3F04       aCproj
 0006:006C3F0A       aIclr
 0006:006C3F0F       aIpos
 0006:006C3F14       aCview
 0006:006C3F1A       aCtex
 0006:006C3F1F       aItex
 0006:006C3F24       aErrF
 0006:006C3F2A       aHidUser
 0006:006C3F33       aHidSpvr
 0006:006C3F3C       aPtmSysm
 0006:006C3F45       aPtmS
 0006:006C3F4B       aPtmGets
 0006:006C3F54       aPtmU
 0006:006C3F5A       aPtmPlay
 0006:006C3F63       aUvertextexcoor
 0006:006C3F74       aUrcptexsize0
 0006:006C3F81       aUtexmtx0
 0006:006C3F8A       aUvertextexcoor_0
 0006:006C3F9B       aUtexmtx1
 0006:006C3FA4       aUvertextexcoor_1
 0006:006C3FB5       aUtexmtx2
 0006:006C3FBE       aDmpTexenv0Cons
 0006:006C3FD6       aDmpTexenv1Cons
 0006:006C3FEE       aDmpTexenv2Cons
 0006:006C4006       aDmpTexenv3Cons_0
 0006:006C401E       aDmpTexenv4Cons_0
 0006:006C4036       aDmpTexenv5Cons_0
 0006:006C404E       aDmpTexenv0Srca
 0006:006C4065       aDmpTexenv1Srca
 0006:006C407C       aDmpTexenv2Srca
 0006:006C4093       aDmpTexenv3Srca_0
 0006:006C40AA       aDmpTexenv4Srca_0
 0006:006C40C1       aDmpTexenv5Srca_0
 0006:006C40D8       aDmpTexenv0Oper
 0006:006C40F3       aDmpTexenv1Oper
 0006:006C410E       aDmpTexenv2Oper
 0006:006C4129       aDmpTexenv3Oper_1
 0006:006C4144       aDmpTexenv4Oper_1
 0006:006C415F       aDmpTexenv5Oper_1
 0006:006C417A       aDmpTexenv0Scal
 0006:006C4193       aDmpTexenv1Scal
 0006:006C41AC       aDmpTexenv2Scal
 0006:006C41C5       aDmpTexenv3Scal_1
 0006:006C41DE       aDmpTexenv4Scal_1
 0006:006C41F7       aDmpTexenv5Scal_1
 0006:006C4210       aDmpTexenv0Comb
 0006:006C422B       aDmpTexenv1Comb
 0006:006C4246       aDmpTexenv2Comb
 0006:006C4261       aDmpTexenv3Comb_1
 0006:006C427C       aDmpTexenv4Comb_1
 0006:006C4297       aDmpTexenv5Comb_1
 0006:006C42B2       aDmpTexenv0Srcr
 0006:006C42C7       aDmpTexenv1Srcr
 0006:006C42DC       aDmpTexenv2Srcr
 0006:006C42F1       aDmpTexenv3Srcr_0
 0006:006C4306       aDmpTexenv4Srcr_0
 0006:006C431B       aDmpTexenv5Srcr_0
 0006:006C4330       aDmpTexenv0Oper_0
 0006:006C4349       aDmpTexenv1Oper_0
 0006:006C4362       aDmpTexenv2Oper_0
 0006:006C437B       aDmpTexenv3Oper_2
 0006:006C4394       aDmpTexenv4Oper_2
 0006:006C43AD       aDmpTexenv5Oper_2
 0006:006C43C6       aDmpTexenv0Scal_0
 0006:006C43DD       aDmpTexenv1Scal_0
 0006:006C43F4       aDmpTexenv2Scal_0
 0006:006C440B       aDmpTexenv3Scal_2
 0006:006C4422       aDmpTexenv4Scal_2
 0006:006C4439       aDmpTexenv5Scal_2
 0006:006C4450       aDmpTexenv0Comb_0
 0006:006C4469       aDmpTexenv1Comb_0
 0006:006C4482       aDmpTexenv2Comb_0
 0006:006C449B       aDmpTexenv3Comb_2
 0006:006C44B4       aDmpTexenv4Comb_2
 0006:006C44CD       aDmpTexenv5Comb_2
 0006:006C44E6       aUframespec
 0006:006C44F1       aDmpFragoperati_3
 0006:006C4511       aDmpTexture0Sam_0
 0006:006C452C       aDmpTexture1Sam
 0006:006C4547       aDmpTexture2Sam
 0006:006C4562       aDmpTexture3Sam
 0006:006C457D       aDmpFragoperati_4
 0006:006C459D       aUtransform
 0006:006C45A8       aUprojection_1
 0006:006C45B4       aDmpTexenv0Buff
 0006:006C45CE       aUcolor
 0006:006C45D5       aUvertexcolor
 0006:006C45E2       aDmpFragoperati_5
 0006:006C4604       aDmpTexenv1Buff
 0006:006C461E       aDmpTexenv2Buff
 0006:006C4638       aDmpTexenv3Buff
 0006:006C4652       aDmpTexenv4Buff
 0006:006C466C       aUmodelview_0
 0006:006C4677       aDmpLightenvLut
 0006:006C4691       aDmpLightenvLut_0
 0006:006C46A9       aDmpFragmentmat
 0006:006C46C8       aDmpLightenvAbs
 0006:006C46E3       aDmpLightenvLut_1
 0006:006C46FB       aDmpFragmentlig_1
 0006:006C4720       aDmpFragmentlig_2
 0006:006C4745       aDmpFragmentlig_3
 0006:006C476A       aDmpFragmentlig_4
 0006:006C478F       aDmpFragmentlig_5
 0006:006C47B4       aDmpFragmentlig_6
 0006:006C47D9       aDmpFragmentlig_7
 0006:006C47FE       aDmpFragmentlig_8
 0006:006C4823       aDmpFragmentmat_0
 0006:006C4842       aDmpFragmentlig_9
 0006:006C4869       aDmpFragmentlig_10
 0006:006C4890       aDmpFragmentlig_11
 0006:006C48B7       aDmpFragmentlig_12
 0006:006C48DE       aDmpFragmentlig_13
 0006:006C4905       aDmpFragmentlig_14
 0006:006C492C       aDmpFragmentlig_15
 0006:006C4953       aDmpFragmentlig_16
 0006:006C497A       aDmpLightenvLut_2
 0006:006C4994       aDmpLightenvLut_3
 0006:006C49AC       aDmpFragmentmat_1
 0006:006C49CB       aDmpLightenvAbs_0
 0006:006C49E6       aDmpLightenvLut_4
 0006:006C49FE       aDmpFragmentlig_17
 0006:006C4A23       aDmpFragmentlig_18
 0006:006C4A48       aDmpFragmentlig_19
 0006:006C4A6D       aDmpFragmentlig_20
 0006:006C4A92       aDmpFragmentlig_21
 0006:006C4AB7       aDmpFragmentlig_22
 0006:006C4ADC       aDmpFragmentlig_23
 0006:006C4B01       aDmpFragmentlig_24
 0006:006C4B26       aDmpFragmentmat_2
 0006:006C4B45       aDmpFragmentlig_25
 0006:006C4B6C       aDmpFragmentlig_26
 0006:006C4B93       aDmpFragmentlig_27
 0006:006C4BBA       aDmpFragmentlig_28
 0006:006C4BE1       aDmpFragmentlig_29
 0006:006C4C08       aDmpFragmentlig_30
 0006:006C4C2F       aDmpFragmentlig_31
 0006:006C4C56       aDmpFragmentlig_32
 0006:006C4C7D       aDmpFragmentlig_33
 0006:006C4CA2       aDmpFragmentlig_34
 0006:006C4CC7       aDmpFragmentlig_35
 0006:006C4CEC       aDmpFragmentlig_36
 0006:006C4D11       aDmpFragmentlig_37
 0006:006C4D36       aDmpFragmentlig_38
 0006:006C4D5B       aDmpFragmentlig_39
 0006:006C4D80       aDmpFragmentlig_40
 0006:006C4DA5       aDmpTexture3Pts
 0006:006C4DBF       aDmpLightenvLut_5
 0006:006C4DD7       aDmpFragmentmat_3
 0006:006C4DF6       aDmpLightenvAbs_1
 0006:006C4E11       aDmpLightenvLut_6
 0006:006C4E29       aDmpGasSamplert
 0006:006C4E3B       aDmpTexture3Pts_0
 0006:006C4E55       aDmpLightenvLut_7
 0006:006C4E6D       aDmpFragmentmat_4
 0006:006C4E8C       aDmpLightenvAbs_2
 0006:006C4EA7       aDmpLightenvLut_8
 0006:006C4EBF       aDmpGasSamplert_0
 0006:006C4ED1       aDmpTexture3Pts_1
 0006:006C4EEB       aDmpLightenvLut_9
 0006:006C4F03       aDmpFragmentlig_41
 0006:006C4F28       aDmpFragmentlig_42
 0006:006C4F4D       aDmpFragmentlig_43
 0006:006C4F72       aDmpFragmentlig_44
 0006:006C4F97       aDmpFragmentlig_45
 0006:006C4FBC       aDmpFragmentlig_46
 0006:006C4FE1       aDmpFragmentlig_47
 0006:006C5006       aDmpFragmentlig_48
 0006:006C502B       aDmpLightenvAbs_3
 0006:006C5046       aDmpLightenvLut_10
 0006:006C505E       aDmpLightenvLut_11
 0006:006C5076       aDmpFragmentmat_5
 0006:006C5095       aDmpLightenvAbs_4
 0006:006C50B0       aDmpLightenvLut_12
 0006:006C50C8       aDmpLightenvLut_13
 0006:006C50E0       aDmpFragmentmat_6
 0006:006C50FF       aDmpLightenvAbs_5
 0006:006C511A       aDmpLightenvLut_14
 0006:006C5132       aDmpGasSamplert_1
 0006:006C5144       aDmpTexture3Pts_2
 0006:006C515E       aDmpTexture3Ptn
 0006:006C5176       aDmpTexture3Ptc
 0006:006C518E       aDmpTexture3Pts_3
 0006:006C51A6       aDmpTexture3Ptn_0
 0006:006C51BE       aDmpTexture3Ptc_0
 0006:006C51D6       aDmpTexture3Pts_4
 0006:006C51EE       aDmpGasLightxy
 0006:006C51FE       aDmpGasDeltaz
 0006:006C520D       aDmpGasLightz
 0006:006C521C       aDmpLightenvSha
 0006:006C5235       aDmpGasAutoacc
 0006:006C5245       aDmpGasShadingd
 0006:006C525F       aDmpFragmentlig_49
 0006:006C5295       aDmpFragmentlig_50
 0006:006C52CB       aDmpFragmentlig_51
 0006:006C5301       aDmpFragmentlig_52
 0006:006C5337       aDmpFragmentlig_53
 0006:006C536D       aDmpFragmentlig_54
 0006:006C53A3       aDmpFragmentlig_55
 0006:006C53D9       aDmpFragmentlig_56
 0006:006C540F       aDmpFragmentlig_57
 0006:006C5436       aDmpFragmentlig_58
 0006:006C545D       aDmpFragmentlig_59
 0006:006C5484       aDmpFragmentlig_60
 0006:006C54AB       aDmpFragmentlig_61
 0006:006C54D2       aDmpFragmentlig_62
 0006:006C54F9       aDmpFragmentlig_63
 0006:006C5520       aDmpFragmentlig_64
 0006:006C5547       aDmpFragmentlig_65
 0006:006C556A       aDmpFragmentlig_66
 0006:006C558D       aDmpFragmentlig_67
 0006:006C55B0       aDmpFragmentlig_68
 0006:006C55D3       aDmpFragmentlig_69
 0006:006C55F6       aDmpFragmentlig_70
 0006:006C5619       aDmpFragmentlig_71
 0006:006C563C       aDmpFragmentlig_72
 0006:006C565F       aDmpFragmentlig_73
 0006:006C567C       aDmpFragmentlig_74
 0006:006C56A0       aDmpFragmentlig_75
 0006:006C56C4       aDmpFragmentlig_76
 0006:006C56E8       aDmpFragmentlig_77
 0006:006C570C       aDmpFragmentlig_78
 0006:006C5730       aDmpFragmentlig_79
 0006:006C5754       aDmpFragmentlig_80
 0006:006C5778       aDmpFragmentlig_81
 0006:006C579C       aDmpTexture2Tex
 0006:006C57B4       aDmpTexture3Tex
 0006:006C57CC       aDmpLightenvBum
 0006:006C57E2       aDmpFogMode_0
 0006:006C57EF       aDmpFragoperati_6
 0006:006C5806       aDmpTexture0Sha
 0006:006C5822       aDmpFragoperati_7
 0006:006C5842       aDmpFragmentlig_82
 0006:006C5876       aDmpFragmentlig_83
 0006:006C58AA       aDmpFragmentlig_84
 0006:006C58DE       aDmpFragmentlig_85
 0006:006C5912       aDmpFragmentlig_86
 0006:006C5946       aDmpFragmentlig_87
 0006:006C597A       aDmpFragmentlig_88
 0006:006C59AE       aDmpFragmentlig_89
 0006:006C59E2       aDmpFragoperati_8
 0006:006C59FB       aDmpTexture3Ptn_1
 0006:006C5A18       aDmpFragoperati_9
 0006:006C5A3E       aDmpFragoperati_10
 0006:006C5A5E       aDmpFragmentlig_90
 0006:006C5A88       aDmpFragmentlig_91
 0006:006C5AB2       aDmpFragmentlig_92
 0006:006C5ADC       aDmpFragmentlig_93
 0006:006C5B06       aDmpFragmentlig_94
 0006:006C5B30       aDmpFragmentlig_95
 0006:006C5B5A       aDmpFragmentlig_96
 0006:006C5B84       aDmpFragmentlig_97
 0006:006C5BAE       aDmpFragmentlig_98
 0006:006C5BD1       aDmpFragmentlig_99
 0006:006C5BF4       aDmpFragmentlig_100
 0006:006C5C17       aDmpFragmentlig_101
 0006:006C5C3A       aDmpFragmentlig_102
 0006:006C5C5D       aDmpFragmentlig_103
 0006:006C5C80       aDmpFragmentlig_104
 0006:006C5CA3       aDmpFragmentlig_105
 0006:006C5CC6       aDmpFragmentmat_7
 0006:006C5CE3       aDmpTexture3Pta
 0006:006C5D02       aDmpLightenvCon
 0006:006C5D16       aDmpTexture3Ptt
 0006:006C5D30       aDmpLightenvLut_15
 0006:006C5D4C       aDmpLightenvBum_0
 0006:006C5D64       aDmpFragmentmat_8
 0006:006C5D82       aDmpGasAttenuat
 0006:006C5D96       aDmpFragmentlig_106
 0006:006C5DBF       aDmpFragmentlig_107
 0006:006C5DE8       aDmpFragmentlig_108
 0006:006C5E11       aDmpFragmentlig_109
 0006:006C5E3A       aDmpFragmentlig_110
 0006:006C5E63       aDmpFragmentlig_111
 0006:006C5E8C       aDmpFragmentlig_112
 0006:006C5EB5       aDmpFragmentlig_113
 0006:006C5EDE       aDmpFragmentlig_114
 0006:006C5F02       aDmpFragmentlig_115
 0006:006C5F26       aDmpFragmentlig_116
 0006:006C5F4A       aDmpFragmentlig_117
 0006:006C5F6E       aDmpFragmentlig_118
 0006:006C5F92       aDmpFragmentlig_119
 0006:006C5FB6       aDmpFragmentlig_120
 0006:006C5FDA       aDmpFragmentlig_121
 0006:006C5FFE       aDmpTexture3Pts_5
 0006:006C601F       aDmpTexture3Pta_0
 0006:006C6039       aDmpTexture3Pts_6
 0006:006C6058       aDmpTexture3Ptr
 0006:006C6070       aDmpTexture3Pts_7
 0006:006C6091       aDmpFogZflip
 0006:006C609F       aDmpFogSampler
 0006:006C60AF       aDmpTexture3Ptm
 0006:006C60CA       aDmpFogColor
 0006:006C60D8       aDmpLightenvFre
 0006:006C60F5       aDmpLightenvBum_1
 0006:006C610F       aDmpLightenvSha_0
 0006:006C612B       aDmpTexture0Sha_0
 0006:006C6146       aDmpFragoperati_11
 0006:006C6165       aDmpFragmentlig_122
 0006:006C6198       aDmpFragmentlig_123
 0006:006C61CB       aDmpFragmentlig_124
 0006:006C61FE       aDmpFragmentlig_125
 0006:006C6231       aDmpFragmentlig_126
 0006:006C6264       aDmpFragmentlig_127
 0006:006C6297       aDmpFragmentlig_128
 0006:006C62CA       aDmpFragmentlig_129
 0006:006C62FD       aDmpTexture3Ptt_0
 0006:006C6316       aDmpLightenvCla
 0006:006C6333       aDmpTexture3Ptt_1
 0006:006C634E       aDmpFragmentlig_130
 0006:006C6371       aDmpFragmentlig_131
 0006:006C6394       aDmpFragmentlig_132
 0006:006C63B7       aDmpFragmentlig_133
 0006:006C63DA       aDmpFragmentlig_134
 0006:006C63FD       aDmpFragmentlig_135
 0006:006C6420       aDmpFragmentlig_136
 0006:006C6443       aDmpFragmentlig_137
 0006:006C6466       aDmpFragmentlig_138
 0006:006C6483       aDmpFragmentmat_9
 0006:006C64A0       aDmpGasColorlut
 0006:006C64B6       aDmpTexture0Per
 0006:006C64D7       aDmpLightenvInv
 0006:006C64F1       aDmpGasAccmax
 0006:006C6500       aDmpLightenvSha_1
 0006:006C651D       aDmpLightenvSha_2
 0006:006C6538       aAptS
 0006:006C653E       aAptU
 0006:006C6544       aCfgU
 0006:006C654A       aGspLcd
 0006:006C6553       aGspGpu
 0006:006C655C       aCfgI
 0006:006C6562       aCfgS
 0006:006C6568       aSBadLocaleName
 0006:006C6582       aSRangeErrorInv
 0006:006C65AA       aSArgumentValue
 0006:006C65D5       aSConversionFai
 0006:006C65EB       aSFacetUNotFoun
 0006:006C6611       aSFailedToConst
 0006:006C6635       aSException
 0006:006C6643       aSUnexpectedExc
 0006:006C665C       aSInvalidPointe
 0006:006C6673       aSLogicError
 0006:006C6683       aSUnspecifiedEr
 0006:006C6699       aSRuntimeError
 0006:006C66AB       aSUnderflowErro
 0006:006C66BF       aSOverflowError
 0006:006C66D2       aSStreamObjectH_2
 0006:006C66EF       aSStreamObjectH_0
 0006:006C6715       aSStreamObjectH_1
 0006:006C673B       aSStreamObjectH
 0006:006C6762       aSBadCast
 0006:006C676F       aSLengthErrorUU
 0006:006C6789       aSBadAllocOutOf
 0006:006C67A6       aSOutOfMemory
 0006:006C67B8       aRomRoBnormalCr
 0006:006C67E0       aBmesBin
 0006:006C67F2       aR_2
 0006:006C67F8       aBobjBobjuiDat
 0006:006C681C       aRomBobjBobjpcD
 0006:006C6846       aR_3
 0006:006C684C       aBaiBaiAtkEtcDa
 0006:006C6878       aRomBaiBaiScnJi
 0006:006C68A8       aRomBaiBaiMonJi
 0006:006C68D8       aRomBaiBaiAtkHk
 0006:006C6908       aRomMobjatkMobj_0
 0006:006C693A       aR_4
 0006:006C6940       aBmdlBmdlDat
 0006:006C6960       aRomBobjBobjmon
 0006:006C698C       aRomBaiBaiScnFo
 0006:006C69BC       aRomBaiBaiMonFo
 0006:006C69EC       aRomBaiBaiAtkMo
 0006:006C6A1C       aRomBaiBaiScnMo
 0006:006C6A4C       aRomBaiBaiMonMo
 0006:006C6A7C       aRomBmapBmapDat
 0006:006C6AA2       aB
 0006:006C6AA8       aSDat
 0006:006C6AB4       aRomBaiBaiAtkMs
 0006:006C6AE4       aRomBaiBaiAtkRs
 0006:006C6B14       aRomBaiBaiScnMu
 0006:006C6B44       aRomBaiBaiMonMu
 0006:006C6B74       aUseitem
 0006:006C6B84       aDataMl4001Sav
 0006:006C6BA8       aDataMl4002Sav
 0006:006C6BCC       aAtkmidorikoura
 0006:006C6BEA       aA
 0006:006C6BF0       aRocketboard
 0006:006C6C08       aAtkmiraclefire
 0006:006C6C26       aA_0
 0006:006C6C2C       aDreamegg
 0006:006C6C3E       aA_1
 0006:006C6C48       aRacleball
 0006:006C6C5C       aAtkfuechauball
 0006:006C6C7A       aA_2
 0006:006C6C84       aRaclesnowball
 0006:006C6CA0       aAtkmiracletorn
 0006:006C6CC4       aAtksnipepachin
 0006:006C6CE6       aA_3
 0006:006C6CF0       aRaclevolcano
 0006:006C6D0A       aA_4
 0006:006C6D14       aRaclejump
 0006:006C6D28       aAtksolojump
 0006:006C6D40       aAtkmiraclehamm
 0006:006C6D62       aA_5
 0006:006C6D68       aSolohammer
 0006:006C6D7E       aA_6
 0006:006C6D88       aCopter
 0006:006C6D96       aA_7
 0006:006C6D9C       aBaibaiflower
 0006:006C6DB6       aA_8
 0006:006C6DBC       aAchichiflower
 0006:006C6DD8       aExpertchalleng
 0006:006C6E02       aI
 0006:006C6E08       aMMsbt
 0006:006C6E16       aA_9
 0006:006C6E1C       aHanerumet
 0006:006C6E30       aAtkstarrocket
 0006:006C6E4C       aAtkbaibaitaiho
 0006:006C6E6C       aAtktarutaihou
 0006:006C6E88       aRomShaderPrimS
 0006:006C6EB6       aF
 0006:006C6EBC       aTLBcfnt
 0006:006C6ED0       aFontBtlBcfnt
 0006:006C6EEE       aF_0
 0006:006C6EF4       aTSBcfnt
 0006:006C6F08       aFontBcfnt
 0006:006C6F1E       aF_1
 0006:006C6F24       aTRubyBcfnt
 0006:006C6F3E       aR_5
 0006:006C6F44       aRoFrealCro
 0006:006C6F62       aR_6
 0006:006C6F68       aRoFdreamCro
 0006:006C6F88       aRomFobjFobjuiD
 0006:006C6FB2       aR_7
 0006:006C6FB8       aFobjFobjpcDat
 0006:006C6FDC       aRomFobjFobjetc
 0006:006C7008       aRomFmdlFmdlDat
 0006:006C702E       aR_8
 0006:006C7034       aFobjFobjmonDat
 0006:006C705A       aR_9
 0006:006C7060       aFobjFobjchrDat
 0006:006C7086       aR_10
 0006:006C708C       aFmapFmapdatDat
 0006:006C70B2       aR_11
 0006:006C70B8       aDobjDobjpc2Dat
 0006:006C70DE       aR_12
 0006:006C70E4       aDobjDobjuiDat
 0006:006C7108       aRomDobjDobjpcD
 0006:006C7132       aR_1
 0006:006C7138       aDobjDobjetcDat
 0006:006C715E       aR_13
 0006:006C7164       aDmdlDmdlDat
 0006:006C7184       aRomDobjDobjmon
 0006:006C71B0       aRomDobjDobjchr
 0006:006C71DC       aRomFmapShadowm
 0006:006C7214       aRomRoHugebattl
 0006:006C7242       aR_14
 0006:006C7248       aRoMenuCro
 0006:006C7264       aRomRoShopCro
 0006:006C7286       aR_15
 0006:006C728C       aRoLoadCro
 0006:006C72A8       aRomRoSaveCro
 0006:006C72CA       aR_16
 0006:006C72D0       aRoColosseumCro
 0006:006C72F6       aR_17
 0006:006C72FC       aRoMinigameCro
 0006:006C7320       aRomRoTitleCro
 0006:006C7344       aRomRoStaffroll
 0006:006C7370       aRom_4
 0006:006C7384       aErsNwlytPanesh
 0006:006C73C4       aErsNwfontTextw
 0006:006C7408       aShadersNwfontR
 0006:006C7460       aErsNwlytConstc
 0007:006D0148       aRomFdfxFdfxall
 0007:006D0174       aRomFdfxFdfxeca
 0007:006D01A4       aRomFdfxFdfxres
 0007:006D01D6       aR_18
 0007:006D027C       aRomFdfxFdfxcmd
 0007:006D02AA       aR_19
 0007:006D0314       aRomFdfxFdfxpri
 0007:006E1298       aRwstderr1
 0008:006ED454       Temp
